
F4_Smoketest.elf:     file format elf32-littlearm

Sections:
Idx Name          Size      VMA       LMA       File off  Algn
  0 .isr_vector   000001c4  08000000  08000000  00001000  2**0
                  CONTENTS, ALLOC, LOAD, READONLY, DATA
  1 .text         00007318  080001c8  080001c8  000011c8  2**3
                  CONTENTS, ALLOC, LOAD, READONLY, CODE
  2 .rodata       00000418  080074e0  080074e0  000084e0  2**2
                  CONTENTS, ALLOC, LOAD, READONLY, DATA
  3 .ARM.extab    00000000  080078f8  080078f8  0000952c  2**0
                  CONTENTS
  4 .ARM          00000008  080078f8  080078f8  000088f8  2**2
                  CONTENTS, ALLOC, LOAD, READONLY, DATA
  5 .preinit_array 00000000  08007900  08007900  0000952c  2**0
                  CONTENTS, ALLOC, LOAD, DATA
  6 .init_array   00000004  08007900  08007900  00008900  2**2
                  CONTENTS, ALLOC, LOAD, DATA
  7 .fini_array   00000004  08007904  08007904  00008904  2**2
                  CONTENTS, ALLOC, LOAD, DATA
  8 .data         0000052c  20000000  08007908  00009000  2**2
                  CONTENTS, ALLOC, LOAD, DATA
  9 .bss          00001444  2000052c  08007e34  0000952c  2**2
                  ALLOC
 10 ._user_heap_stack 00000600  20001970  08007e34  00009970  2**0
                  ALLOC
 11 .ARM.attributes 00000030  00000000  00000000  0000952c  2**0
                  CONTENTS, READONLY
 12 .debug_line   00039ab7  00000000  00000000  0000955c  2**0
                  CONTENTS, READONLY, DEBUGGING, OCTETS
 13 .debug_line_str 00000087  00000000  00000000  00043013  2**0
                  CONTENTS, READONLY, DEBUGGING, OCTETS
 14 .debug_info   00035a6e  00000000  00000000  0004309a  2**0
                  CONTENTS, READONLY, DEBUGGING, OCTETS
 15 .debug_abbrev 000079c5  00000000  00000000  00078b08  2**0
                  CONTENTS, READONLY, DEBUGGING, OCTETS
 16 .debug_aranges 00001b18  00000000  00000000  000804d0  2**3
                  CONTENTS, READONLY, DEBUGGING, OCTETS
 17 .debug_str    000f5e7b  00000000  00000000  00081fe8  2**0
                  CONTENTS, READONLY, DEBUGGING, OCTETS
 18 .debug_rnglists 0000263c  00000000  00000000  00177e63  2**0
                  CONTENTS, READONLY, DEBUGGING, OCTETS
 19 .debug_loclists 00016ea0  00000000  00000000  0017a49f  2**0
                  CONTENTS, READONLY, DEBUGGING, OCTETS
 20 .debug_macro  0002bf47  00000000  00000000  0019133f  2**0
                  CONTENTS, READONLY, DEBUGGING, OCTETS
 21 .comment      00000043  00000000  00000000  001bd286  2**0
                  CONTENTS, READONLY
 22 .debug_frame  00004688  00000000  00000000  001bd2cc  2**2
                  CONTENTS, READONLY, DEBUGGING, OCTETS

Disassembly of section .text:

080001c8 <__do_global_dtors_aux>:
 80001c8:	b510      	push	{r4, lr}
 80001ca:	4c05      	ldr	r4, [pc, #20]	@ (80001e0 <__do_global_dtors_aux+0x18>)
 80001cc:	7823      	ldrb	r3, [r4, #0]
 80001ce:	b933      	cbnz	r3, 80001de <__do_global_dtors_aux+0x16>
 80001d0:	4b04      	ldr	r3, [pc, #16]	@ (80001e4 <__do_global_dtors_aux+0x1c>)
 80001d2:	b113      	cbz	r3, 80001da <__do_global_dtors_aux+0x12>
 80001d4:	4804      	ldr	r0, [pc, #16]	@ (80001e8 <__do_global_dtors_aux+0x20>)
 80001d6:	f3af 8000 	nop.w
 80001da:	2301      	movs	r3, #1
 80001dc:	7023      	strb	r3, [r4, #0]
 80001de:	bd10      	pop	{r4, pc}
 80001e0:	2000052c 	.word	0x2000052c
 80001e4:	00000000 	.word	0x00000000
 80001e8:	080074c8 	.word	0x080074c8

080001ec <frame_dummy>:
 80001ec:	b508      	push	{r3, lr}
 80001ee:	4b03      	ldr	r3, [pc, #12]	@ (80001fc <frame_dummy+0x10>)
 80001f0:	b11b      	cbz	r3, 80001fa <frame_dummy+0xe>
 80001f2:	4903      	ldr	r1, [pc, #12]	@ (8000200 <frame_dummy+0x14>)
 80001f4:	4803      	ldr	r0, [pc, #12]	@ (8000204 <frame_dummy+0x18>)
 80001f6:	f3af 8000 	nop.w
 80001fa:	bd08      	pop	{r3, pc}
 80001fc:	00000000 	.word	0x00000000
 8000200:	20000530 	.word	0x20000530
 8000204:	080074c8 	.word	0x080074c8

08000208 <__aeabi_uldivmod>:
 8000208:	b953      	cbnz	r3, 8000220 <__aeabi_uldivmod+0x18>
 800020a:	b94a      	cbnz	r2, 8000220 <__aeabi_uldivmod+0x18>
 800020c:	2900      	cmp	r1, #0
 800020e:	bf08      	it	eq
 8000210:	2800      	cmpeq	r0, #0
 8000212:	bf1c      	itt	ne
 8000214:	f04f 31ff 	movne.w	r1, #4294967295
 8000218:	f04f 30ff 	movne.w	r0, #4294967295
 800021c:	f000 b96a 	b.w	80004f4 <__aeabi_idiv0>
 8000220:	f1ad 0c08 	sub.w	ip, sp, #8
 8000224:	e96d ce04 	strd	ip, lr, [sp, #-16]!
 8000228:	f000 f806 	bl	8000238 <__udivmoddi4>
 800022c:	f8dd e004 	ldr.w	lr, [sp, #4]
 8000230:	e9dd 2302 	ldrd	r2, r3, [sp, #8]
 8000234:	b004      	add	sp, #16
 8000236:	4770      	bx	lr

08000238 <__udivmoddi4>:
 8000238:	e92d 47f0 	stmdb	sp!, {r4, r5, r6, r7, r8, r9, sl, lr}
 800023c:	9d08      	ldr	r5, [sp, #32]
 800023e:	460c      	mov	r4, r1
 8000240:	2b00      	cmp	r3, #0
 8000242:	d14e      	bne.n	80002e2 <__udivmoddi4+0xaa>
 8000244:	4694      	mov	ip, r2
 8000246:	458c      	cmp	ip, r1
 8000248:	4686      	mov	lr, r0
 800024a:	fab2 f282 	clz	r2, r2
 800024e:	d962      	bls.n	8000316 <__udivmoddi4+0xde>
 8000250:	b14a      	cbz	r2, 8000266 <__udivmoddi4+0x2e>
 8000252:	f1c2 0320 	rsb	r3, r2, #32
 8000256:	4091      	lsls	r1, r2
 8000258:	fa20 f303 	lsr.w	r3, r0, r3
 800025c:	fa0c fc02 	lsl.w	ip, ip, r2
 8000260:	4319      	orrs	r1, r3
 8000262:	fa00 fe02 	lsl.w	lr, r0, r2
 8000266:	ea4f 471c 	mov.w	r7, ip, lsr #16
 800026a:	fa1f f68c 	uxth.w	r6, ip
 800026e:	fbb1 f4f7 	udiv	r4, r1, r7
 8000272:	ea4f 431e 	mov.w	r3, lr, lsr #16
 8000276:	fb07 1114 	mls	r1, r7, r4, r1
 800027a:	ea43 4301 	orr.w	r3, r3, r1, lsl #16
 800027e:	fb04 f106 	mul.w	r1, r4, r6
 8000282:	4299      	cmp	r1, r3
 8000284:	d90a      	bls.n	800029c <__udivmoddi4+0x64>
 8000286:	eb1c 0303 	adds.w	r3, ip, r3
 800028a:	f104 30ff 	add.w	r0, r4, #4294967295
 800028e:	f080 8112 	bcs.w	80004b6 <__udivmoddi4+0x27e>
 8000292:	4299      	cmp	r1, r3
 8000294:	f240 810f 	bls.w	80004b6 <__udivmoddi4+0x27e>
 8000298:	3c02      	subs	r4, #2
 800029a:	4463      	add	r3, ip
 800029c:	1a59      	subs	r1, r3, r1
 800029e:	fa1f f38e 	uxth.w	r3, lr
 80002a2:	fbb1 f0f7 	udiv	r0, r1, r7
 80002a6:	fb07 1110 	mls	r1, r7, r0, r1
 80002aa:	ea43 4301 	orr.w	r3, r3, r1, lsl #16
 80002ae:	fb00 f606 	mul.w	r6, r0, r6
 80002b2:	429e      	cmp	r6, r3
 80002b4:	d90a      	bls.n	80002cc <__udivmoddi4+0x94>
 80002b6:	eb1c 0303 	adds.w	r3, ip, r3
 80002ba:	f100 31ff 	add.w	r1, r0, #4294967295
 80002be:	f080 80fc 	bcs.w	80004ba <__udivmoddi4+0x282>
 80002c2:	429e      	cmp	r6, r3
 80002c4:	f240 80f9 	bls.w	80004ba <__udivmoddi4+0x282>
 80002c8:	4463      	add	r3, ip
 80002ca:	3802      	subs	r0, #2
 80002cc:	1b9b      	subs	r3, r3, r6
 80002ce:	ea40 4004 	orr.w	r0, r0, r4, lsl #16
 80002d2:	2100      	movs	r1, #0
 80002d4:	b11d      	cbz	r5, 80002de <__udivmoddi4+0xa6>
 80002d6:	40d3      	lsrs	r3, r2
 80002d8:	2200      	movs	r2, #0
 80002da:	e9c5 3200 	strd	r3, r2, [r5]
 80002de:	e8bd 87f0 	ldmia.w	sp!, {r4, r5, r6, r7, r8, r9, sl, pc}
 80002e2:	428b      	cmp	r3, r1
 80002e4:	d905      	bls.n	80002f2 <__udivmoddi4+0xba>
 80002e6:	b10d      	cbz	r5, 80002ec <__udivmoddi4+0xb4>
 80002e8:	e9c5 0100 	strd	r0, r1, [r5]
 80002ec:	2100      	movs	r1, #0
 80002ee:	4608      	mov	r0, r1
 80002f0:	e7f5      	b.n	80002de <__udivmoddi4+0xa6>
 80002f2:	fab3 f183 	clz	r1, r3
 80002f6:	2900      	cmp	r1, #0
 80002f8:	d146      	bne.n	8000388 <__udivmoddi4+0x150>
 80002fa:	42a3      	cmp	r3, r4
 80002fc:	d302      	bcc.n	8000304 <__udivmoddi4+0xcc>
 80002fe:	4290      	cmp	r0, r2
 8000300:	f0c0 80f0 	bcc.w	80004e4 <__udivmoddi4+0x2ac>
 8000304:	1a86      	subs	r6, r0, r2
 8000306:	eb64 0303 	sbc.w	r3, r4, r3
 800030a:	2001      	movs	r0, #1
 800030c:	2d00      	cmp	r5, #0
 800030e:	d0e6      	beq.n	80002de <__udivmoddi4+0xa6>
 8000310:	e9c5 6300 	strd	r6, r3, [r5]
 8000314:	e7e3      	b.n	80002de <__udivmoddi4+0xa6>
 8000316:	2a00      	cmp	r2, #0
 8000318:	f040 8090 	bne.w	800043c <__udivmoddi4+0x204>
 800031c:	eba1 040c 	sub.w	r4, r1, ip
 8000320:	ea4f 481c 	mov.w	r8, ip, lsr #16
 8000324:	fa1f f78c 	uxth.w	r7, ip
 8000328:	2101      	movs	r1, #1
 800032a:	fbb4 f6f8 	udiv	r6, r4, r8
 800032e:	ea4f 431e 	mov.w	r3, lr, lsr #16
 8000332:	fb08 4416 	mls	r4, r8, r6, r4
 8000336:	ea43 4304 	orr.w	r3, r3, r4, lsl #16
 800033a:	fb07 f006 	mul.w	r0, r7, r6
 800033e:	4298      	cmp	r0, r3
 8000340:	d908      	bls.n	8000354 <__udivmoddi4+0x11c>
 8000342:	eb1c 0303 	adds.w	r3, ip, r3
 8000346:	f106 34ff 	add.w	r4, r6, #4294967295
 800034a:	d202      	bcs.n	8000352 <__udivmoddi4+0x11a>
 800034c:	4298      	cmp	r0, r3
 800034e:	f200 80cd 	bhi.w	80004ec <__udivmoddi4+0x2b4>
 8000352:	4626      	mov	r6, r4
 8000354:	1a1c      	subs	r4, r3, r0
 8000356:	fa1f f38e 	uxth.w	r3, lr
 800035a:	fbb4 f0f8 	udiv	r0, r4, r8
 800035e:	fb08 4410 	mls	r4, r8, r0, r4
 8000362:	ea43 4304 	orr.w	r3, r3, r4, lsl #16
 8000366:	fb00 f707 	mul.w	r7, r0, r7
 800036a:	429f      	cmp	r7, r3
 800036c:	d908      	bls.n	8000380 <__udivmoddi4+0x148>
 800036e:	eb1c 0303 	adds.w	r3, ip, r3
 8000372:	f100 34ff 	add.w	r4, r0, #4294967295
 8000376:	d202      	bcs.n	800037e <__udivmoddi4+0x146>
 8000378:	429f      	cmp	r7, r3
 800037a:	f200 80b0 	bhi.w	80004de <__udivmoddi4+0x2a6>
 800037e:	4620      	mov	r0, r4
 8000380:	1bdb      	subs	r3, r3, r7
 8000382:	ea40 4006 	orr.w	r0, r0, r6, lsl #16
 8000386:	e7a5      	b.n	80002d4 <__udivmoddi4+0x9c>
 8000388:	f1c1 0620 	rsb	r6, r1, #32
 800038c:	408b      	lsls	r3, r1
 800038e:	fa22 f706 	lsr.w	r7, r2, r6
 8000392:	431f      	orrs	r7, r3
 8000394:	fa20 fc06 	lsr.w	ip, r0, r6
 8000398:	fa04 f301 	lsl.w	r3, r4, r1
 800039c:	ea43 030c 	orr.w	r3, r3, ip
 80003a0:	40f4      	lsrs	r4, r6
 80003a2:	fa00 f801 	lsl.w	r8, r0, r1
 80003a6:	0c38      	lsrs	r0, r7, #16
 80003a8:	ea4f 4913 	mov.w	r9, r3, lsr #16
 80003ac:	fbb4 fef0 	udiv	lr, r4, r0
 80003b0:	fa1f fc87 	uxth.w	ip, r7
 80003b4:	fb00 441e 	mls	r4, r0, lr, r4
 80003b8:	ea49 4404 	orr.w	r4, r9, r4, lsl #16
 80003bc:	fb0e f90c 	mul.w	r9, lr, ip
 80003c0:	45a1      	cmp	r9, r4
 80003c2:	fa02 f201 	lsl.w	r2, r2, r1
 80003c6:	d90a      	bls.n	80003de <__udivmoddi4+0x1a6>
 80003c8:	193c      	adds	r4, r7, r4
 80003ca:	f10e 3aff 	add.w	sl, lr, #4294967295
 80003ce:	f080 8084 	bcs.w	80004da <__udivmoddi4+0x2a2>
 80003d2:	45a1      	cmp	r9, r4
 80003d4:	f240 8081 	bls.w	80004da <__udivmoddi4+0x2a2>
 80003d8:	f1ae 0e02 	sub.w	lr, lr, #2
 80003dc:	443c      	add	r4, r7
 80003de:	eba4 0409 	sub.w	r4, r4, r9
 80003e2:	fa1f f983 	uxth.w	r9, r3
 80003e6:	fbb4 f3f0 	udiv	r3, r4, r0
 80003ea:	fb00 4413 	mls	r4, r0, r3, r4
 80003ee:	ea49 4404 	orr.w	r4, r9, r4, lsl #16
 80003f2:	fb03 fc0c 	mul.w	ip, r3, ip
 80003f6:	45a4      	cmp	ip, r4
 80003f8:	d907      	bls.n	800040a <__udivmoddi4+0x1d2>
 80003fa:	193c      	adds	r4, r7, r4
 80003fc:	f103 30ff 	add.w	r0, r3, #4294967295
 8000400:	d267      	bcs.n	80004d2 <__udivmoddi4+0x29a>
 8000402:	45a4      	cmp	ip, r4
 8000404:	d965      	bls.n	80004d2 <__udivmoddi4+0x29a>
 8000406:	3b02      	subs	r3, #2
 8000408:	443c      	add	r4, r7
 800040a:	ea43 400e 	orr.w	r0, r3, lr, lsl #16
 800040e:	fba0 9302 	umull	r9, r3, r0, r2
 8000412:	eba4 040c 	sub.w	r4, r4, ip
 8000416:	429c      	cmp	r4, r3
 8000418:	46ce      	mov	lr, r9
 800041a:	469c      	mov	ip, r3
 800041c:	d351      	bcc.n	80004c2 <__udivmoddi4+0x28a>
 800041e:	d04e      	beq.n	80004be <__udivmoddi4+0x286>
 8000420:	b155      	cbz	r5, 8000438 <__udivmoddi4+0x200>
 8000422:	ebb8 030e 	subs.w	r3, r8, lr
 8000426:	eb64 040c 	sbc.w	r4, r4, ip
 800042a:	fa04 f606 	lsl.w	r6, r4, r6
 800042e:	40cb      	lsrs	r3, r1
 8000430:	431e      	orrs	r6, r3
 8000432:	40cc      	lsrs	r4, r1
 8000434:	e9c5 6400 	strd	r6, r4, [r5]
 8000438:	2100      	movs	r1, #0
 800043a:	e750      	b.n	80002de <__udivmoddi4+0xa6>
 800043c:	f1c2 0320 	rsb	r3, r2, #32
 8000440:	fa20 f103 	lsr.w	r1, r0, r3
 8000444:	fa0c fc02 	lsl.w	ip, ip, r2
 8000448:	fa24 f303 	lsr.w	r3, r4, r3
 800044c:	4094      	lsls	r4, r2
 800044e:	430c      	orrs	r4, r1
 8000450:	ea4f 481c 	mov.w	r8, ip, lsr #16
 8000454:	fa00 fe02 	lsl.w	lr, r0, r2
 8000458:	fa1f f78c 	uxth.w	r7, ip
 800045c:	fbb3 f0f8 	udiv	r0, r3, r8
 8000460:	fb08 3110 	mls	r1, r8, r0, r3
 8000464:	0c23      	lsrs	r3, r4, #16
 8000466:	ea43 4301 	orr.w	r3, r3, r1, lsl #16
 800046a:	fb00 f107 	mul.w	r1, r0, r7
 800046e:	4299      	cmp	r1, r3
 8000470:	d908      	bls.n	8000484 <__udivmoddi4+0x24c>
 8000472:	eb1c 0303 	adds.w	r3, ip, r3
 8000476:	f100 36ff 	add.w	r6, r0, #4294967295
 800047a:	d22c      	bcs.n	80004d6 <__udivmoddi4+0x29e>
 800047c:	4299      	cmp	r1, r3
 800047e:	d92a      	bls.n	80004d6 <__udivmoddi4+0x29e>
 8000480:	3802      	subs	r0, #2
 8000482:	4463      	add	r3, ip
 8000484:	1a5b      	subs	r3, r3, r1
 8000486:	b2a4      	uxth	r4, r4
 8000488:	fbb3 f1f8 	udiv	r1, r3, r8
 800048c:	fb08 3311 	mls	r3, r8, r1, r3
 8000490:	ea44 4403 	orr.w	r4, r4, r3, lsl #16
 8000494:	fb01 f307 	mul.w	r3, r1, r7
 8000498:	42a3      	cmp	r3, r4
 800049a:	d908      	bls.n	80004ae <__udivmoddi4+0x276>
 800049c:	eb1c 0404 	adds.w	r4, ip, r4
 80004a0:	f101 36ff 	add.w	r6, r1, #4294967295
 80004a4:	d213      	bcs.n	80004ce <__udivmoddi4+0x296>
 80004a6:	42a3      	cmp	r3, r4
 80004a8:	d911      	bls.n	80004ce <__udivmoddi4+0x296>
 80004aa:	3902      	subs	r1, #2
 80004ac:	4464      	add	r4, ip
 80004ae:	1ae4      	subs	r4, r4, r3
 80004b0:	ea41 4100 	orr.w	r1, r1, r0, lsl #16
 80004b4:	e739      	b.n	800032a <__udivmoddi4+0xf2>
 80004b6:	4604      	mov	r4, r0
 80004b8:	e6f0      	b.n	800029c <__udivmoddi4+0x64>
 80004ba:	4608      	mov	r0, r1
 80004bc:	e706      	b.n	80002cc <__udivmoddi4+0x94>
 80004be:	45c8      	cmp	r8, r9
 80004c0:	d2ae      	bcs.n	8000420 <__udivmoddi4+0x1e8>
 80004c2:	ebb9 0e02 	subs.w	lr, r9, r2
 80004c6:	eb63 0c07 	sbc.w	ip, r3, r7
 80004ca:	3801      	subs	r0, #1
 80004cc:	e7a8      	b.n	8000420 <__udivmoddi4+0x1e8>
 80004ce:	4631      	mov	r1, r6
 80004d0:	e7ed      	b.n	80004ae <__udivmoddi4+0x276>
 80004d2:	4603      	mov	r3, r0
 80004d4:	e799      	b.n	800040a <__udivmoddi4+0x1d2>
 80004d6:	4630      	mov	r0, r6
 80004d8:	e7d4      	b.n	8000484 <__udivmoddi4+0x24c>
 80004da:	46d6      	mov	lr, sl
 80004dc:	e77f      	b.n	80003de <__udivmoddi4+0x1a6>
 80004de:	4463      	add	r3, ip
 80004e0:	3802      	subs	r0, #2
 80004e2:	e74d      	b.n	8000380 <__udivmoddi4+0x148>
 80004e4:	4606      	mov	r6, r0
 80004e6:	4623      	mov	r3, r4
 80004e8:	4608      	mov	r0, r1
 80004ea:	e70f      	b.n	800030c <__udivmoddi4+0xd4>
 80004ec:	3e02      	subs	r6, #2
 80004ee:	4463      	add	r3, ip
 80004f0:	e730      	b.n	8000354 <__udivmoddi4+0x11c>
 80004f2:	bf00      	nop

080004f4 <__aeabi_idiv0>:
 80004f4:	4770      	bx	lr
 80004f6:	bf00      	nop

080004f8 <Reset_Handler>:

    .section  .text.Reset_Handler
  .weak  Reset_Handler
  .type  Reset_Handler, %function
Reset_Handler:  
  ldr   sp, =_estack      /* set stack pointer */
 80004f8:	f8df d034 	ldr.w	sp, [pc, #52]	@ 8000530 <LoopFillZerobss+0x12>

/* Copy the data segment initializers from flash to SRAM */  
  ldr r0, =_sdata
 80004fc:	480d      	ldr	r0, [pc, #52]	@ (8000534 <LoopFillZerobss+0x16>)
  ldr r1, =_edata
 80004fe:	490e      	ldr	r1, [pc, #56]	@ (8000538 <LoopFillZerobss+0x1a>)
  ldr r2, =_sidata
 8000500:	4a0e      	ldr	r2, [pc, #56]	@ (800053c <LoopFillZerobss+0x1e>)
  movs r3, #0
 8000502:	2300      	movs	r3, #0
  b LoopCopyDataInit
 8000504:	e002      	b.n	800050c <LoopCopyDataInit>

08000506 <CopyDataInit>:

CopyDataInit:
  ldr r4, [r2, r3]
 8000506:	58d4      	ldr	r4, [r2, r3]
  str r4, [r0, r3]
 8000508:	50c4      	str	r4, [r0, r3]
  adds r3, r3, #4
 800050a:	3304      	adds	r3, #4

0800050c <LoopCopyDataInit>:

LoopCopyDataInit:
  adds r4, r0, r3
 800050c:	18c4      	adds	r4, r0, r3
  cmp r4, r1
 800050e:	428c      	cmp	r4, r1
  bcc CopyDataInit
 8000510:	d3f9      	bcc.n	8000506 <CopyDataInit>
  
/* Zero fill the bss segment. */
  ldr r2, =_sbss
 8000512:	4a0b      	ldr	r2, [pc, #44]	@ (8000540 <LoopFillZerobss+0x22>)
  ldr r4, =_ebss
 8000514:	4c0b      	ldr	r4, [pc, #44]	@ (8000544 <LoopFillZerobss+0x26>)
  movs r3, #0
 8000516:	2300      	movs	r3, #0
  b LoopFillZerobss
 8000518:	e001      	b.n	800051e <LoopFillZerobss>

0800051a <FillZerobss>:

FillZerobss:
  str  r3, [r2]
 800051a:	6013      	str	r3, [r2, #0]
  adds r2, r2, #4
 800051c:	3204      	adds	r2, #4

0800051e <LoopFillZerobss>:

LoopFillZerobss:
  cmp r2, r4
 800051e:	42a2      	cmp	r2, r4
  bcc FillZerobss
 8000520:	d3fb      	bcc.n	800051a <FillZerobss>

/* Call the clock system initialization function.*/
  bl  SystemInit   
 8000522:	f003 fc1d 	bl	8003d60 <SystemInit>
/* Call static constructors */
    bl __libc_init_array
 8000526:	f006 ff9d 	bl	8007464 <__libc_init_array>
/* Call the application's entry point.*/
  bl  main
 800052a:	f000 fbcd 	bl	8000cc8 <main>
  bx  lr    
 800052e:	4770      	bx	lr
  ldr   sp, =_estack      /* set stack pointer */
 8000530:	20020000 	.word	0x20020000
  ldr r0, =_sdata
 8000534:	20000000 	.word	0x20000000
  ldr r1, =_edata
 8000538:	2000052c 	.word	0x2000052c
  ldr r2, =_sidata
 800053c:	08007908 	.word	0x08007908
  ldr r2, =_sbss
 8000540:	2000052c 	.word	0x2000052c
  ldr r4, =_ebss
 8000544:	20001970 	.word	0x20001970

08000548 <BusFault_Handler>:
 * @retval None       
*/
    .section  .text.Default_Handler,"ax",%progbits
Default_Handler:
Infinite_Loop:
  b  Infinite_Loop
 8000548:	e7fe      	b.n	8000548 <BusFault_Handler>
	...

0800054c <ASPEP_start>:
  * @brief  Starts ASPEP communication by configuring UART.
  *
  * @param  *pHandle Handler of the current instance of the ASPEP component
  */
void ASPEP_start(ASPEP_Handle_t *pHandle)
{
 800054c:	b570      	push	{r4, r5, r6, lr}
 800054e:	4604      	mov	r4, r0
    /* Nothing to do */
  }
  else
  {
#endif
    pHandle->fASPEP_HWInit(pHandle->HWIp);
 8000550:	6940      	ldr	r0, [r0, #20]
 8000552:	6ce3      	ldr	r3, [r4, #76]	@ 0x4c
 8000554:	4798      	blx	r3
    pHandle->ASPEP_State = ASPEP_IDLE;
 8000556:	2300      	movs	r3, #0
    pHandle->ASPEP_TL_State = WAITING_PACKET;
    pHandle->syncPacketCount = 0; /* Sync packet counter is reset only at startup*/

    /* Configure UART to receive first packet*/
    pHandle->fASPEP_receive(pHandle->HWIp, pHandle->rxHeader, ASPEP_HEADER_SIZE);
 8000558:	6d65      	ldr	r5, [r4, #84]	@ 0x54
    pHandle->ASPEP_State = ASPEP_IDLE;
 800055a:	f8a4 3064 	strh.w	r3, [r4, #100]	@ 0x64
    pHandle->syncPacketCount = 0; /* Sync packet counter is reset only at startup*/
 800055e:	f884 3060 	strb.w	r3, [r4, #96]	@ 0x60
    pHandle->fASPEP_receive(pHandle->HWIp, pHandle->rxHeader, ASPEP_HEADER_SIZE);
 8000562:	6960      	ldr	r0, [r4, #20]
 8000564:	f104 011c 	add.w	r1, r4, #28
 8000568:	462b      	mov	r3, r5
 800056a:	2204      	movs	r2, #4
#ifdef NULL_PTR_CHECK_ASP
  }
#endif
}
 800056c:	e8bd 4070 	ldmia.w	sp!, {r4, r5, r6, lr}
    pHandle->fASPEP_receive(pHandle->HWIp, pHandle->rxHeader, ASPEP_HEADER_SIZE);
 8000570:	4718      	bx	r3
 8000572:	bf00      	nop

08000574 <ASPEP_sendBeacon>:
  *
  * @param  *pHandle Handler of the current instance of the ASPEP component
  * @param  *capabilities Matched capabilities between controller and performer
  */
void ASPEP_sendBeacon(ASPEP_Handle_t *pHandle, ASPEP_Capabilities_def *capabilities)
{
 8000574:	b410      	push	{r4}
  {
#endif
    uint32_t *packet = (uint32_t *)pHandle->ctrlBuffer.buffer; //cstat !MISRAC2012-Rule-11.3
    *packet = (BEACON
             | (((uint32_t)capabilities->version) << 4U)
             | (((uint32_t)capabilities->DATA_CRC) << 7U)
 8000576:	780b      	ldrb	r3, [r1, #0]
             | (((uint32_t)capabilities->version) << 4U)
 8000578:	790a      	ldrb	r2, [r1, #4]
             | (((uint32_t)capabilities->RX_maxSize) << 8U)
             | (((uint32_t)capabilities->TXS_maxSize) << 14U)
 800057a:	f891 c002 	ldrb.w	ip, [r1, #2]
  crc = CRC4_Lookup8[crc ^ (uint8_t)(header         & 0xffU)];
 800057e:	4c1e      	ldr	r4, [pc, #120]	@ (80005f8 <ASPEP_sendBeacon+0x84>)
             | (((uint32_t)capabilities->DATA_CRC) << 7U)
 8000580:	01db      	lsls	r3, r3, #7
 8000582:	ea43 1302 	orr.w	r3, r3, r2, lsl #4
             | (((uint32_t)capabilities->RX_maxSize) << 8U)
 8000586:	784a      	ldrb	r2, [r1, #1]
 8000588:	ea43 2302 	orr.w	r3, r3, r2, lsl #8
             | (((uint32_t)capabilities->TXA_maxSize) << 21U));
 800058c:	78ca      	ldrb	r2, [r1, #3]
             | (((uint32_t)capabilities->TXS_maxSize) << 14U)
 800058e:	ea43 338c 	orr.w	r3, r3, ip, lsl #14
             | (((uint32_t)capabilities->TXA_maxSize) << 21U));
 8000592:	ea43 5342 	orr.w	r3, r3, r2, lsl #21
  crc = CRC4_Lookup8[crc ^ (uint8_t)(header         & 0xffU)];
 8000596:	b2da      	uxtb	r2, r3
 8000598:	f042 0205 	orr.w	r2, r2, #5
  header &= 0x0fffffffU;
 800059c:	f023 4170 	bic.w	r1, r3, #4026531840	@ 0xf0000000
  crc = CRC4_Lookup8[crc ^ (uint8_t)((header >> 8U) & 0xffU)];
 80005a0:	5ca2      	ldrb	r2, [r4, r2]
 80005a2:	ea82 2211 	eor.w	r2, r2, r1, lsr #8
 80005a6:	b2d2      	uxtb	r2, r2
  crc = CRC4_Lookup8[crc ^ (uint8_t)((header >> 16U) & 0xffU)];
 80005a8:	5ca2      	ldrb	r2, [r4, r2]
 80005aa:	ea82 4211 	eor.w	r2, r2, r1, lsr #16
 80005ae:	b2d2      	uxtb	r2, r2
  crc = CRC4_Lookup4[crc ^ (uint8_t)((header >> 24U) & 0x0fU)];
 80005b0:	5ca2      	ldrb	r2, [r4, r2]
 80005b2:	4c12      	ldr	r4, [pc, #72]	@ (80005fc <ASPEP_sendBeacon+0x88>)
 80005b4:	ea82 6211 	eor.w	r2, r2, r1, lsr #24
  *headerPtr |= (uint32_t)crc << 28;
 80005b8:	5ca2      	ldrb	r2, [r4, r2]
 80005ba:	ea43 7302 	orr.w	r3, r3, r2, lsl #28
 80005be:	f043 0305 	orr.w	r3, r3, #5
 80005c2:	6203      	str	r3, [r0, #32]
  \details Disables IRQ interrupts by setting special-purpose register PRIMASK.
           Can only be executed in Privileged modes.
 */
__STATIC_FORCEINLINE void __disable_irq(void)
{
  __ASM volatile ("cpsid i" : : : "memory");
 80005c4:	b672      	cpsid	i
  {
#endif
    /* Insert CRC header in the packet to send */
    ASPEP_ComputeHeaderCRC((uint32_t *)txBuffer); //cstat !MISRAC2012-Rule-11.5
    __disable_irq(); /*TODO: Disable High frequency task is enough */
    if (NULL == pHandle->lockBuffer) /* Communication Ip free to send data*/
 80005c6:	6c83      	ldr	r3, [r0, #72]	@ 0x48
 80005c8:	b14b      	cbz	r3, 80005de <ASPEP_sendBeacon+0x6a>
  __ASM volatile ("cpsie i" : : : "memory");
 80005ca:	b662      	cpsie	i
          pHandle->syncBuffer.length = bufferLength;
        }
      }
      else if(ASPEP_CTRL == dataType)
      {
        if (pHandle->ctrlBuffer.state != available)
 80005cc:	f890 3024 	ldrb.w	r3, [r0, #36]	@ 0x24
 80005d0:	b913      	cbnz	r3, 80005d8 <ASPEP_sendBeacon+0x64>
        {
          result = ASPEP_BUFFER_ERROR;
        }
        else
        {
          pHandle->ctrlBuffer.state = pending;
 80005d2:	2302      	movs	r3, #2
 80005d4:	f880 3024 	strb.w	r3, [r0, #36]	@ 0x24
}
 80005d8:	f85d 4b04 	ldr.w	r4, [sp], #4
 80005dc:	4770      	bx	lr
    (void)ASPEP_TXframeProcess(pHandle, ASPEP_CTRL, &pHandle->ctrlBuffer, ASPEP_CTRL_SIZE);
 80005de:	f100 0120 	add.w	r1, r0, #32
        pHandle->ctrlBuffer.state = readLock;
 80005e2:	2303      	movs	r3, #3
 80005e4:	f880 3024 	strb.w	r3, [r0, #36]	@ 0x24
        pHandle->lockBuffer = (void *)&pHandle->ctrlBuffer;
 80005e8:	6481      	str	r1, [r0, #72]	@ 0x48
 80005ea:	b662      	cpsie	i
      pHandle->fASPEP_send(pHandle->HWIp, txBuffer, bufferLength);
 80005ec:	2204      	movs	r2, #4
 80005ee:	6d83      	ldr	r3, [r0, #88]	@ 0x58
}
 80005f0:	f85d 4b04 	ldr.w	r4, [sp], #4
      pHandle->fASPEP_send(pHandle->HWIp, txBuffer, bufferLength);
 80005f4:	6940      	ldr	r0, [r0, #20]
 80005f6:	4718      	bx	r3
 80005f8:	080074f0 	.word	0x080074f0
 80005fc:	080074e0 	.word	0x080074e0

08000600 <ASPEP_sendPing>:
{
 8000600:	b430      	push	{r4, r5}
                   | (uint32_t)((uint32_t)cBit << 5U)
 8000602:	014b      	lsls	r3, r1, #5
    uint8_t Nbit = pHandle->syncPacketCount & 0x1U; /* Keep only LSB */
 8000604:	f890 c060 	ldrb.w	ip, [r0, #96]	@ 0x60
    uint8_t ipID = pHandle->liid & 0xFU;
 8000608:	f890 4063 	ldrb.w	r4, [r0, #99]	@ 0x63
  crc = CRC4_Lookup4[crc ^ (uint8_t)((header >> 24U) & 0x0fU)];
 800060c:	4d1d      	ldr	r5, [pc, #116]	@ (8000684 <ASPEP_sendPing+0x84>)
                   | (uint32_t)((uint32_t)cBit << 5U)
 800060e:	ea43 1301 	orr.w	r3, r3, r1, lsl #4
                   | (uint32_t)(((uint32_t) packetNumber) << 12U);
 8000612:	ea43 3302 	orr.w	r3, r3, r2, lsl #12
                   | (uint32_t)((uint32_t)Nbit << 6U)
 8000616:	f00c 0101 	and.w	r1, ip, #1
                   | (uint32_t)(((uint32_t) packetNumber) << 12U);
 800061a:	ea43 1381 	orr.w	r3, r3, r1, lsl #6
 800061e:	ea43 13c1 	orr.w	r3, r3, r1, lsl #7
                   | (uint32_t)((uint32_t)ipID << 8U)
 8000622:	f004 040f 	and.w	r4, r4, #15
                   | (uint32_t)(((uint32_t) packetNumber) << 12U);
 8000626:	ea43 2304 	orr.w	r3, r3, r4, lsl #8
  crc = CRC4_Lookup8[crc ^ (uint8_t)(header         & 0xffU)];
 800062a:	b2da      	uxtb	r2, r3
 800062c:	4c16      	ldr	r4, [pc, #88]	@ (8000688 <ASPEP_sendPing+0x88>)
 800062e:	f042 0206 	orr.w	r2, r2, #6
                   | (uint32_t)(((uint32_t) packetNumber) << 12U);
 8000632:	f043 0106 	orr.w	r1, r3, #6
  crc = CRC4_Lookup8[crc ^ (uint8_t)((header >> 8U) & 0xffU)];
 8000636:	5ca2      	ldrb	r2, [r4, r2]
 8000638:	ea82 2213 	eor.w	r2, r2, r3, lsr #8
 800063c:	b2d2      	uxtb	r2, r2
  crc = CRC4_Lookup8[crc ^ (uint8_t)((header >> 16U) & 0xffU)];
 800063e:	5ca2      	ldrb	r2, [r4, r2]
 8000640:	ea82 4213 	eor.w	r2, r2, r3, lsr #16
 8000644:	b2d2      	uxtb	r2, r2
  crc = CRC4_Lookup4[crc ^ (uint8_t)((header >> 24U) & 0x0fU)];
 8000646:	5ca2      	ldrb	r2, [r4, r2]
 8000648:	ea82 6313 	eor.w	r3, r2, r3, lsr #24
  *headerPtr |= (uint32_t)crc << 28;
 800064c:	5ceb      	ldrb	r3, [r5, r3]
 800064e:	ea41 7303 	orr.w	r3, r1, r3, lsl #28
 8000652:	6203      	str	r3, [r0, #32]
  __ASM volatile ("cpsid i" : : : "memory");
 8000654:	b672      	cpsid	i
    if (NULL == pHandle->lockBuffer) /* Communication Ip free to send data*/
 8000656:	6c83      	ldr	r3, [r0, #72]	@ 0x48
 8000658:	b143      	cbz	r3, 800066c <ASPEP_sendPing+0x6c>
  __ASM volatile ("cpsie i" : : : "memory");
 800065a:	b662      	cpsie	i
        if (pHandle->ctrlBuffer.state != available)
 800065c:	f890 3024 	ldrb.w	r3, [r0, #36]	@ 0x24
 8000660:	b913      	cbnz	r3, 8000668 <ASPEP_sendPing+0x68>
          pHandle->ctrlBuffer.state = pending;
 8000662:	2302      	movs	r3, #2
 8000664:	f880 3024 	strb.w	r3, [r0, #36]	@ 0x24
}
 8000668:	bc30      	pop	{r4, r5}
 800066a:	4770      	bx	lr
    (void)ASPEP_TXframeProcess(pHandle, ASPEP_CTRL, &pHandle->ctrlBuffer, ASPEP_CTRL_SIZE);
 800066c:	f100 0120 	add.w	r1, r0, #32
        pHandle->ctrlBuffer.state = readLock;
 8000670:	2303      	movs	r3, #3
 8000672:	f880 3024 	strb.w	r3, [r0, #36]	@ 0x24
        pHandle->lockBuffer = (void *)&pHandle->ctrlBuffer;
 8000676:	6481      	str	r1, [r0, #72]	@ 0x48
 8000678:	b662      	cpsie	i
      pHandle->fASPEP_send(pHandle->HWIp, txBuffer, bufferLength);
 800067a:	2204      	movs	r2, #4
 800067c:	6d83      	ldr	r3, [r0, #88]	@ 0x58
 800067e:	6940      	ldr	r0, [r0, #20]
}
 8000680:	bc30      	pop	{r4, r5}
      pHandle->fASPEP_send(pHandle->HWIp, txBuffer, bufferLength);
 8000682:	4718      	bx	r3
 8000684:	080074e0 	.word	0x080074e0
 8000688:	080074f0 	.word	0x080074f0

0800068c <ASPEP_getBuffer>:
    if (MCTL_SYNC == syncAsync)
 800068c:	2a0a      	cmp	r2, #10
 800068e:	d009      	beq.n	80006a4 <ASPEP_getBuffer+0x18>
      if ((pHandle->asyncBufferA.state > writeLock) && (pHandle->asyncBufferB.state > writeLock))
 8000690:	f890 3036 	ldrb.w	r3, [r0, #54]	@ 0x36
 8000694:	2b01      	cmp	r3, #1
 8000696:	d91d      	bls.n	80006d4 <ASPEP_getBuffer+0x48>
 8000698:	f890 303e 	ldrb.w	r3, [r0, #62]	@ 0x3e
 800069c:	2b01      	cmp	r3, #1
 800069e:	d90d      	bls.n	80006bc <ASPEP_getBuffer+0x30>
        result = false;
 80006a0:	2000      	movs	r0, #0
}
 80006a2:	4770      	bx	lr
      if (pHandle->syncBuffer.state <= writeLock) /* Possible values are free or writeLock*/
 80006a4:	f890 302e 	ldrb.w	r3, [r0, #46]	@ 0x2e
 80006a8:	2b01      	cmp	r3, #1
 80006aa:	d8f9      	bhi.n	80006a0 <ASPEP_getBuffer+0x14>
        *buffer = &pHandle->syncBuffer.buffer[ASPEP_HEADER_SIZE];
 80006ac:	6a83      	ldr	r3, [r0, #40]	@ 0x28
        pHandle->syncBuffer.state = writeLock;
 80006ae:	2201      	movs	r2, #1
        *buffer = &pHandle->syncBuffer.buffer[ASPEP_HEADER_SIZE];
 80006b0:	3304      	adds	r3, #4
 80006b2:	600b      	str	r3, [r1, #0]
        pHandle->syncBuffer.state = writeLock;
 80006b4:	f880 202e 	strb.w	r2, [r0, #46]	@ 0x2e
  bool result = true;
 80006b8:	2001      	movs	r0, #1
 80006ba:	4770      	bx	lr
          *buffer = &pHandle->asyncBufferB.buffer[ASPEP_HEADER_SIZE];
 80006bc:	6b83      	ldr	r3, [r0, #56]	@ 0x38
          pHandle->asyncBufferB.state = writeLock;
 80006be:	f04f 0c01 	mov.w	ip, #1
          pHandle->lastRequestedAsyncBuff = &pHandle->asyncBufferB;
 80006c2:	f100 0238 	add.w	r2, r0, #56	@ 0x38
          *buffer = &pHandle->asyncBufferB.buffer[ASPEP_HEADER_SIZE];
 80006c6:	3304      	adds	r3, #4
          pHandle->asyncBufferB.state = writeLock;
 80006c8:	f880 c03e 	strb.w	ip, [r0, #62]	@ 0x3e
          pHandle->lastRequestedAsyncBuff = &pHandle->asyncBufferB;
 80006cc:	6402      	str	r2, [r0, #64]	@ 0x40
          *buffer = &pHandle->asyncBufferB.buffer[ASPEP_HEADER_SIZE];
 80006ce:	600b      	str	r3, [r1, #0]
  bool result = true;
 80006d0:	2001      	movs	r0, #1
 80006d2:	4770      	bx	lr
          *buffer = &pHandle->asyncBufferA.buffer[ASPEP_HEADER_SIZE];
 80006d4:	6b03      	ldr	r3, [r0, #48]	@ 0x30
          pHandle->asyncBufferA.state = writeLock;
 80006d6:	f04f 0c01 	mov.w	ip, #1
          pHandle->lastRequestedAsyncBuff = &pHandle->asyncBufferA;
 80006da:	f100 0230 	add.w	r2, r0, #48	@ 0x30
          *buffer = &pHandle->asyncBufferA.buffer[ASPEP_HEADER_SIZE];
 80006de:	3304      	adds	r3, #4
          pHandle->asyncBufferA.state = writeLock;
 80006e0:	f880 c036 	strb.w	ip, [r0, #54]	@ 0x36
          pHandle->lastRequestedAsyncBuff = &pHandle->asyncBufferA;
 80006e4:	6402      	str	r2, [r0, #64]	@ 0x40
          *buffer = &pHandle->asyncBufferA.buffer[ASPEP_HEADER_SIZE];
 80006e6:	600b      	str	r3, [r1, #0]
 80006e8:	e7f2      	b.n	80006d0 <ASPEP_getBuffer+0x44>
 80006ea:	bf00      	nop

080006ec <ASPEP_sendPacket>:
{
 80006ec:	4684      	mov	ip, r0
    if (ASPEP_CONNECTED == pHandle-> ASPEP_State)
 80006ee:	f890 0064 	ldrb.w	r0, [r0, #100]	@ 0x64
 80006f2:	2802      	cmp	r0, #2
 80006f4:	d001      	beq.n	80006fa <ASPEP_sendPacket+0xe>
      result = ASPEP_NOT_CONNECTED;
 80006f6:	2002      	movs	r0, #2
 80006f8:	4770      	bx	lr
      tmpHeader = ((uint32_t)((uint32_t)txDataLengthTemp << (uint32_t)4) | (uint32_t)syncAsync);
 80006fa:	ea43 1002 	orr.w	r0, r3, r2, lsl #4
      *header = tmpHeader;
 80006fe:	f841 0c04 	str.w	r0, [r1, #-4]
      if (1U == pHandle->Capabilities.DATA_CRC)
 8000702:	f89c 006c 	ldrb.w	r0, [ip, #108]	@ 0x6c
 8000706:	2801      	cmp	r0, #1
 8000708:	d104      	bne.n	8000714 <ASPEP_sendPacket+0x28>
        packet[txDataLengthTemp] = (uint8_t)0xCA; /* Dummy CRC */
 800070a:	f64f 60ca 	movw	r0, #65226	@ 0xfeca
 800070e:	5288      	strh	r0, [r1, r2]
        txDataLengthTemp += (uint16_t)ASPEP_DATACRC_SIZE;
 8000710:	3202      	adds	r2, #2
 8000712:	b292      	uxth	r2, r2
      if (MCTL_SYNC == syncAsync)
 8000714:	2b0a      	cmp	r3, #10
 8000716:	d105      	bne.n	8000724 <ASPEP_sendPacket+0x38>
        if (pSupHandle->MCP_PacketAvailable)
 8000718:	f89c 0010 	ldrb.w	r0, [ip, #16]
 800071c:	b348      	cbz	r0, 8000772 <ASPEP_sendPacket+0x86>
          pSupHandle->MCP_PacketAvailable = false; /* CMD from controller is processed*/
 800071e:	2000      	movs	r0, #0
 8000720:	f88c 0010 	strb.w	r0, [ip, #16]
  uint32_t header = *headerPtr;
 8000724:	f851 0c04 	ldr.w	r0, [r1, #-4]
{
 8000728:	b570      	push	{r4, r5, r6, lr}
  crc = CRC4_Lookup8[crc ^ (uint8_t)(header         & 0xffU)];
 800072a:	4d34      	ldr	r5, [pc, #208]	@ (80007fc <ASPEP_sendPacket+0x110>)
 800072c:	b2c4      	uxtb	r4, r0
        result = ASPEP_TXframeProcess(pHandle, syncAsync, header, txDataLengthTemp + (uint16_t)ASPEP_HEADER_SIZE);
 800072e:	3204      	adds	r2, #4
  crc = CRC4_Lookup8[crc ^ (uint8_t)((header >> 8U) & 0xffU)];
 8000730:	5d2e      	ldrb	r6, [r5, r4]
 8000732:	f3c0 2407 	ubfx	r4, r0, #8, #8
 8000736:	4074      	eors	r4, r6
      header--; /* Header ues 4*8 bits on top of txBuffer*/
 8000738:	f1a1 0e04 	sub.w	lr, r1, #4
  crc = CRC4_Lookup8[crc ^ (uint8_t)((header >> 16U) & 0xffU)];
 800073c:	5d2e      	ldrb	r6, [r5, r4]
 800073e:	f3c0 4407 	ubfx	r4, r0, #16, #8
 8000742:	4074      	eors	r4, r6
        result = ASPEP_TXframeProcess(pHandle, syncAsync, header, txDataLengthTemp + (uint16_t)ASPEP_HEADER_SIZE);
 8000744:	b292      	uxth	r2, r2
  crc = CRC4_Lookup4[crc ^ (uint8_t)((header >> 24U) & 0x0fU)];
 8000746:	5d2c      	ldrb	r4, [r5, r4]
 8000748:	f3c0 6503 	ubfx	r5, r0, #24, #4
 800074c:	406c      	eors	r4, r5
 800074e:	4d2c      	ldr	r5, [pc, #176]	@ (8000800 <ASPEP_sendPacket+0x114>)
  *headerPtr |= (uint32_t)crc << 28;
 8000750:	5d2c      	ldrb	r4, [r5, r4]
 8000752:	ea40 7004 	orr.w	r0, r0, r4, lsl #28
 8000756:	f841 0c04 	str.w	r0, [r1, #-4]
  __ASM volatile ("cpsid i" : : : "memory");
 800075a:	b672      	cpsid	i
    if (NULL == pHandle->lockBuffer) /* Communication Ip free to send data*/
 800075c:	f8dc 1048 	ldr.w	r1, [ip, #72]	@ 0x48
 8000760:	b1b9      	cbz	r1, 8000792 <ASPEP_sendPacket+0xa6>
  __ASM volatile ("cpsie i" : : : "memory");
 8000762:	b662      	cpsie	i
      if (MCTL_ASYNC == dataType)
 8000764:	2b09      	cmp	r3, #9
 8000766:	d006      	beq.n	8000776 <ASPEP_sendPacket+0x8a>
      else if (MCTL_SYNC == dataType)
 8000768:	2b0a      	cmp	r3, #10
 800076a:	d02a      	beq.n	80007c2 <ASPEP_sendPacket+0xd6>
      else if(ASPEP_CTRL == dataType)
 800076c:	b37b      	cbz	r3, 80007ce <ASPEP_sendPacket+0xe2>
  uint8_t result = ASPEP_OK;
 800076e:	2000      	movs	r0, #0
}
 8000770:	bd70      	pop	{r4, r5, r6, pc}
          result = MCTL_SYNC_NOT_EXPECTED;
 8000772:	2001      	movs	r0, #1
}
 8000774:	4770      	bx	lr
        if (txBuffer != (uint8_t *)pHandle->lastRequestedAsyncBuff->buffer)
 8000776:	f8dc 3040 	ldr.w	r3, [ip, #64]	@ 0x40
 800077a:	6819      	ldr	r1, [r3, #0]
  uint8_t result = ASPEP_OK;
 800077c:	458e      	cmp	lr, r1
 800077e:	bf14      	ite	ne
 8000780:	2003      	movne	r0, #3
 8000782:	2000      	moveq	r0, #0
        if (NULL == pHandle->asyncNextBuffer)
 8000784:	f8dc 1044 	ldr.w	r1, [ip, #68]	@ 0x44
 8000788:	b3a1      	cbz	r1, 80007f4 <ASPEP_sendPacket+0x108>
        pHandle->lastRequestedAsyncBuff->state = pending;
 800078a:	2102      	movs	r1, #2
 800078c:	7199      	strb	r1, [r3, #6]
        pHandle->lastRequestedAsyncBuff->length = bufferLength;
 800078e:	809a      	strh	r2, [r3, #4]
}
 8000790:	bd70      	pop	{r4, r5, r6, pc}
      if (MCTL_ASYNC == dataType)
 8000792:	2b09      	cmp	r3, #9
 8000794:	d029      	beq.n	80007ea <ASPEP_sendPacket+0xfe>
      else if (MCTL_SYNC == dataType)
 8000796:	2b0a      	cmp	r3, #10
        pHandle->syncBuffer.state = readLock;
 8000798:	f04f 0303 	mov.w	r3, #3
 800079c:	bf0b      	itete	eq
 800079e:	f88c 302e 	strbeq.w	r3, [ip, #46]	@ 0x2e
        pHandle->ctrlBuffer.state = readLock;
 80007a2:	f88c 3024 	strbne.w	r3, [ip, #36]	@ 0x24
        pHandle->lockBuffer = (void *)&pHandle->syncBuffer;
 80007a6:	f10c 0328 	addeq.w	r3, ip, #40	@ 0x28
        pHandle->lockBuffer = (void *)&pHandle->ctrlBuffer;
 80007aa:	f10c 0320 	addne.w	r3, ip, #32
        pHandle->lockBuffer = (void *)pHandle->lastRequestedAsyncBuff;
 80007ae:	f8cc 3048 	str.w	r3, [ip, #72]	@ 0x48
 80007b2:	b662      	cpsie	i
      pHandle->fASPEP_send(pHandle->HWIp, txBuffer, bufferLength);
 80007b4:	f8dc 3058 	ldr.w	r3, [ip, #88]	@ 0x58
 80007b8:	f8dc 0014 	ldr.w	r0, [ip, #20]
 80007bc:	4671      	mov	r1, lr
 80007be:	4798      	blx	r3
 80007c0:	e7d5      	b.n	800076e <ASPEP_sendPacket+0x82>
        if (pHandle -> syncBuffer.state != writeLock)
 80007c2:	f89c 302e 	ldrb.w	r3, [ip, #46]	@ 0x2e
 80007c6:	2b01      	cmp	r3, #1
 80007c8:	d009      	beq.n	80007de <ASPEP_sendPacket+0xf2>
          result = ASPEP_BUFFER_ERROR;
 80007ca:	2003      	movs	r0, #3
}
 80007cc:	bd70      	pop	{r4, r5, r6, pc}
        if (pHandle->ctrlBuffer.state != available)
 80007ce:	f89c 3024 	ldrb.w	r3, [ip, #36]	@ 0x24
 80007d2:	2b00      	cmp	r3, #0
 80007d4:	d1f9      	bne.n	80007ca <ASPEP_sendPacket+0xde>
          pHandle->ctrlBuffer.state = pending;
 80007d6:	2302      	movs	r3, #2
 80007d8:	f88c 3024 	strb.w	r3, [ip, #36]	@ 0x24
 80007dc:	e7c7      	b.n	800076e <ASPEP_sendPacket+0x82>
          pHandle->syncBuffer.state = pending;
 80007de:	2302      	movs	r3, #2
 80007e0:	f88c 302e 	strb.w	r3, [ip, #46]	@ 0x2e
          pHandle->syncBuffer.length = bufferLength;
 80007e4:	f8ac 202c 	strh.w	r2, [ip, #44]	@ 0x2c
 80007e8:	e7c1      	b.n	800076e <ASPEP_sendPacket+0x82>
        pHandle->lastRequestedAsyncBuff->state = readLock;
 80007ea:	f8dc 3040 	ldr.w	r3, [ip, #64]	@ 0x40
 80007ee:	2103      	movs	r1, #3
 80007f0:	7199      	strb	r1, [r3, #6]
        pHandle->lockBuffer = (void *)pHandle->lastRequestedAsyncBuff;
 80007f2:	e7dc      	b.n	80007ae <ASPEP_sendPacket+0xc2>
          pHandle->asyncNextBuffer = pHandle->lastRequestedAsyncBuff;
 80007f4:	f8cc 3044 	str.w	r3, [ip, #68]	@ 0x44
 80007f8:	e7c7      	b.n	800078a <ASPEP_sendPacket+0x9e>
 80007fa:	bf00      	nop
 80007fc:	080074f0 	.word	0x080074f0
 8000800:	080074e0 	.word	0x080074e0

08000804 <ASPEP_HWDataTransmittedIT>:
  * Therefore, there is no need to protect this ISR against another higher priority ISR (HF Task).
  *
  * @param  *pHandle Handler of the current instance of the ASPEP component
  */
void ASPEP_HWDataTransmittedIT(ASPEP_Handle_t *pHandle)
{
 8000804:	b510      	push	{r4, lr}
  }
  else
  {
#endif
    /* First free previous readLock buffer */
    if (pHandle->ctrlBuffer.state == readLock)
 8000806:	f890 3024 	ldrb.w	r3, [r0, #36]	@ 0x24
 800080a:	2b03      	cmp	r3, #3
{
 800080c:	4604      	mov	r4, r0
    if (pHandle->ctrlBuffer.state == readLock)
 800080e:	d013      	beq.n	8000838 <ASPEP_HWDataTransmittedIT+0x34>
      pHandle->ctrlBuffer.state = available;
    }
    else /* if previous buffer was not ASPEP_CTRL, then the buffer locked is a MCTL_Buff_t */
    {
      MCTL_Buff_t *tempBuff = (MCTL_Buff_t *)pHandle->lockBuffer; //cstat !MISRAC2012-Rule-11.5
      tempBuff->state = available;
 8000810:	6c82      	ldr	r2, [r0, #72]	@ 0x48
 8000812:	2100      	movs	r1, #0
 8000814:	7191      	strb	r1, [r2, #6]
    }
    if (pHandle->syncBuffer.state == pending)
 8000816:	f890 202e 	ldrb.w	r2, [r0, #46]	@ 0x2e
 800081a:	2a02      	cmp	r2, #2
 800081c:	d013      	beq.n	8000846 <ASPEP_HWDataTransmittedIT+0x42>
      pHandle->lockBuffer = (void *)&pHandle->syncBuffer;
      pHandle->fASPEP_send(pHandle->HWIp, pHandle->syncBuffer.buffer, pHandle->syncBuffer.length);
      pHandle->syncBuffer.state = readLock;
    }
    /* Second prepare transfer of pending buffer */
    else if (pHandle->ctrlBuffer.state == pending)
 800081e:	2b02      	cmp	r3, #2
 8000820:	d11d      	bne.n	800085e <ASPEP_HWDataTransmittedIT+0x5a>
    {
      pHandle->lockBuffer = (void *)(&pHandle ->ctrlBuffer);
 8000822:	f100 0120 	add.w	r1, r0, #32
      pHandle->fASPEP_send(pHandle ->HWIp, pHandle->ctrlBuffer.buffer, ASPEP_CTRL_SIZE);
 8000826:	6d83      	ldr	r3, [r0, #88]	@ 0x58
      pHandle->lockBuffer = (void *)(&pHandle ->ctrlBuffer);
 8000828:	6481      	str	r1, [r0, #72]	@ 0x48
      pHandle->fASPEP_send(pHandle ->HWIp, pHandle->ctrlBuffer.buffer, ASPEP_CTRL_SIZE);
 800082a:	2204      	movs	r2, #4
 800082c:	6940      	ldr	r0, [r0, #20]
 800082e:	4798      	blx	r3
      pHandle->ctrlBuffer.state = readLock;
 8000830:	2303      	movs	r3, #3
 8000832:	f884 3024 	strb.w	r3, [r4, #36]	@ 0x24
      __enable_irq();
    }
#ifdef NULL_PTR_CHECK_ASP
  }
#endif
}
 8000836:	bd10      	pop	{r4, pc}
    if (pHandle->syncBuffer.state == pending)
 8000838:	f890 302e 	ldrb.w	r3, [r0, #46]	@ 0x2e
      pHandle->ctrlBuffer.state = available;
 800083c:	2200      	movs	r2, #0
    if (pHandle->syncBuffer.state == pending)
 800083e:	2b02      	cmp	r3, #2
      pHandle->ctrlBuffer.state = available;
 8000840:	f880 2024 	strb.w	r2, [r0, #36]	@ 0x24
    if (pHandle->syncBuffer.state == pending)
 8000844:	d10b      	bne.n	800085e <ASPEP_HWDataTransmittedIT+0x5a>
      pHandle->lockBuffer = (void *)&pHandle->syncBuffer;
 8000846:	f104 0028 	add.w	r0, r4, #40	@ 0x28
      pHandle->fASPEP_send(pHandle->HWIp, pHandle->syncBuffer.buffer, pHandle->syncBuffer.length);
 800084a:	6da3      	ldr	r3, [r4, #88]	@ 0x58
      pHandle->lockBuffer = (void *)&pHandle->syncBuffer;
 800084c:	64a0      	str	r0, [r4, #72]	@ 0x48
      pHandle->fASPEP_send(pHandle->HWIp, pHandle->syncBuffer.buffer, pHandle->syncBuffer.length);
 800084e:	8da2      	ldrh	r2, [r4, #44]	@ 0x2c
 8000850:	6aa1      	ldr	r1, [r4, #40]	@ 0x28
 8000852:	6960      	ldr	r0, [r4, #20]
 8000854:	4798      	blx	r3
      pHandle->syncBuffer.state = readLock;
 8000856:	2303      	movs	r3, #3
 8000858:	f884 302e 	strb.w	r3, [r4, #46]	@ 0x2e
}
 800085c:	bd10      	pop	{r4, pc}
  __ASM volatile ("cpsid i" : : : "memory");
 800085e:	b672      	cpsid	i
      if (pHandle->asyncNextBuffer != NULL)
 8000860:	6c63      	ldr	r3, [r4, #68]	@ 0x44
 8000862:	b1cb      	cbz	r3, 8000898 <ASPEP_HWDataTransmittedIT+0x94>
        pHandle->asyncNextBuffer->state = readLock;
 8000864:	2203      	movs	r2, #3
        pHandle->lockBuffer = (void *)pHandle->asyncNextBuffer;
 8000866:	64a3      	str	r3, [r4, #72]	@ 0x48
        pHandle->asyncNextBuffer->state = readLock;
 8000868:	719a      	strb	r2, [r3, #6]
        pHandle->fASPEP_send(pHandle ->HWIp, pHandle->asyncNextBuffer->buffer, pHandle->asyncNextBuffer->length);
 800086a:	6819      	ldr	r1, [r3, #0]
 800086c:	889a      	ldrh	r2, [r3, #4]
 800086e:	6960      	ldr	r0, [r4, #20]
 8000870:	6da3      	ldr	r3, [r4, #88]	@ 0x58
 8000872:	4798      	blx	r3
        if ((pHandle->asyncBufferA.state == pending) || (pHandle->asyncBufferB.state == pending))
 8000874:	f894 3036 	ldrb.w	r3, [r4, #54]	@ 0x36
 8000878:	2b02      	cmp	r3, #2
 800087a:	d007      	beq.n	800088c <ASPEP_HWDataTransmittedIT+0x88>
 800087c:	f894 303e 	ldrb.w	r3, [r4, #62]	@ 0x3e
 8000880:	2b02      	cmp	r3, #2
 8000882:	d003      	beq.n	800088c <ASPEP_HWDataTransmittedIT+0x88>
          pHandle->asyncNextBuffer = NULL;
 8000884:	2300      	movs	r3, #0
 8000886:	6463      	str	r3, [r4, #68]	@ 0x44
  __ASM volatile ("cpsie i" : : : "memory");
 8000888:	b662      	cpsie	i
}
 800088a:	bd10      	pop	{r4, pc}
          uint32_t temp = (uint32_t)&pHandle->asyncBufferA + (uint32_t)&pHandle->asyncBufferB
 800088c:	6c62      	ldr	r2, [r4, #68]	@ 0x44
 800088e:	0063      	lsls	r3, r4, #1
 8000890:	3368      	adds	r3, #104	@ 0x68
 8000892:	1a9b      	subs	r3, r3, r2
          pHandle->asyncNextBuffer = (MCTL_Buff_t *) temp; //cstat !MISRAC2012-Rule-11.4
 8000894:	6463      	str	r3, [r4, #68]	@ 0x44
        {
 8000896:	e7f7      	b.n	8000888 <ASPEP_HWDataTransmittedIT+0x84>
        pHandle->lockBuffer = NULL;
 8000898:	64a3      	str	r3, [r4, #72]	@ 0x48
 800089a:	e7f5      	b.n	8000888 <ASPEP_HWDataTransmittedIT+0x84>

0800089c <ASPEP_RXframeProcess>:
    uint16_t packetNumber;
#if VALID_CRC_DATA
    bool validCRCData = true;
#endif
    *packetLength = 0;
    if (pHandle->NewPacketAvailable)
 800089c:	f890 3061 	ldrb.w	r3, [r0, #97]	@ 0x61
    uint32_t packetHeader = *((uint32_t *)pHandle->rxHeader); //cstat !MISRAC2012-Rule-11.3
 80008a0:	69c2      	ldr	r2, [r0, #28]
    *packetLength = 0;
 80008a2:	f04f 0c00 	mov.w	ip, #0
{
 80008a6:	e92d 47f0 	stmdb	sp!, {r4, r5, r6, r7, r8, r9, sl, lr}
 80008aa:	4604      	mov	r4, r0
    *packetLength = 0;
 80008ac:	f8a1 c000 	strh.w	ip, [r1]
    if (pHandle->NewPacketAvailable)
 80008b0:	b1cb      	cbz	r3, 80008e6 <ASPEP_RXframeProcess+0x4a>
    {
      pHandle->NewPacketAvailable = false; /* Consumes new packet*/
      switch (pHandle->ASPEP_State)
 80008b2:	f890 3064 	ldrb.w	r3, [r0, #100]	@ 0x64
      pHandle->NewPacketAvailable = false; /* Consumes new packet*/
 80008b6:	f880 c061 	strb.w	ip, [r0, #97]	@ 0x61
      switch (pHandle->ASPEP_State)
 80008ba:	2b01      	cmp	r3, #1
 80008bc:	d055      	beq.n	800096a <ASPEP_RXframeProcess+0xce>
 80008be:	2b02      	cmp	r3, #2
 80008c0:	d018      	beq.n	80008f4 <ASPEP_RXframeProcess+0x58>
 80008c2:	b933      	cbnz	r3, 80008d2 <ASPEP_RXframeProcess+0x36>
      {
        case ASPEP_IDLE:
        {
          if (BEACON == pHandle->rxPacketType)
 80008c4:	6e81      	ldr	r1, [r0, #104]	@ 0x68
 80008c6:	2905      	cmp	r1, #5
 80008c8:	f000 80e3 	beq.w	8000a92 <ASPEP_RXframeProcess+0x1f6>
              /* Nothing to do, controller has to send back new beacon with matching capabilities */
            }
            /* Beacon Packet must be answered*/
            ASPEP_sendBeacon(pHandle, &pHandle->Capabilities);
          }
          else if (PING == pHandle->rxPacketType)
 80008cc:	2906      	cmp	r1, #6
 80008ce:	f000 8129 	beq.w	8000b24 <ASPEP_RXframeProcess+0x288>
  uint8_t *result = NULL; //cstat !MISRAC2012-Rule-8.13
 80008d2:	2500      	movs	r5, #0

        default:
          break;
      }
      /* The valid received packet is now safely consumes, we are ready to receive a new packet */
      pHandle->fASPEP_receive(pHandle->HWIp, pHandle->rxHeader, ASPEP_HEADER_SIZE);
 80008d4:	6960      	ldr	r0, [r4, #20]
 80008d6:	6d63      	ldr	r3, [r4, #84]	@ 0x54
 80008d8:	2204      	movs	r2, #4
 80008da:	f104 011c 	add.w	r1, r4, #28
 80008de:	4798      	blx	r3
    }
#ifdef NULL_PTR_CHECK_ASP
  }
#endif
  return (result);
}
 80008e0:	4628      	mov	r0, r5
 80008e2:	e8bd 87f0 	ldmia.w	sp!, {r4, r5, r6, r7, r8, r9, sl, pc}
    else if (pHandle->badPacketFlag > ASPEP_OK)
 80008e6:	f890 3062 	ldrb.w	r3, [r0, #98]	@ 0x62
 80008ea:	b9bb      	cbnz	r3, 800091c <ASPEP_RXframeProcess+0x80>
  uint8_t *result = NULL; //cstat !MISRAC2012-Rule-8.13
 80008ec:	2500      	movs	r5, #0
}
 80008ee:	4628      	mov	r0, r5
 80008f0:	e8bd 87f0 	ldmia.w	sp!, {r4, r5, r6, r7, r8, r9, sl, pc}
          if (BEACON == pHandle->rxPacketType)
 80008f4:	6e83      	ldr	r3, [r0, #104]	@ 0x68
 80008f6:	2b05      	cmp	r3, #5
 80008f8:	d045      	beq.n	8000986 <ASPEP_RXframeProcess+0xea>
          else if (PING == pHandle->rxPacketType)
 80008fa:	2b06      	cmp	r3, #6
 80008fc:	f000 8118 	beq.w	8000b30 <ASPEP_RXframeProcess+0x294>
          else if (DATA_PACKET == pHandle->rxPacketType)
 8000900:	2b09      	cmp	r3, #9
 8000902:	d1e6      	bne.n	80008d2 <ASPEP_RXframeProcess+0x36>
              pHandle->syncPacketCount++; /* this counter is incremented at each valid data packet received from controller */
 8000904:	f890 3060 	ldrb.w	r3, [r0, #96]	@ 0x60
              *packetLength = pHandle->rxLength;
 8000908:	f8b0 205c 	ldrh.w	r2, [r0, #92]	@ 0x5c
              result = pHandle->rxBuffer;
 800090c:	69a5      	ldr	r5, [r4, #24]
              pHandle->syncPacketCount++; /* this counter is incremented at each valid data packet received from controller */
 800090e:	3301      	adds	r3, #1
              pSupHandle->MCP_PacketAvailable = true; /* Will be consumed in ASPEP_sendPacket */
 8000910:	2001      	movs	r0, #1
              pHandle->syncPacketCount++; /* this counter is incremented at each valid data packet received from controller */
 8000912:	f884 3060 	strb.w	r3, [r4, #96]	@ 0x60
              pSupHandle->MCP_PacketAvailable = true; /* Will be consumed in ASPEP_sendPacket */
 8000916:	7420      	strb	r0, [r4, #16]
              *packetLength = pHandle->rxLength;
 8000918:	800a      	strh	r2, [r1, #0]
              result = pHandle->rxBuffer;
 800091a:	e7db      	b.n	80008d4 <ASPEP_RXframeProcess+0x38>
  *packet = NACK | (uint32_t)(((uint32_t) errorInfo) << 8U) | (uint32_t)(((uint32_t) errorInfo) << 16U);
 800091c:	eb03 2303 	add.w	r3, r3, r3, lsl #8
 8000920:	021b      	lsls	r3, r3, #8
  crc = CRC4_Lookup8[crc ^ (uint8_t)((header >> 8U) & 0xffU)];
 8000922:	f3c3 2207 	ubfx	r2, r3, #8, #8
 8000926:	488b      	ldr	r0, [pc, #556]	@ (8000b54 <ASPEP_RXframeProcess+0x2b8>)
  crc = CRC4_Lookup4[crc ^ (uint8_t)((header >> 24U) & 0x0fU)];
 8000928:	4d8b      	ldr	r5, [pc, #556]	@ (8000b58 <ASPEP_RXframeProcess+0x2bc>)
  crc = CRC4_Lookup8[crc ^ (uint8_t)((header >> 8U) & 0xffU)];
 800092a:	f082 0209 	eor.w	r2, r2, #9
  *packet = NACK | (uint32_t)(((uint32_t) errorInfo) << 8U) | (uint32_t)(((uint32_t) errorInfo) << 16U);
 800092e:	f043 010f 	orr.w	r1, r3, #15
  crc = CRC4_Lookup8[crc ^ (uint8_t)((header >> 16U) & 0xffU)];
 8000932:	5c82      	ldrb	r2, [r0, r2]
 8000934:	ea82 4313 	eor.w	r3, r2, r3, lsr #16
 8000938:	b2db      	uxtb	r3, r3
  crc = CRC4_Lookup4[crc ^ (uint8_t)((header >> 24U) & 0x0fU)];
 800093a:	5cc3      	ldrb	r3, [r0, r3]
  *headerPtr |= (uint32_t)crc << 28;
 800093c:	5ceb      	ldrb	r3, [r5, r3]
 800093e:	ea41 7303 	orr.w	r3, r1, r3, lsl #28
 8000942:	6223      	str	r3, [r4, #32]
  __ASM volatile ("cpsid i" : : : "memory");
 8000944:	b672      	cpsid	i
    if (NULL == pHandle->lockBuffer) /* Communication Ip free to send data*/
 8000946:	6ca3      	ldr	r3, [r4, #72]	@ 0x48
 8000948:	2b00      	cmp	r3, #0
 800094a:	f000 80f6 	beq.w	8000b3a <ASPEP_RXframeProcess+0x29e>
  __ASM volatile ("cpsie i" : : : "memory");
 800094e:	b662      	cpsie	i
        if (pHandle->ctrlBuffer.state != available)
 8000950:	f894 3024 	ldrb.w	r3, [r4, #36]	@ 0x24
 8000954:	b913      	cbnz	r3, 800095c <ASPEP_RXframeProcess+0xc0>
          pHandle->ctrlBuffer.state = pending;
 8000956:	2302      	movs	r3, #2
 8000958:	f884 3024 	strb.w	r3, [r4, #36]	@ 0x24
      pHandle->badPacketFlag = ASPEP_OK;
 800095c:	2200      	movs	r2, #0
      pHandle->fASPEP_HWSync(pHandle->HWIp);
 800095e:	6d23      	ldr	r3, [r4, #80]	@ 0x50
 8000960:	6960      	ldr	r0, [r4, #20]
      pHandle->badPacketFlag = ASPEP_OK;
 8000962:	f884 2062 	strb.w	r2, [r4, #98]	@ 0x62
      pHandle->fASPEP_HWSync(pHandle->HWIp);
 8000966:	4798      	blx	r3
 8000968:	e7c0      	b.n	80008ec <ASPEP_RXframeProcess+0x50>
          if (BEACON == pHandle->rxPacketType)
 800096a:	6e81      	ldr	r1, [r0, #104]	@ 0x68
 800096c:	2905      	cmp	r1, #5
 800096e:	d04f      	beq.n	8000a10 <ASPEP_RXframeProcess+0x174>
          else if (PING == pHandle->rxPacketType)
 8000970:	2906      	cmp	r1, #6
 8000972:	d1ae      	bne.n	80008d2 <ASPEP_RXframeProcess+0x36>
            ASPEP_sendPing(pHandle, ASPEP_PING_CFG, packetNumber);
 8000974:	4619      	mov	r1, r3
 8000976:	f3c2 320f 	ubfx	r2, r2, #12, #16
 800097a:	f7ff fe41 	bl	8000600 <ASPEP_sendPing>
            pHandle->ASPEP_State = ASPEP_CONNECTED;
 800097e:	2302      	movs	r3, #2
 8000980:	f884 3064 	strb.w	r3, [r4, #100]	@ 0x64
 8000984:	e7a5      	b.n	80008d2 <ASPEP_RXframeProcess+0x36>
  MasterCapabilities.RX_maxSize = pHandle->rxHeader[1] &0x3FU;                  /*Bits 8 to  13*/
 8000986:	f894 e01d 	ldrb.w	lr, [r4, #29]
  pHandle->Capabilities.RX_maxSize = MIN(pHandle->Capabilities.RX_maxSize, MasterCapabilities.RX_maxSize);
 800098a:	f894 506d 	ldrb.w	r5, [r4, #109]	@ 0x6d
  MasterCapabilities.DATA_CRC = pHandle->rxHeader[0] >> 7U ;                     /*Bit 7 */
 800098e:	7f00      	ldrb	r0, [r0, #28]
  pHandle->Capabilities.DATA_CRC = MIN(pHandle->Capabilities.DATA_CRC ,MasterCapabilities.DATA_CRC);
 8000990:	f894 606c 	ldrb.w	r6, [r4, #108]	@ 0x6c
  pHandle->Capabilities.TXS_maxSize = MIN(pHandle->Capabilities.TXS_maxSize, MasterCapabilities.TXS_maxSize);
 8000994:	f894 706e 	ldrb.w	r7, [r4, #110]	@ 0x6e
  pHandle->Capabilities.TXA_maxSize = MIN(pHandle->Capabilities.TXA_maxSize, MasterCapabilities.TXA_maxSize);
 8000998:	f894 906f 	ldrb.w	r9, [r4, #111]	@ 0x6f
  MasterCapabilities.RX_maxSize = pHandle->rxHeader[1] &0x3FU;                  /*Bits 8 to  13*/
 800099c:	f00e 0e3f 	and.w	lr, lr, #63	@ 0x3f
  MasterCapabilities.DATA_CRC = pHandle->rxHeader[0] >> 7U ;                     /*Bit 7 */
 80009a0:	09c0      	lsrs	r0, r0, #7
  pHandle->Capabilities.RX_maxSize = MIN(pHandle->Capabilities.RX_maxSize, MasterCapabilities.RX_maxSize);
 80009a2:	4575      	cmp	r5, lr
 80009a4:	bf28      	it	cs
 80009a6:	4675      	movcs	r5, lr
  pHandle->Capabilities.DATA_CRC = MIN(pHandle->Capabilities.DATA_CRC ,MasterCapabilities.DATA_CRC);
 80009a8:	42b0      	cmp	r0, r6
 80009aa:	4601      	mov	r1, r0
  MasterCapabilities.TXS_maxSize = (uint8_t)((packetHeader&0x01FC000U)  >> 14); /*Bits 14 to 20 */
 80009ac:	f3c2 3886 	ubfx	r8, r2, #14, #7
  pHandle->Capabilities.DATA_CRC = MIN(pHandle->Capabilities.DATA_CRC ,MasterCapabilities.DATA_CRC);
 80009b0:	bf28      	it	cs
 80009b2:	4631      	movcs	r1, r6
 80009b4:	4663      	mov	r3, ip
 80009b6:	f361 0307 	bfi	r3, r1, #0, #8
  MasterCapabilities.TXA_maxSize = (uint8_t)((packetHeader&0xFE00000U) >> 21);  /*Bits 21 to 27  */
 80009ba:	f3c2 5a46 	ubfx	sl, r2, #21, #7
  pHandle->Capabilities.TXS_maxSize = MIN(pHandle->Capabilities.TXS_maxSize, MasterCapabilities.TXS_maxSize);
 80009be:	45b8      	cmp	r8, r7
 80009c0:	4641      	mov	r1, r8
  pHandle->Capabilities.DATA_CRC = MIN(pHandle->Capabilities.DATA_CRC ,MasterCapabilities.DATA_CRC);
 80009c2:	f365 230f 	bfi	r3, r5, #8, #8
  pHandle->Capabilities.TXS_maxSize = MIN(pHandle->Capabilities.TXS_maxSize, MasterCapabilities.TXS_maxSize);
 80009c6:	bf28      	it	cs
 80009c8:	4639      	movcs	r1, r7
  pHandle->Capabilities.TXA_maxSize = MIN(pHandle->Capabilities.TXA_maxSize, MasterCapabilities.TXA_maxSize);
 80009ca:	45ca      	cmp	sl, r9
  pHandle->Capabilities.DATA_CRC = MIN(pHandle->Capabilities.DATA_CRC ,MasterCapabilities.DATA_CRC);
 80009cc:	f361 4317 	bfi	r3, r1, #16, #8
  pHandle->Capabilities.TXA_maxSize = MIN(pHandle->Capabilities.TXA_maxSize, MasterCapabilities.TXA_maxSize);
 80009d0:	4651      	mov	r1, sl
 80009d2:	bf28      	it	cs
 80009d4:	4649      	movcs	r1, r9
  pHandle->Capabilities.DATA_CRC = MIN(pHandle->Capabilities.DATA_CRC ,MasterCapabilities.DATA_CRC);
 80009d6:	f361 631f 	bfi	r3, r1, #24, #8
  if ((MasterCapabilities.DATA_CRC != pHandle->Capabilities.DATA_CRC)
 80009da:	42b0      	cmp	r0, r6
  pHandle->Capabilities.DATA_CRC = MIN(pHandle->Capabilities.DATA_CRC ,MasterCapabilities.DATA_CRC);
 80009dc:	66e3      	str	r3, [r4, #108]	@ 0x6c
  if ((MasterCapabilities.DATA_CRC != pHandle->Capabilities.DATA_CRC)
 80009de:	f104 016c 	add.w	r1, r4, #108	@ 0x6c
 80009e2:	d80f      	bhi.n	8000a04 <ASPEP_RXframeProcess+0x168>
   || (MasterCapabilities.RX_maxSize > pHandle->Capabilities.RX_maxSize)
 80009e4:	45ae      	cmp	lr, r5
 80009e6:	d80d      	bhi.n	8000a04 <ASPEP_RXframeProcess+0x168>
   || (pHandle->Capabilities.TXS_maxSize != MasterCapabilities.TXS_maxSize )
 80009e8:	45b8      	cmp	r8, r7
 80009ea:	d80b      	bhi.n	8000a04 <ASPEP_RXframeProcess+0x168>
   || (pHandle->Capabilities.TXA_maxSize != MasterCapabilities.TXA_maxSize )
 80009ec:	45ca      	cmp	sl, r9
 80009ee:	d809      	bhi.n	8000a04 <ASPEP_RXframeProcess+0x168>
   || (MasterCapabilities.version != pHandle->Capabilities.version) )
 80009f0:	f894 c070 	ldrb.w	ip, [r4, #112]	@ 0x70
 80009f4:	f3c2 1202 	ubfx	r2, r2, #4, #3
 80009f8:	ebac 0c02 	sub.w	ip, ip, r2
 80009fc:	fabc fc8c 	clz	ip, ip
 8000a00:	ea4f 1c5c 	mov.w	ip, ip, lsr #5
 8000a04:	f884 c064 	strb.w	ip, [r4, #100]	@ 0x64
            ASPEP_sendBeacon(pHandle, &pHandle->Capabilities);
 8000a08:	4620      	mov	r0, r4
 8000a0a:	f7ff fdb3 	bl	8000574 <ASPEP_sendBeacon>
 8000a0e:	e760      	b.n	80008d2 <ASPEP_RXframeProcess+0x36>
  MasterCapabilities.RX_maxSize = pHandle->rxHeader[1] &0x3FU;                  /*Bits 8 to  13*/
 8000a10:	7f45      	ldrb	r5, [r0, #29]
  pHandle->Capabilities.DATA_CRC = MIN(pHandle->Capabilities.DATA_CRC ,MasterCapabilities.DATA_CRC);
 8000a12:	f890 606c 	ldrb.w	r6, [r0, #108]	@ 0x6c
  MasterCapabilities.DATA_CRC = pHandle->rxHeader[0] >> 7U ;                     /*Bit 7 */
 8000a16:	7f01      	ldrb	r1, [r0, #28]
  pHandle->Capabilities.RX_maxSize = MIN(pHandle->Capabilities.RX_maxSize, MasterCapabilities.RX_maxSize);
 8000a18:	f890 006d 	ldrb.w	r0, [r0, #109]	@ 0x6d
  pHandle->Capabilities.TXS_maxSize = MIN(pHandle->Capabilities.TXS_maxSize, MasterCapabilities.TXS_maxSize);
 8000a1c:	f894 706e 	ldrb.w	r7, [r4, #110]	@ 0x6e
  pHandle->Capabilities.TXA_maxSize = MIN(pHandle->Capabilities.TXA_maxSize, MasterCapabilities.TXA_maxSize);
 8000a20:	f894 e06f 	ldrb.w	lr, [r4, #111]	@ 0x6f
  MasterCapabilities.RX_maxSize = pHandle->rxHeader[1] &0x3FU;                  /*Bits 8 to  13*/
 8000a24:	f005 053f 	and.w	r5, r5, #63	@ 0x3f
  MasterCapabilities.DATA_CRC = pHandle->rxHeader[0] >> 7U ;                     /*Bit 7 */
 8000a28:	09c9      	lsrs	r1, r1, #7
  pHandle->Capabilities.RX_maxSize = MIN(pHandle->Capabilities.RX_maxSize, MasterCapabilities.RX_maxSize);
 8000a2a:	42a8      	cmp	r0, r5
 8000a2c:	bf28      	it	cs
 8000a2e:	4628      	movcs	r0, r5
  pHandle->Capabilities.DATA_CRC = MIN(pHandle->Capabilities.DATA_CRC ,MasterCapabilities.DATA_CRC);
 8000a30:	42b1      	cmp	r1, r6
 8000a32:	4663      	mov	r3, ip
 8000a34:	468c      	mov	ip, r1
 8000a36:	bf28      	it	cs
 8000a38:	46b4      	movcs	ip, r6
 8000a3a:	f36c 0307 	bfi	r3, ip, #0, #8
  MasterCapabilities.TXS_maxSize = (uint8_t)((packetHeader&0x01FC000U)  >> 14); /*Bits 14 to 20 */
 8000a3e:	f3c2 3c86 	ubfx	ip, r2, #14, #7
  MasterCapabilities.TXA_maxSize = (uint8_t)((packetHeader&0xFE00000U) >> 21);  /*Bits 21 to 27  */
 8000a42:	f3c2 5846 	ubfx	r8, r2, #21, #7
  pHandle->Capabilities.TXS_maxSize = MIN(pHandle->Capabilities.TXS_maxSize, MasterCapabilities.TXS_maxSize);
 8000a46:	45bc      	cmp	ip, r7
 8000a48:	46e1      	mov	r9, ip
  pHandle->Capabilities.DATA_CRC = MIN(pHandle->Capabilities.DATA_CRC ,MasterCapabilities.DATA_CRC);
 8000a4a:	f360 230f 	bfi	r3, r0, #8, #8
  pHandle->Capabilities.TXS_maxSize = MIN(pHandle->Capabilities.TXS_maxSize, MasterCapabilities.TXS_maxSize);
 8000a4e:	bf28      	it	cs
 8000a50:	46b9      	movcs	r9, r7
  pHandle->Capabilities.TXA_maxSize = MIN(pHandle->Capabilities.TXA_maxSize, MasterCapabilities.TXA_maxSize);
 8000a52:	45f0      	cmp	r8, lr
  pHandle->Capabilities.DATA_CRC = MIN(pHandle->Capabilities.DATA_CRC ,MasterCapabilities.DATA_CRC);
 8000a54:	f369 4317 	bfi	r3, r9, #16, #8
  pHandle->Capabilities.TXA_maxSize = MIN(pHandle->Capabilities.TXA_maxSize, MasterCapabilities.TXA_maxSize);
 8000a58:	46c1      	mov	r9, r8
 8000a5a:	bf28      	it	cs
 8000a5c:	46f1      	movcs	r9, lr
  pHandle->Capabilities.DATA_CRC = MIN(pHandle->Capabilities.DATA_CRC ,MasterCapabilities.DATA_CRC);
 8000a5e:	f369 631f 	bfi	r3, r9, #24, #8
  if ((MasterCapabilities.DATA_CRC != pHandle->Capabilities.DATA_CRC)
 8000a62:	42b1      	cmp	r1, r6
  pHandle->Capabilities.DATA_CRC = MIN(pHandle->Capabilities.DATA_CRC ,MasterCapabilities.DATA_CRC);
 8000a64:	66e3      	str	r3, [r4, #108]	@ 0x6c
  if ((MasterCapabilities.DATA_CRC != pHandle->Capabilities.DATA_CRC)
 8000a66:	d80b      	bhi.n	8000a80 <ASPEP_RXframeProcess+0x1e4>
   || (MasterCapabilities.RX_maxSize > pHandle->Capabilities.RX_maxSize)
 8000a68:	4285      	cmp	r5, r0
 8000a6a:	d809      	bhi.n	8000a80 <ASPEP_RXframeProcess+0x1e4>
   || (pHandle->Capabilities.TXS_maxSize != MasterCapabilities.TXS_maxSize )
 8000a6c:	45bc      	cmp	ip, r7
 8000a6e:	d807      	bhi.n	8000a80 <ASPEP_RXframeProcess+0x1e4>
   || (pHandle->Capabilities.TXA_maxSize != MasterCapabilities.TXA_maxSize )
 8000a70:	45f0      	cmp	r8, lr
 8000a72:	d805      	bhi.n	8000a80 <ASPEP_RXframeProcess+0x1e4>
   || (MasterCapabilities.version != pHandle->Capabilities.version) )
 8000a74:	f894 3070 	ldrb.w	r3, [r4, #112]	@ 0x70
 8000a78:	f3c2 1202 	ubfx	r2, r2, #4, #3
 8000a7c:	4293      	cmp	r3, r2
 8000a7e:	d002      	beq.n	8000a86 <ASPEP_RXframeProcess+0x1ea>
              pHandle->ASPEP_State = ASPEP_IDLE;
 8000a80:	2300      	movs	r3, #0
 8000a82:	f884 3064 	strb.w	r3, [r4, #100]	@ 0x64
            ASPEP_sendBeacon(pHandle, &pHandle->Capabilities);
 8000a86:	f104 016c 	add.w	r1, r4, #108	@ 0x6c
 8000a8a:	4620      	mov	r0, r4
 8000a8c:	f7ff fd72 	bl	8000574 <ASPEP_sendBeacon>
 8000a90:	e71f      	b.n	80008d2 <ASPEP_RXframeProcess+0x36>
  MasterCapabilities.RX_maxSize = pHandle->rxHeader[1] &0x3FU;                  /*Bits 8 to  13*/
 8000a92:	f890 c01d 	ldrb.w	ip, [r0, #29]
  pHandle->Capabilities.RX_maxSize = MIN(pHandle->Capabilities.RX_maxSize, MasterCapabilities.RX_maxSize);
 8000a96:	f890 106d 	ldrb.w	r1, [r0, #109]	@ 0x6d
  MasterCapabilities.DATA_CRC = pHandle->rxHeader[0] >> 7U ;                     /*Bit 7 */
 8000a9a:	7f05      	ldrb	r5, [r0, #28]
  pHandle->Capabilities.DATA_CRC = MIN(pHandle->Capabilities.DATA_CRC ,MasterCapabilities.DATA_CRC);
 8000a9c:	f890 606c 	ldrb.w	r6, [r0, #108]	@ 0x6c
  pHandle->Capabilities.TXS_maxSize = MIN(pHandle->Capabilities.TXS_maxSize, MasterCapabilities.TXS_maxSize);
 8000aa0:	f890 706e 	ldrb.w	r7, [r0, #110]	@ 0x6e
  pHandle->Capabilities.TXA_maxSize = MIN(pHandle->Capabilities.TXA_maxSize, MasterCapabilities.TXA_maxSize);
 8000aa4:	f894 906f 	ldrb.w	r9, [r4, #111]	@ 0x6f
  MasterCapabilities.RX_maxSize = pHandle->rxHeader[1] &0x3FU;                  /*Bits 8 to  13*/
 8000aa8:	f00c 0c3f 	and.w	ip, ip, #63	@ 0x3f
  MasterCapabilities.DATA_CRC = pHandle->rxHeader[0] >> 7U ;                     /*Bit 7 */
 8000aac:	09ed      	lsrs	r5, r5, #7
  pHandle->Capabilities.RX_maxSize = MIN(pHandle->Capabilities.RX_maxSize, MasterCapabilities.RX_maxSize);
 8000aae:	4561      	cmp	r1, ip
 8000ab0:	bf28      	it	cs
 8000ab2:	4661      	movcs	r1, ip
  pHandle->Capabilities.DATA_CRC = MIN(pHandle->Capabilities.DATA_CRC ,MasterCapabilities.DATA_CRC);
 8000ab4:	42b5      	cmp	r5, r6
 8000ab6:	4628      	mov	r0, r5
  MasterCapabilities.TXS_maxSize = (uint8_t)((packetHeader&0x01FC000U)  >> 14); /*Bits 14 to 20 */
 8000ab8:	f3c2 3886 	ubfx	r8, r2, #14, #7
  pHandle->Capabilities.DATA_CRC = MIN(pHandle->Capabilities.DATA_CRC ,MasterCapabilities.DATA_CRC);
 8000abc:	bf28      	it	cs
 8000abe:	4630      	movcs	r0, r6
 8000ac0:	f360 0307 	bfi	r3, r0, #0, #8
  MasterCapabilities.TXA_maxSize = (uint8_t)((packetHeader&0xFE00000U) >> 21);  /*Bits 21 to 27  */
 8000ac4:	f3c2 5a46 	ubfx	sl, r2, #21, #7
  pHandle->Capabilities.TXS_maxSize = MIN(pHandle->Capabilities.TXS_maxSize, MasterCapabilities.TXS_maxSize);
 8000ac8:	45b8      	cmp	r8, r7
 8000aca:	4640      	mov	r0, r8
  pHandle->Capabilities.DATA_CRC = MIN(pHandle->Capabilities.DATA_CRC ,MasterCapabilities.DATA_CRC);
 8000acc:	f361 230f 	bfi	r3, r1, #8, #8
  pHandle->Capabilities.TXS_maxSize = MIN(pHandle->Capabilities.TXS_maxSize, MasterCapabilities.TXS_maxSize);
 8000ad0:	bf28      	it	cs
 8000ad2:	4638      	movcs	r0, r7
  pHandle->Capabilities.TXA_maxSize = MIN(pHandle->Capabilities.TXA_maxSize, MasterCapabilities.TXA_maxSize);
 8000ad4:	45ca      	cmp	sl, r9
 8000ad6:	46d6      	mov	lr, sl
  pHandle->Capabilities.DATA_CRC = MIN(pHandle->Capabilities.DATA_CRC ,MasterCapabilities.DATA_CRC);
 8000ad8:	f360 4317 	bfi	r3, r0, #16, #8
  pHandle->Capabilities.TXA_maxSize = MIN(pHandle->Capabilities.TXA_maxSize, MasterCapabilities.TXA_maxSize);
 8000adc:	bf28      	it	cs
 8000ade:	46ce      	movcs	lr, r9
  pHandle->Capabilities.DATA_CRC = MIN(pHandle->Capabilities.DATA_CRC ,MasterCapabilities.DATA_CRC);
 8000ae0:	f36e 631f 	bfi	r3, lr, #24, #8
  if ((MasterCapabilities.DATA_CRC != pHandle->Capabilities.DATA_CRC)
 8000ae4:	42b5      	cmp	r5, r6
  pHandle->Capabilities.DATA_CRC = MIN(pHandle->Capabilities.DATA_CRC ,MasterCapabilities.DATA_CRC);
 8000ae6:	66e3      	str	r3, [r4, #108]	@ 0x6c
  if ((MasterCapabilities.DATA_CRC != pHandle->Capabilities.DATA_CRC)
 8000ae8:	d8cd      	bhi.n	8000a86 <ASPEP_RXframeProcess+0x1ea>
   || (MasterCapabilities.RX_maxSize > pHandle->Capabilities.RX_maxSize)
 8000aea:	458c      	cmp	ip, r1
 8000aec:	d8cb      	bhi.n	8000a86 <ASPEP_RXframeProcess+0x1ea>
   || (pHandle->Capabilities.TXS_maxSize != MasterCapabilities.TXS_maxSize )
 8000aee:	45b8      	cmp	r8, r7
 8000af0:	d8c9      	bhi.n	8000a86 <ASPEP_RXframeProcess+0x1ea>
   || (pHandle->Capabilities.TXA_maxSize != MasterCapabilities.TXA_maxSize )
 8000af2:	45ca      	cmp	sl, r9
 8000af4:	d8c7      	bhi.n	8000a86 <ASPEP_RXframeProcess+0x1ea>
   || (MasterCapabilities.version != pHandle->Capabilities.version) )
 8000af6:	f894 3070 	ldrb.w	r3, [r4, #112]	@ 0x70
 8000afa:	f3c2 1202 	ubfx	r2, r2, #4, #3
 8000afe:	4293      	cmp	r3, r2
 8000b00:	d1c1      	bne.n	8000a86 <ASPEP_RXframeProcess+0x1ea>
              pHandle->maxRXPayload = (pHandle->Capabilities.RX_maxSize + (uint16_t)1U) * (uint16_t)32U;
 8000b02:	1c4b      	adds	r3, r1, #1
              pSupHandle->txSyncMaxPayload = (pHandle->Capabilities.TXS_maxSize + (uint16_t)1U) * (uint16_t)32U;
 8000b04:	1c42      	adds	r2, r0, #1
 8000b06:	b2d2      	uxtb	r2, r2
              pHandle->maxRXPayload = (pHandle->Capabilities.RX_maxSize + (uint16_t)1U) * (uint16_t)32U;
 8000b08:	b2db      	uxtb	r3, r3
              pSupHandle->txSyncMaxPayload = (pHandle->Capabilities.TXS_maxSize + (uint16_t)1U) * (uint16_t)32U;
 8000b0a:	0152      	lsls	r2, r2, #5
              pSupHandle->txAsyncMaxPayload = (pHandle->Capabilities.TXA_maxSize) * (uint16_t)64U;
 8000b0c:	ea4f 1e8e 	mov.w	lr, lr, lsl #6
              pHandle->maxRXPayload = (pHandle->Capabilities.RX_maxSize + (uint16_t)1U) * (uint16_t)32U;
 8000b10:	015b      	lsls	r3, r3, #5
              pHandle->ASPEP_State = ASPEP_CONFIGURED;
 8000b12:	2101      	movs	r1, #1
              pSupHandle->txSyncMaxPayload = (pHandle->Capabilities.TXS_maxSize + (uint16_t)1U) * (uint16_t)32U;
 8000b14:	81a2      	strh	r2, [r4, #12]
              pSupHandle->txAsyncMaxPayload = (pHandle->Capabilities.TXA_maxSize) * (uint16_t)64U;
 8000b16:	f8a4 e00e 	strh.w	lr, [r4, #14]
              pHandle->maxRXPayload = (pHandle->Capabilities.RX_maxSize + (uint16_t)1U) * (uint16_t)32U;
 8000b1a:	f8a4 305e 	strh.w	r3, [r4, #94]	@ 0x5e
              pHandle->ASPEP_State = ASPEP_CONFIGURED;
 8000b1e:	f884 1064 	strb.w	r1, [r4, #100]	@ 0x64
 8000b22:	e7b0      	b.n	8000a86 <ASPEP_RXframeProcess+0x1ea>
            ASPEP_sendPing(pHandle, ASPEP_PING_RESET, packetNumber);
 8000b24:	f3c2 320f 	ubfx	r2, r2, #12, #16
 8000b28:	4619      	mov	r1, r3
 8000b2a:	f7ff fd69 	bl	8000600 <ASPEP_sendPing>
 8000b2e:	e6d0      	b.n	80008d2 <ASPEP_RXframeProcess+0x36>
            ASPEP_sendPing(pHandle, ASPEP_PING_CFG, packetNumber);
 8000b30:	7f42      	ldrb	r2, [r0, #29]
 8000b32:	2101      	movs	r1, #1
 8000b34:	f7ff fd64 	bl	8000600 <ASPEP_sendPing>
 8000b38:	e6cb      	b.n	80008d2 <ASPEP_RXframeProcess+0x36>
  (void)ASPEP_TXframeProcess(pHandle, ASPEP_CTRL, &pHandle->ctrlBuffer, ASPEP_CTRL_SIZE);
 8000b3a:	f104 0120 	add.w	r1, r4, #32
        pHandle->ctrlBuffer.state = readLock;
 8000b3e:	2303      	movs	r3, #3
 8000b40:	f884 3024 	strb.w	r3, [r4, #36]	@ 0x24
        pHandle->lockBuffer = (void *)&pHandle->ctrlBuffer;
 8000b44:	64a1      	str	r1, [r4, #72]	@ 0x48
 8000b46:	b662      	cpsie	i
      pHandle->fASPEP_send(pHandle->HWIp, txBuffer, bufferLength);
 8000b48:	2204      	movs	r2, #4
 8000b4a:	6da3      	ldr	r3, [r4, #88]	@ 0x58
 8000b4c:	6960      	ldr	r0, [r4, #20]
 8000b4e:	4798      	blx	r3
 8000b50:	e704      	b.n	800095c <ASPEP_RXframeProcess+0xc0>
 8000b52:	bf00      	nop
 8000b54:	080074f0 	.word	0x080074f0
 8000b58:	080074e0 	.word	0x080074e0

08000b5c <ASPEP_HWDataReceivedIT>:
  * If the packet received contains an error in the header, the HW IP will be re-synchronised first, and DMA will be configured after.
  *
  * @param  *pHandle Handler of the current instance of the ASPEP component
  */
void ASPEP_HWDataReceivedIT(ASPEP_Handle_t *pHandle)
{
 8000b5c:	b510      	push	{r4, lr}
    /* Nothing to do */
  }
  else
  {
#endif
    switch (pHandle->ASPEP_TL_State)
 8000b5e:	f890 3065 	ldrb.w	r3, [r0, #101]	@ 0x65
{
 8000b62:	4604      	mov	r4, r0
    switch (pHandle->ASPEP_TL_State)
 8000b64:	b13b      	cbz	r3, 8000b76 <ASPEP_HWDataReceivedIT+0x1a>
 8000b66:	2b01      	cmp	r3, #1
 8000b68:	d104      	bne.n	8000b74 <ASPEP_HWDataReceivedIT+0x18>
        break;
      }

      case WAITING_PAYLOAD:
      {
        pHandle->ASPEP_TL_State = WAITING_PACKET;
 8000b6a:	2200      	movs	r2, #0
 8000b6c:	f880 2065 	strb.w	r2, [r0, #101]	@ 0x65
        /* Payload received, */
        pHandle->NewPacketAvailable = true;
 8000b70:	f880 3061 	strb.w	r3, [r0, #97]	@ 0x61
        break;
    }
#ifdef NULL_PTR_CHECK_ASP
  }
#endif
}
 8000b74:	bd10      	pop	{r4, pc}
        if (ASPEP_CheckHeaderCRC(*(uint32_t *)pHandle->rxHeader) == true) //cstat !MISRAC2012-Rule-11.3
 8000b76:	69c1      	ldr	r1, [r0, #28]
  crc = CRC4_Lookup8[crc ^ (uint8_t)(header         & 0xffU)];
 8000b78:	4a1e      	ldr	r2, [pc, #120]	@ (8000bf4 <ASPEP_HWDataReceivedIT+0x98>)
 8000b7a:	b2cb      	uxtb	r3, r1
  crc = CRC4_Lookup8[crc ^ (uint8_t)((header >> 8U) & 0xffU)];
 8000b7c:	5cd3      	ldrb	r3, [r2, r3]
 8000b7e:	ea83 2311 	eor.w	r3, r3, r1, lsr #8
 8000b82:	b2db      	uxtb	r3, r3
  crc = CRC4_Lookup8[crc ^ (uint8_t)((header >> 16U) & 0xffU)];
 8000b84:	5cd3      	ldrb	r3, [r2, r3]
 8000b86:	ea83 4311 	eor.w	r3, r3, r1, lsr #16
 8000b8a:	b2db      	uxtb	r3, r3
  crc = CRC4_Lookup8[crc ^ (uint8_t)((header >> 24U) & 0xffU)];
 8000b8c:	5cd3      	ldrb	r3, [r2, r3]
 8000b8e:	ea83 6311 	eor.w	r3, r3, r1, lsr #24
        if (ASPEP_CheckHeaderCRC(*(uint32_t *)pHandle->rxHeader) == true) //cstat !MISRAC2012-Rule-11.3
 8000b92:	5cd3      	ldrb	r3, [r2, r3]
 8000b94:	b95b      	cbnz	r3, 8000bae <ASPEP_HWDataReceivedIT+0x52>
          pHandle->rxPacketType = (ASPEP_packetType)(((uint32_t)pHandle->rxHeader[0]) & ID_MASK);
 8000b96:	7f03      	ldrb	r3, [r0, #28]
 8000b98:	f003 030f 	and.w	r3, r3, #15
 8000b9c:	2b06      	cmp	r3, #6
 8000b9e:	6683      	str	r3, [r0, #104]	@ 0x68
          switch (pHandle->rxPacketType)
 8000ba0:	d809      	bhi.n	8000bb6 <ASPEP_HWDataReceivedIT+0x5a>
 8000ba2:	2b04      	cmp	r3, #4
 8000ba4:	d81e      	bhi.n	8000be4 <ASPEP_HWDataReceivedIT+0x88>
              pHandle->badPacketFlag = ASPEP_BAD_PACKET_TYPE;
 8000ba6:	2301      	movs	r3, #1
 8000ba8:	f884 3062 	strb.w	r3, [r4, #98]	@ 0x62
}
 8000bac:	bd10      	pop	{r4, pc}
          pHandle->badPacketFlag = ASPEP_BAD_CRC_HEADER;
 8000bae:	2304      	movs	r3, #4
 8000bb0:	f880 3062 	strb.w	r3, [r0, #98]	@ 0x62
}
 8000bb4:	bd10      	pop	{r4, pc}
 8000bb6:	2b09      	cmp	r3, #9
 8000bb8:	d1f5      	bne.n	8000ba6 <ASPEP_HWDataReceivedIT+0x4a>
              pHandle->rxLength = (uint16_t)((*((uint16_t *)pHandle->rxHeader) & 0x1FFF0U) >> (uint16_t)4);
 8000bba:	8b83      	ldrh	r3, [r0, #28]
 8000bbc:	091b      	lsrs	r3, r3, #4
 8000bbe:	f8a0 305c 	strh.w	r3, [r0, #92]	@ 0x5c
              if (0U == pHandle->rxLength) /* data packet with length 0 is a valid packet */
 8000bc2:	b17b      	cbz	r3, 8000be4 <ASPEP_HWDataReceivedIT+0x88>
              else if (pHandle->rxLength <= pHandle->maxRXPayload)
 8000bc4:	f8b0 205e 	ldrh.w	r2, [r0, #94]	@ 0x5e
 8000bc8:	429a      	cmp	r2, r3
 8000bca:	d30f      	bcc.n	8000bec <ASPEP_HWDataReceivedIT+0x90>
                pHandle->fASPEP_receive(pHandle->HWIp, pHandle->rxBuffer,  /* need to read + 2 bytes CRC*/
 8000bcc:	f890 206c 	ldrb.w	r2, [r0, #108]	@ 0x6c
 8000bd0:	6981      	ldr	r1, [r0, #24]
 8000bd2:	6940      	ldr	r0, [r0, #20]
 8000bd4:	eb03 0242 	add.w	r2, r3, r2, lsl #1
 8000bd8:	6d63      	ldr	r3, [r4, #84]	@ 0x54
 8000bda:	4798      	blx	r3
                pHandle->ASPEP_TL_State = WAITING_PAYLOAD;
 8000bdc:	2301      	movs	r3, #1
 8000bde:	f884 3065 	strb.w	r3, [r4, #101]	@ 0x65
}
 8000be2:	bd10      	pop	{r4, pc}
              pHandle->NewPacketAvailable = true;
 8000be4:	2301      	movs	r3, #1
 8000be6:	f884 3061 	strb.w	r3, [r4, #97]	@ 0x61
}
 8000bea:	bd10      	pop	{r4, pc}
                pHandle->badPacketFlag = ASPEP_BAD_PACKET_SIZE;
 8000bec:	2302      	movs	r3, #2
 8000bee:	f880 3062 	strb.w	r3, [r0, #98]	@ 0x62
}
 8000bf2:	bd10      	pop	{r4, pc}
 8000bf4:	080074f0 	.word	0x080074f0

08000bf8 <ASPEP_HWDMAReset>:
  * @brief  Resets DMA after debugger has stopped the MCU.
  *
  * @param  *pHandle Handler of the current instance of the ASPEP component
  */
void ASPEP_HWDMAReset(ASPEP_Handle_t *pHandle)
{
 8000bf8:	4601      	mov	r1, r0
  {
#endif
    /* We must reset the RX state machine to be sure to not be in Waiting packet state */
    /* Otherwise the arrival of a new packet will trigger a NewPacketAvailable despite */
    /* the fact that bytes have been lost because of overrun (debugger paused for instance) */
    pHandle->ASPEP_TL_State = WAITING_PACKET;
 8000bfa:	2200      	movs	r2, #0
 8000bfc:	f880 2065 	strb.w	r2, [r0, #101]	@ 0x65
    pHandle->fASPEP_receive(pHandle->HWIp, pHandle->rxHeader, ASPEP_HEADER_SIZE);
 8000c00:	6d43      	ldr	r3, [r0, #84]	@ 0x54
 8000c02:	6940      	ldr	r0, [r0, #20]
 8000c04:	2204      	movs	r2, #4
 8000c06:	311c      	adds	r1, #28
 8000c08:	4718      	bx	r3
 8000c0a:	bf00      	nop
 8000c0c:	0000      	movs	r0, r0
	...

08000c10 <SystemClock_Config>:
/**
  * @brief System Clock Configuration
  * @retval None
  */
void SystemClock_Config(void)
{
 8000c10:	b530      	push	{r4, r5, lr}
  RCC_OscInitTypeDef RCC_OscInitStruct = {0};
 8000c12:	2300      	movs	r3, #0
{
 8000c14:	b097      	sub	sp, #92	@ 0x5c
  RCC_OscInitTypeDef RCC_OscInitStruct = {0};
 8000c16:	e9cd 330a 	strd	r3, r3, [sp, #40]	@ 0x28
 8000c1a:	e9cd 330c 	strd	r3, r3, [sp, #48]	@ 0x30
  RCC_ClkInitTypeDef RCC_ClkInitStruct = {0};
 8000c1e:	e9cd 3303 	strd	r3, r3, [sp, #12]
 8000c22:	e9cd 3305 	strd	r3, r3, [sp, #20]

  /** Configure the main internal regulator output voltage
  */
  __HAL_RCC_PWR_CLK_ENABLE();
 8000c26:	4926      	ldr	r1, [pc, #152]	@ (8000cc0 <SystemClock_Config+0xb0>)
 8000c28:	9301      	str	r3, [sp, #4]
  RCC_ClkInitTypeDef RCC_ClkInitStruct = {0};
 8000c2a:	9307      	str	r3, [sp, #28]
  __HAL_RCC_PWR_CLK_ENABLE();
 8000c2c:	6c08      	ldr	r0, [r1, #64]	@ 0x40
  __HAL_PWR_VOLTAGESCALING_CONFIG(PWR_REGULATOR_VOLTAGE_SCALE1);
 8000c2e:	4a25      	ldr	r2, [pc, #148]	@ (8000cc4 <SystemClock_Config+0xb4>)
  __HAL_RCC_PWR_CLK_ENABLE();
 8000c30:	f040 5080 	orr.w	r0, r0, #268435456	@ 0x10000000
 8000c34:	6408      	str	r0, [r1, #64]	@ 0x40
 8000c36:	6c09      	ldr	r1, [r1, #64]	@ 0x40
 8000c38:	f001 5180 	and.w	r1, r1, #268435456	@ 0x10000000
 8000c3c:	9101      	str	r1, [sp, #4]
 8000c3e:	9901      	ldr	r1, [sp, #4]
  __HAL_PWR_VOLTAGESCALING_CONFIG(PWR_REGULATOR_VOLTAGE_SCALE1);
 8000c40:	9302      	str	r3, [sp, #8]
 8000c42:	6813      	ldr	r3, [r2, #0]
 8000c44:	f443 4340 	orr.w	r3, r3, #49152	@ 0xc000
 8000c48:	6013      	str	r3, [r2, #0]
 8000c4a:	6813      	ldr	r3, [r2, #0]
 8000c4c:	f403 4340 	and.w	r3, r3, #49152	@ 0xc000
  /** Initializes the RCC Oscillators according to the specified parameters
  * in the RCC_OscInitTypeDef structure.
  */
  RCC_OscInitStruct.OscillatorType = RCC_OSCILLATORTYPE_HSE;
  RCC_OscInitStruct.HSEState = RCC_HSE_ON;
  RCC_OscInitStruct.PLL.PLLState = RCC_PLL_ON;
 8000c50:	2402      	movs	r4, #2
  __HAL_PWR_VOLTAGESCALING_CONFIG(PWR_REGULATOR_VOLTAGE_SCALE1);
 8000c52:	9302      	str	r3, [sp, #8]
  RCC_OscInitStruct.PLL.PLLSource = RCC_PLLSOURCE_HSE;
 8000c54:	f44f 0180 	mov.w	r1, #4194304	@ 0x400000
  RCC_OscInitStruct.OscillatorType = RCC_OSCILLATORTYPE_HSE;
 8000c58:	ed9f 7b17 	vldr	d7, [pc, #92]	@ 8000cb8 <SystemClock_Config+0xa8>
  RCC_OscInitStruct.PLL.PLLSource = RCC_PLLSOURCE_HSE;
 8000c5c:	e9cd 410e 	strd	r4, r1, [sp, #56]	@ 0x38
  __HAL_PWR_VOLTAGESCALING_CONFIG(PWR_REGULATOR_VOLTAGE_SCALE1);
 8000c60:	9802      	ldr	r0, [sp, #8]
  RCC_OscInitStruct.PLL.PLLM = 4;
  RCC_OscInitStruct.PLL.PLLN = 180;
  RCC_OscInitStruct.PLL.PLLP = RCC_PLLP_DIV2;
  RCC_OscInitStruct.PLL.PLLQ = 2;
  RCC_OscInitStruct.PLL.PLLR = 2;
 8000c62:	9414      	str	r4, [sp, #80]	@ 0x50
  RCC_OscInitStruct.PLL.PLLP = RCC_PLLP_DIV2;
 8000c64:	2002      	movs	r0, #2
 8000c66:	2102      	movs	r1, #2
 8000c68:	e9cd 0112 	strd	r0, r1, [sp, #72]	@ 0x48
  RCC_OscInitStruct.PLL.PLLM = 4;
 8000c6c:	2204      	movs	r2, #4
  RCC_OscInitStruct.PLL.PLLN = 180;
 8000c6e:	23b4      	movs	r3, #180	@ 0xb4
  if (HAL_RCC_OscConfig(&RCC_OscInitStruct) != HAL_OK)
 8000c70:	a808      	add	r0, sp, #32
  RCC_OscInitStruct.OscillatorType = RCC_OSCILLATORTYPE_HSE;
 8000c72:	ed8d 7b08 	vstr	d7, [sp, #32]
  RCC_OscInitStruct.PLL.PLLM = 4;
 8000c76:	9210      	str	r2, [sp, #64]	@ 0x40
  RCC_OscInitStruct.PLL.PLLN = 180;
 8000c78:	9311      	str	r3, [sp, #68]	@ 0x44
  if (HAL_RCC_OscConfig(&RCC_OscInitStruct) != HAL_OK)
 8000c7a:	f003 fe8f 	bl	800499c <HAL_RCC_OscConfig>
 8000c7e:	b108      	cbz	r0, 8000c84 <SystemClock_Config+0x74>
  __ASM volatile ("cpsid i" : : : "memory");
 8000c80:	b672      	cpsid	i
void Error_Handler(void)
{
  /* USER CODE BEGIN Error_Handler_Debug */
  /* User can add his own implementation to report the HAL error return state */
  __disable_irq();
  while (1)
 8000c82:	e7fe      	b.n	8000c82 <SystemClock_Config+0x72>
  if (HAL_PWREx_EnableOverDrive() != HAL_OK)
 8000c84:	f003 fd34 	bl	80046f0 <HAL_PWREx_EnableOverDrive>
 8000c88:	4603      	mov	r3, r0
 8000c8a:	b108      	cbz	r0, 8000c90 <SystemClock_Config+0x80>
 8000c8c:	b672      	cpsid	i
  while (1)
 8000c8e:	e7fe      	b.n	8000c8e <SystemClock_Config+0x7e>
  RCC_ClkInitStruct.ClockType = RCC_CLOCKTYPE_HCLK|RCC_CLOCKTYPE_SYSCLK
 8000c90:	220f      	movs	r2, #15
  RCC_ClkInitStruct.SYSCLKSource = RCC_SYSCLKSOURCE_PLLCLK;
 8000c92:	e9cd 2403 	strd	r2, r4, [sp, #12]
  RCC_ClkInitStruct.APB1CLKDivider = RCC_HCLK_DIV4;
 8000c96:	f44f 55a0 	mov.w	r5, #5120	@ 0x1400
  RCC_ClkInitStruct.APB2CLKDivider = RCC_HCLK_DIV2;
 8000c9a:	f44f 5280 	mov.w	r2, #4096	@ 0x1000
  if (HAL_RCC_ClockConfig(&RCC_ClkInitStruct, FLASH_LATENCY_5) != HAL_OK)
 8000c9e:	a803      	add	r0, sp, #12
 8000ca0:	2105      	movs	r1, #5
  RCC_ClkInitStruct.APB1CLKDivider = RCC_HCLK_DIV4;
 8000ca2:	e9cd 3505 	strd	r3, r5, [sp, #20]
  RCC_ClkInitStruct.APB2CLKDivider = RCC_HCLK_DIV2;
 8000ca6:	9207      	str	r2, [sp, #28]
  if (HAL_RCC_ClockConfig(&RCC_ClkInitStruct, FLASH_LATENCY_5) != HAL_OK)
 8000ca8:	f003 fd5e 	bl	8004768 <HAL_RCC_ClockConfig>
 8000cac:	b108      	cbz	r0, 8000cb2 <SystemClock_Config+0xa2>
 8000cae:	b672      	cpsid	i
  while (1)
 8000cb0:	e7fe      	b.n	8000cb0 <SystemClock_Config+0xa0>
}
 8000cb2:	b017      	add	sp, #92	@ 0x5c
 8000cb4:	bd30      	pop	{r4, r5, pc}
 8000cb6:	bf00      	nop
 8000cb8:	00000001 	.word	0x00000001
 8000cbc:	00010000 	.word	0x00010000
 8000cc0:	40023800 	.word	0x40023800
 8000cc4:	40007000 	.word	0x40007000

08000cc8 <main>:
{
 8000cc8:	b580      	push	{r7, lr}
  GPIO_InitTypeDef GPIO_InitStruct = {0};
 8000cca:	2400      	movs	r4, #0
{
 8000ccc:	b09c      	sub	sp, #112	@ 0x70
  HAL_Init();
 8000cce:	f003 f875 	bl	8003dbc <HAL_Init>
  SystemClock_Config();
 8000cd2:	f7ff ff9d 	bl	8000c10 <SystemClock_Config>
  GPIO_InitTypeDef GPIO_InitStruct = {0};
 8000cd6:	e9cd 4413 	strd	r4, r4, [sp, #76]	@ 0x4c
 8000cda:	e9cd 4415 	strd	r4, r4, [sp, #84]	@ 0x54
  __HAL_RCC_GPIOC_CLK_ENABLE();
 8000cde:	4d97      	ldr	r5, [pc, #604]	@ (8000f3c <main+0x274>)
 8000ce0:	9401      	str	r4, [sp, #4]
  GPIO_InitTypeDef GPIO_InitStruct = {0};
 8000ce2:	9417      	str	r4, [sp, #92]	@ 0x5c
  __HAL_RCC_GPIOC_CLK_ENABLE();
 8000ce4:	6b2b      	ldr	r3, [r5, #48]	@ 0x30
  HAL_GPIO_WritePin(GPIOC, GPIO_PIN_14|GPIO_PIN_6|GPIO_PIN_7|GPIO_PIN_8, GPIO_PIN_RESET);
 8000ce6:	4896      	ldr	r0, [pc, #600]	@ (8000f40 <main+0x278>)
  __HAL_RCC_GPIOC_CLK_ENABLE();
 8000ce8:	f043 0304 	orr.w	r3, r3, #4
 8000cec:	632b      	str	r3, [r5, #48]	@ 0x30
 8000cee:	6b2b      	ldr	r3, [r5, #48]	@ 0x30
 8000cf0:	f003 0304 	and.w	r3, r3, #4
 8000cf4:	9301      	str	r3, [sp, #4]
 8000cf6:	9b01      	ldr	r3, [sp, #4]
  __HAL_RCC_GPIOH_CLK_ENABLE();
 8000cf8:	9402      	str	r4, [sp, #8]
 8000cfa:	6b2b      	ldr	r3, [r5, #48]	@ 0x30
 8000cfc:	f043 0380 	orr.w	r3, r3, #128	@ 0x80
 8000d00:	632b      	str	r3, [r5, #48]	@ 0x30
 8000d02:	6b2b      	ldr	r3, [r5, #48]	@ 0x30
 8000d04:	f003 0380 	and.w	r3, r3, #128	@ 0x80
 8000d08:	9302      	str	r3, [sp, #8]
 8000d0a:	9b02      	ldr	r3, [sp, #8]
  __HAL_RCC_GPIOA_CLK_ENABLE();
 8000d0c:	9403      	str	r4, [sp, #12]
 8000d0e:	6b2b      	ldr	r3, [r5, #48]	@ 0x30
 8000d10:	f043 0301 	orr.w	r3, r3, #1
 8000d14:	632b      	str	r3, [r5, #48]	@ 0x30
 8000d16:	6b2b      	ldr	r3, [r5, #48]	@ 0x30
 8000d18:	f003 0301 	and.w	r3, r3, #1
 8000d1c:	9303      	str	r3, [sp, #12]
 8000d1e:	9b03      	ldr	r3, [sp, #12]
  __HAL_RCC_GPIOB_CLK_ENABLE();
 8000d20:	9404      	str	r4, [sp, #16]
 8000d22:	6b2b      	ldr	r3, [r5, #48]	@ 0x30
 8000d24:	f043 0302 	orr.w	r3, r3, #2
 8000d28:	632b      	str	r3, [r5, #48]	@ 0x30
 8000d2a:	6b2b      	ldr	r3, [r5, #48]	@ 0x30
 8000d2c:	f003 0302 	and.w	r3, r3, #2
  HAL_GPIO_WritePin(GPIOC, GPIO_PIN_14|GPIO_PIN_6|GPIO_PIN_7|GPIO_PIN_8, GPIO_PIN_RESET);
 8000d30:	4622      	mov	r2, r4
  __HAL_RCC_GPIOB_CLK_ENABLE();
 8000d32:	9304      	str	r3, [sp, #16]
  HAL_GPIO_WritePin(GPIOC, GPIO_PIN_14|GPIO_PIN_6|GPIO_PIN_7|GPIO_PIN_8, GPIO_PIN_RESET);
 8000d34:	f244 11c0 	movw	r1, #16832	@ 0x41c0
  __HAL_RCC_GPIOB_CLK_ENABLE();
 8000d38:	9b04      	ldr	r3, [sp, #16]
  HAL_GPIO_WritePin(GPIOC, GPIO_PIN_14|GPIO_PIN_6|GPIO_PIN_7|GPIO_PIN_8, GPIO_PIN_RESET);
 8000d3a:	f003 fcd5 	bl	80046e8 <HAL_GPIO_WritePin>
  GPIO_InitStruct.Pin = Start_Stop_Pin;
 8000d3e:	f44f 5300 	mov.w	r3, #8192	@ 0x2000
  HAL_GPIO_Init(Start_Stop_GPIO_Port, &GPIO_InitStruct);
 8000d42:	487f      	ldr	r0, [pc, #508]	@ (8000f40 <main+0x278>)
  GPIO_InitStruct.Pin = Start_Stop_Pin;
 8000d44:	9313      	str	r3, [sp, #76]	@ 0x4c
  HAL_GPIO_Init(Start_Stop_GPIO_Port, &GPIO_InitStruct);
 8000d46:	a913      	add	r1, sp, #76	@ 0x4c
  GPIO_InitStruct.Mode = GPIO_MODE_IT_FALLING;
 8000d48:	f44f 1304 	mov.w	r3, #2162688	@ 0x210000
  GPIO_InitStruct.Mode = GPIO_MODE_OUTPUT_PP;
 8000d4c:	2601      	movs	r6, #1
  GPIO_InitStruct.Mode = GPIO_MODE_IT_FALLING;
 8000d4e:	9314      	str	r3, [sp, #80]	@ 0x50
  GPIO_InitStruct.Pull = GPIO_NOPULL;
 8000d50:	9415      	str	r4, [sp, #84]	@ 0x54
  HAL_GPIO_Init(Start_Stop_GPIO_Port, &GPIO_InitStruct);
 8000d52:	f003 fbb9 	bl	80044c8 <HAL_GPIO_Init>
  GPIO_InitStruct.Pin = GPIO_PIN_14|GPIO_PIN_6|GPIO_PIN_7|GPIO_PIN_8;
 8000d56:	f244 13c0 	movw	r3, #16832	@ 0x41c0
  HAL_GPIO_Init(GPIOC, &GPIO_InitStruct);
 8000d5a:	4879      	ldr	r0, [pc, #484]	@ (8000f40 <main+0x278>)
 8000d5c:	a913      	add	r1, sp, #76	@ 0x4c
  GPIO_InitStruct.Mode = GPIO_MODE_OUTPUT_PP;
 8000d5e:	e9cd 3613 	strd	r3, r6, [sp, #76]	@ 0x4c
  GPIO_InitStruct.Speed = GPIO_SPEED_FREQ_LOW;
 8000d62:	e9cd 4415 	strd	r4, r4, [sp, #84]	@ 0x54
  HAL_GPIO_Init(GPIOC, &GPIO_InitStruct);
 8000d66:	f003 fbaf 	bl	80044c8 <HAL_GPIO_Init>
  __HAL_RCC_DMA1_CLK_ENABLE();
 8000d6a:	9400      	str	r4, [sp, #0]
 8000d6c:	6b2b      	ldr	r3, [r5, #48]	@ 0x30
 8000d6e:	f443 1300 	orr.w	r3, r3, #2097152	@ 0x200000
 8000d72:	632b      	str	r3, [r5, #48]	@ 0x30
 8000d74:	6b2b      	ldr	r3, [r5, #48]	@ 0x30
  hadc1.Instance = ADC1;
 8000d76:	4d73      	ldr	r5, [pc, #460]	@ (8000f44 <main+0x27c>)
  __HAL_RCC_DMA1_CLK_ENABLE();
 8000d78:	f403 1300 	and.w	r3, r3, #2097152	@ 0x200000
  ADC_InjectionConfTypeDef sConfigInjected = {0};
 8000d7c:	2720      	movs	r7, #32
  __HAL_RCC_DMA1_CLK_ENABLE();
 8000d7e:	9300      	str	r3, [sp, #0]
  ADC_InjectionConfTypeDef sConfigInjected = {0};
 8000d80:	463a      	mov	r2, r7
 8000d82:	4621      	mov	r1, r4
 8000d84:	a813      	add	r0, sp, #76	@ 0x4c
  __HAL_RCC_DMA1_CLK_ENABLE();
 8000d86:	9b00      	ldr	r3, [sp, #0]
  ADC_InjectionConfTypeDef sConfigInjected = {0};
 8000d88:	f006 fb64 	bl	8007454 <memset>
  hadc1.Instance = ADC1;
 8000d8c:	4b6e      	ldr	r3, [pc, #440]	@ (8000f48 <main+0x280>)
 8000d8e:	602b      	str	r3, [r5, #0]
  hadc1.Init.ExternalTrigConv = ADC_SOFTWARE_START;
 8000d90:	4b6e      	ldr	r3, [pc, #440]	@ (8000f4c <main+0x284>)
 8000d92:	62ab      	str	r3, [r5, #40]	@ 0x28
  hadc1.Init.ClockPrescaler = ADC_CLOCK_SYNC_PCLK_DIV4;
 8000d94:	f44f 3380 	mov.w	r3, #65536	@ 0x10000
 8000d98:	606b      	str	r3, [r5, #4]
  if (HAL_ADC_Init(&hadc1) != HAL_OK)
 8000d9a:	4628      	mov	r0, r5
  hadc1.Init.DataAlign = ADC_DATAALIGN_LEFT;
 8000d9c:	f44f 6300 	mov.w	r3, #2048	@ 0x800
  ADC_ChannelConfTypeDef sConfig = {0};
 8000da0:	e9cd 440c 	strd	r4, r4, [sp, #48]	@ 0x30
 8000da4:	e9cd 440e 	strd	r4, r4, [sp, #56]	@ 0x38
  hadc1.Init.Resolution = ADC_RESOLUTION_12B;
 8000da8:	60ac      	str	r4, [r5, #8]
  hadc1.Init.ScanConvMode = ENABLE;
 8000daa:	612e      	str	r6, [r5, #16]
  hadc1.Init.ContinuousConvMode = DISABLE;
 8000dac:	762c      	strb	r4, [r5, #24]
  hadc1.Init.DiscontinuousConvMode = DISABLE;
 8000dae:	f885 4020 	strb.w	r4, [r5, #32]
  hadc1.Init.ExternalTrigConvEdge = ADC_EXTERNALTRIGCONVEDGE_NONE;
 8000db2:	62ec      	str	r4, [r5, #44]	@ 0x2c
  hadc1.Init.DMAContinuousRequests = DISABLE;
 8000db4:	f885 4030 	strb.w	r4, [r5, #48]	@ 0x30
  hadc1.Init.NbrOfConversion = 1;
 8000db8:	61ee      	str	r6, [r5, #28]
  hadc1.Init.EOCSelection = ADC_EOC_SINGLE_CONV;
 8000dba:	616e      	str	r6, [r5, #20]
  hadc1.Init.DataAlign = ADC_DATAALIGN_LEFT;
 8000dbc:	60eb      	str	r3, [r5, #12]
  if (HAL_ADC_Init(&hadc1) != HAL_OK)
 8000dbe:	f003 f83b 	bl	8003e38 <HAL_ADC_Init>
 8000dc2:	b108      	cbz	r0, 8000dc8 <main+0x100>
 8000dc4:	b672      	cpsid	i
  while (1)
 8000dc6:	e7fe      	b.n	8000dc6 <main+0xfe>
  sConfigInjected.InjectedRank = 1;
 8000dc8:	e9cd 0613 	strd	r0, r6, [sp, #76]	@ 0x4c
  sConfigInjected.ExternalTrigInjecConv = ADC_EXTERNALTRIGINJECCONV_T1_CC4;
 8000dcc:	9019      	str	r0, [sp, #100]	@ 0x64
  sConfigInjected.InjectedDiscontinuousConvMode = DISABLE;
 8000dce:	f8ad 0060 	strh.w	r0, [sp, #96]	@ 0x60
  sConfigInjected.InjectedOffset = 0;
 8000dd2:	9016      	str	r0, [sp, #88]	@ 0x58
  sConfigInjected.InjectedNbrOfConversion = 3;
 8000dd4:	2403      	movs	r4, #3
  sConfigInjected.ExternalTrigInjecConvEdge = ADC_EXTERNALTRIGINJECCONVEDGE_RISING;
 8000dd6:	f44f 1380 	mov.w	r3, #1048576	@ 0x100000
  if (HAL_ADCEx_InjectedConfigChannel(&hadc1, &sConfigInjected) != HAL_OK)
 8000dda:	a913      	add	r1, sp, #76	@ 0x4c
 8000ddc:	4628      	mov	r0, r5
  sConfigInjected.InjectedSamplingTime = ADC_SAMPLETIME_15CYCLES;
 8000dde:	9615      	str	r6, [sp, #84]	@ 0x54
  sConfigInjected.InjectedNbrOfConversion = 3;
 8000de0:	9417      	str	r4, [sp, #92]	@ 0x5c
  sConfigInjected.ExternalTrigInjecConvEdge = ADC_EXTERNALTRIGINJECCONVEDGE_RISING;
 8000de2:	931a      	str	r3, [sp, #104]	@ 0x68
  if (HAL_ADCEx_InjectedConfigChannel(&hadc1, &sConfigInjected) != HAL_OK)
 8000de4:	f003 f98a 	bl	80040fc <HAL_ADCEx_InjectedConfigChannel>
 8000de8:	b108      	cbz	r0, 8000dee <main+0x126>
 8000dea:	b672      	cpsid	i
  while (1)
 8000dec:	e7fe      	b.n	8000dec <main+0x124>
  sConfigInjected.InjectedRank = 2;
 8000dee:	230b      	movs	r3, #11
 8000df0:	f04f 0802 	mov.w	r8, #2
  if (HAL_ADCEx_InjectedConfigChannel(&hadc1, &sConfigInjected) != HAL_OK)
 8000df4:	a913      	add	r1, sp, #76	@ 0x4c
 8000df6:	4628      	mov	r0, r5
  sConfigInjected.InjectedRank = 2;
 8000df8:	e9cd 3813 	strd	r3, r8, [sp, #76]	@ 0x4c
  if (HAL_ADCEx_InjectedConfigChannel(&hadc1, &sConfigInjected) != HAL_OK)
 8000dfc:	f003 f97e 	bl	80040fc <HAL_ADCEx_InjectedConfigChannel>
 8000e00:	b108      	cbz	r0, 8000e06 <main+0x13e>
 8000e02:	b672      	cpsid	i
  while (1)
 8000e04:	e7fe      	b.n	8000e04 <main+0x13c>
  sConfigInjected.InjectedChannel = ADC_CHANNEL_10;
 8000e06:	230a      	movs	r3, #10
  if (HAL_ADCEx_InjectedConfigChannel(&hadc1, &sConfigInjected) != HAL_OK)
 8000e08:	a913      	add	r1, sp, #76	@ 0x4c
 8000e0a:	4628      	mov	r0, r5
  sConfigInjected.InjectedRank = 3;
 8000e0c:	9414      	str	r4, [sp, #80]	@ 0x50
  sConfigInjected.InjectedChannel = ADC_CHANNEL_10;
 8000e0e:	9313      	str	r3, [sp, #76]	@ 0x4c
  if (HAL_ADCEx_InjectedConfigChannel(&hadc1, &sConfigInjected) != HAL_OK)
 8000e10:	f003 f974 	bl	80040fc <HAL_ADCEx_InjectedConfigChannel>
 8000e14:	b108      	cbz	r0, 8000e1a <main+0x152>
 8000e16:	b672      	cpsid	i
  while (1)
 8000e18:	e7fe      	b.n	8000e18 <main+0x150>
  sConfig.Offset = 0;
 8000e1a:	e9cd 800e 	strd	r8, r0, [sp, #56]	@ 0x38
  if (HAL_ADC_ConfigChannel(&hadc1, &sConfig) != HAL_OK)
 8000e1e:	a90c      	add	r1, sp, #48	@ 0x30
 8000e20:	4628      	mov	r0, r5
  sConfig.Rank = 1;
 8000e22:	e9cd 660c 	strd	r6, r6, [sp, #48]	@ 0x30
  if (HAL_ADC_ConfigChannel(&hadc1, &sConfig) != HAL_OK)
 8000e26:	f003 f8b3 	bl	8003f90 <HAL_ADC_ConfigChannel>
 8000e2a:	4604      	mov	r4, r0
 8000e2c:	b108      	cbz	r0, 8000e32 <main+0x16a>
 8000e2e:	b672      	cpsid	i
  while (1)
 8000e30:	e7fe      	b.n	8000e30 <main+0x168>
  htim1.Instance = TIM1;
 8000e32:	4d47      	ldr	r5, [pc, #284]	@ (8000f50 <main+0x288>)
  TIM_SlaveConfigTypeDef sSlaveConfig = {0};
 8000e34:	9007      	str	r0, [sp, #28]
  TIM_OC_InitTypeDef sConfigOC = {0};
 8000e36:	e9cd 000c 	strd	r0, r0, [sp, #48]	@ 0x30
 8000e3a:	e9cd 000e 	strd	r0, r0, [sp, #56]	@ 0x38
 8000e3e:	e9cd 0010 	strd	r0, r0, [sp, #64]	@ 0x40
  TIM_SlaveConfigTypeDef sSlaveConfig = {0};
 8000e42:	e9cd 0008 	strd	r0, r0, [sp, #32]
 8000e46:	e9cd 000a 	strd	r0, r0, [sp, #40]	@ 0x28
  TIM_MasterConfigTypeDef sMasterConfig = {0};
 8000e4a:	9005      	str	r0, [sp, #20]
  TIM_OC_InitTypeDef sConfigOC = {0};
 8000e4c:	9012      	str	r0, [sp, #72]	@ 0x48
  TIM_MasterConfigTypeDef sMasterConfig = {0};
 8000e4e:	9006      	str	r0, [sp, #24]
  TIM_BreakDeadTimeConfigTypeDef sBreakDeadTimeConfig = {0};
 8000e50:	4601      	mov	r1, r0
 8000e52:	463a      	mov	r2, r7
 8000e54:	a813      	add	r0, sp, #76	@ 0x4c
 8000e56:	f006 fafd 	bl	8007454 <memset>
  htim1.Instance = TIM1;
 8000e5a:	4b3e      	ldr	r3, [pc, #248]	@ (8000f54 <main+0x28c>)
  htim1.Init.RepetitionCounter = (REP_COUNTER);
 8000e5c:	616e      	str	r6, [r5, #20]
  htim1.Instance = TIM1;
 8000e5e:	602b      	str	r3, [r5, #0]
  htim1.Init.ClockDivision = TIM_CLOCKDIVISION_DIV2;
 8000e60:	f241 56f9 	movw	r6, #5625	@ 0x15f9
 8000e64:	f44f 7380 	mov.w	r3, #256	@ 0x100
  if (HAL_TIM_Base_Init(&htim1) != HAL_OK)
 8000e68:	4628      	mov	r0, r5
  htim1.Init.ClockDivision = TIM_CLOCKDIVISION_DIV2;
 8000e6a:	e9c5 6303 	strd	r6, r3, [r5, #12]
  htim1.Init.CounterMode = TIM_COUNTERMODE_CENTERALIGNED1;
 8000e6e:	60af      	str	r7, [r5, #8]
  htim1.Init.Prescaler = ((TIM_CLOCK_DIVIDER) - 1);
 8000e70:	606c      	str	r4, [r5, #4]
  htim1.Init.AutoReloadPreload = TIM_AUTORELOAD_PRELOAD_DISABLE;
 8000e72:	61ac      	str	r4, [r5, #24]
  if (HAL_TIM_Base_Init(&htim1) != HAL_OK)
 8000e74:	f003 ff96 	bl	8004da4 <HAL_TIM_Base_Init>
 8000e78:	b108      	cbz	r0, 8000e7e <main+0x1b6>
 8000e7a:	b672      	cpsid	i
  while (1)
 8000e7c:	e7fe      	b.n	8000e7c <main+0x1b4>
  if (HAL_TIM_PWM_Init(&htim1) != HAL_OK)
 8000e7e:	4628      	mov	r0, r5
 8000e80:	f004 f82a 	bl	8004ed8 <HAL_TIM_PWM_Init>
 8000e84:	b108      	cbz	r0, 8000e8a <main+0x1c2>
 8000e86:	b672      	cpsid	i
  while (1)
 8000e88:	e7fe      	b.n	8000e88 <main+0x1c0>
  sSlaveConfig.InputTrigger = TIM_TS_ITR1;
 8000e8a:	2006      	movs	r0, #6
 8000e8c:	2310      	movs	r3, #16
 8000e8e:	e9cd 0307 	strd	r0, r3, [sp, #28]
  if (HAL_TIM_SlaveConfigSynchro(&htim1, &sSlaveConfig) != HAL_OK)
 8000e92:	a907      	add	r1, sp, #28
 8000e94:	4628      	mov	r0, r5
 8000e96:	f004 fa7b 	bl	8005390 <HAL_TIM_SlaveConfigSynchro>
 8000e9a:	b108      	cbz	r0, 8000ea0 <main+0x1d8>
 8000e9c:	b672      	cpsid	i
  while (1)
 8000e9e:	e7fe      	b.n	8000e9e <main+0x1d6>
  sMasterConfig.MasterSlaveMode = TIM_MASTERSLAVEMODE_DISABLE;
 8000ea0:	e9cd 0005 	strd	r0, r0, [sp, #20]
  if (HAL_TIMEx_MasterConfigSynchronization(&htim1, &sMasterConfig) != HAL_OK)
 8000ea4:	a905      	add	r1, sp, #20
 8000ea6:	4628      	mov	r0, r5
 8000ea8:	f004 fafe 	bl	80054a8 <HAL_TIMEx_MasterConfigSynchronization>
 8000eac:	4602      	mov	r2, r0
 8000eae:	b108      	cbz	r0, 8000eb4 <main+0x1ec>
 8000eb0:	b672      	cpsid	i
  while (1)
 8000eb2:	e7fe      	b.n	8000eb2 <main+0x1ea>
  sConfigOC.OCMode = TIM_OCMODE_PWM1;
 8000eb4:	2360      	movs	r3, #96	@ 0x60
 8000eb6:	930c      	str	r3, [sp, #48]	@ 0x30
  if (HAL_TIM_PWM_ConfigChannel(&htim1, &sConfigOC, TIM_CHANNEL_1) != HAL_OK)
 8000eb8:	4628      	mov	r0, r5
  sConfigOC.Pulse = ((PWM_PERIOD_CYCLES) / 4);
 8000eba:	f640 23fc 	movw	r3, #2812	@ 0xafc
  if (HAL_TIM_PWM_ConfigChannel(&htim1, &sConfigOC, TIM_CHANNEL_1) != HAL_OK)
 8000ebe:	a90c      	add	r1, sp, #48	@ 0x30
  sConfigOC.OCPolarity = TIM_OCPOLARITY_HIGH;
 8000ec0:	e9cd 320d 	strd	r3, r2, [sp, #52]	@ 0x34
  sConfigOC.OCFastMode = TIM_OCFAST_DISABLE;
 8000ec4:	e9cd 220f 	strd	r2, r2, [sp, #60]	@ 0x3c
  sConfigOC.OCNIdleState = TIM_OCNIDLESTATE_RESET;
 8000ec8:	e9cd 2211 	strd	r2, r2, [sp, #68]	@ 0x44
  if (HAL_TIM_PWM_ConfigChannel(&htim1, &sConfigOC, TIM_CHANNEL_1) != HAL_OK)
 8000ecc:	f004 f95c 	bl	8005188 <HAL_TIM_PWM_ConfigChannel>
 8000ed0:	b108      	cbz	r0, 8000ed6 <main+0x20e>
 8000ed2:	b672      	cpsid	i
  while (1)
 8000ed4:	e7fe      	b.n	8000ed4 <main+0x20c>
  if (HAL_TIM_PWM_ConfigChannel(&htim1, &sConfigOC, TIM_CHANNEL_2) != HAL_OK)
 8000ed6:	481e      	ldr	r0, [pc, #120]	@ (8000f50 <main+0x288>)
 8000ed8:	2204      	movs	r2, #4
 8000eda:	a90c      	add	r1, sp, #48	@ 0x30
 8000edc:	f004 f954 	bl	8005188 <HAL_TIM_PWM_ConfigChannel>
 8000ee0:	b108      	cbz	r0, 8000ee6 <main+0x21e>
 8000ee2:	b672      	cpsid	i
  while (1)
 8000ee4:	e7fe      	b.n	8000ee4 <main+0x21c>
  if (HAL_TIM_PWM_ConfigChannel(&htim1, &sConfigOC, TIM_CHANNEL_3) != HAL_OK)
 8000ee6:	481a      	ldr	r0, [pc, #104]	@ (8000f50 <main+0x288>)
 8000ee8:	2208      	movs	r2, #8
 8000eea:	a90c      	add	r1, sp, #48	@ 0x30
 8000eec:	f004 f94c 	bl	8005188 <HAL_TIM_PWM_ConfigChannel>
 8000ef0:	b108      	cbz	r0, 8000ef6 <main+0x22e>
 8000ef2:	b672      	cpsid	i
  while (1)
 8000ef4:	e7fe      	b.n	8000ef4 <main+0x22c>
  sConfigOC.Pulse = (((PWM_PERIOD_CYCLES) / 2) - (HTMIN));
 8000ef6:	f241 53f8 	movw	r3, #5624	@ 0x15f8
 8000efa:	2270      	movs	r2, #112	@ 0x70
 8000efc:	e9cd 230c 	strd	r2, r3, [sp, #48]	@ 0x30
  if (HAL_TIM_PWM_ConfigChannel(&htim1, &sConfigOC, TIM_CHANNEL_4) != HAL_OK)
 8000f00:	4813      	ldr	r0, [pc, #76]	@ (8000f50 <main+0x288>)
 8000f02:	220c      	movs	r2, #12
 8000f04:	a90c      	add	r1, sp, #48	@ 0x30
 8000f06:	f004 f93f 	bl	8005188 <HAL_TIM_PWM_ConfigChannel>
 8000f0a:	4603      	mov	r3, r0
 8000f0c:	b108      	cbz	r0, 8000f12 <main+0x24a>
 8000f0e:	b672      	cpsid	i
  while (1)
 8000f10:	e7fe      	b.n	8000f10 <main+0x248>
  sBreakDeadTimeConfig.OffStateIDLEMode = TIM_OSSI_ENABLE;
 8000f12:	f44f 6100 	mov.w	r1, #2048	@ 0x800
 8000f16:	f44f 6280 	mov.w	r2, #1024	@ 0x400
 8000f1a:	e9cd 1213 	strd	r1, r2, [sp, #76]	@ 0x4c
  sBreakDeadTimeConfig.DeadTime = ((DEAD_TIME_COUNTS) / 2);
 8000f1e:	224c      	movs	r2, #76	@ 0x4c
  if (HAL_TIMEx_ConfigBreakDeadTime(&htim1, &sBreakDeadTimeConfig) != HAL_OK)
 8000f20:	480b      	ldr	r0, [pc, #44]	@ (8000f50 <main+0x288>)
  sBreakDeadTimeConfig.AutomaticOutput = TIM_AUTOMATICOUTPUT_DISABLE;
 8000f22:	931a      	str	r3, [sp, #104]	@ 0x68
  if (HAL_TIMEx_ConfigBreakDeadTime(&htim1, &sBreakDeadTimeConfig) != HAL_OK)
 8000f24:	eb0d 0102 	add.w	r1, sp, r2
  sBreakDeadTimeConfig.DeadTime = ((DEAD_TIME_COUNTS) / 2);
 8000f28:	e9cd 3215 	strd	r3, r2, [sp, #84]	@ 0x54
  sBreakDeadTimeConfig.BreakPolarity = TIM_BREAKPOLARITY_LOW;
 8000f2c:	e9cd 3317 	strd	r3, r3, [sp, #92]	@ 0x5c
  if (HAL_TIMEx_ConfigBreakDeadTime(&htim1, &sBreakDeadTimeConfig) != HAL_OK)
 8000f30:	f004 fafa 	bl	8005528 <HAL_TIMEx_ConfigBreakDeadTime>
 8000f34:	4604      	mov	r4, r0
 8000f36:	b178      	cbz	r0, 8000f58 <main+0x290>
 8000f38:	b672      	cpsid	i
  while (1)
 8000f3a:	e7fe      	b.n	8000f3a <main+0x272>
 8000f3c:	40023800 	.word	0x40023800
 8000f40:	40020800 	.word	0x40020800
 8000f44:	200006e0 	.word	0x200006e0
 8000f48:	40012000 	.word	0x40012000
 8000f4c:	0f000001 	.word	0x0f000001
 8000f50:	20000698 	.word	0x20000698
 8000f54:	40010000 	.word	0x40010000
  htim2.Instance = TIM2;
 8000f58:	4d48      	ldr	r5, [pc, #288]	@ (800107c <main+0x3b4>)
  HAL_TIM_MspPostInit(&htim1);
 8000f5a:	4849      	ldr	r0, [pc, #292]	@ (8001080 <main+0x3b8>)
 8000f5c:	f002 fc76 	bl	800384c <HAL_TIM_MspPostInit>
  htim2.Instance = TIM2;
 8000f60:	f04f 4380 	mov.w	r3, #1073741824	@ 0x40000000
  TIM_MasterConfigTypeDef sMasterConfig = {0};
 8000f64:	e9cd 440c 	strd	r4, r4, [sp, #48]	@ 0x30
  htim2.Init.CounterMode = TIM_COUNTERMODE_UP;
 8000f68:	e9c5 4401 	strd	r4, r4, [r5, #4]
  TIM_Encoder_InitTypeDef sConfig = {0};
 8000f6c:	9414      	str	r4, [sp, #80]	@ 0x50
  htim2.Init.ClockDivision = TIM_CLOCKDIVISION_DIV1;
 8000f6e:	612c      	str	r4, [r5, #16]
  htim2.Init.AutoReloadPreload = TIM_AUTORELOAD_PRELOAD_DISABLE;
 8000f70:	61ac      	str	r4, [r5, #24]
  TIM_Encoder_InitTypeDef sConfig = {0};
 8000f72:	9416      	str	r4, [sp, #88]	@ 0x58
 8000f74:	9418      	str	r4, [sp, #96]	@ 0x60
 8000f76:	941a      	str	r4, [sp, #104]	@ 0x68
  sConfig.IC1Selection = TIM_ICSELECTION_DIRECTTI;
 8000f78:	2601      	movs	r6, #1
  sConfig.IC1Filter = M1_ENC_IC_FILTER;
 8000f7a:	240c      	movs	r4, #12
  htim2.Instance = TIM2;
 8000f7c:	602b      	str	r3, [r5, #0]
  if (HAL_TIM_Encoder_Init(&htim2, &sConfig) != HAL_OK)
 8000f7e:	a913      	add	r1, sp, #76	@ 0x4c
  htim2.Init.Period = M1_PULSE_NBR;
 8000f80:	f640 73ff 	movw	r3, #4095	@ 0xfff
  sConfig.EncoderMode = TIM_ENCODERMODE_TI12;
 8000f84:	2703      	movs	r7, #3
  if (HAL_TIM_Encoder_Init(&htim2, &sConfig) != HAL_OK)
 8000f86:	4628      	mov	r0, r5
  htim2.Init.Period = M1_PULSE_NBR;
 8000f88:	60eb      	str	r3, [r5, #12]
  sConfig.IC1Selection = TIM_ICSELECTION_DIRECTTI;
 8000f8a:	9615      	str	r6, [sp, #84]	@ 0x54
  sConfig.IC1Filter = M1_ENC_IC_FILTER;
 8000f8c:	9417      	str	r4, [sp, #92]	@ 0x5c
  sConfig.IC2Selection = TIM_ICSELECTION_DIRECTTI;
 8000f8e:	9619      	str	r6, [sp, #100]	@ 0x64
  sConfig.IC2Filter = M1_ENC_IC_FILTER;
 8000f90:	941b      	str	r4, [sp, #108]	@ 0x6c
  sConfig.EncoderMode = TIM_ENCODERMODE_TI12;
 8000f92:	9713      	str	r7, [sp, #76]	@ 0x4c
  if (HAL_TIM_Encoder_Init(&htim2, &sConfig) != HAL_OK)
 8000f94:	f004 f838 	bl	8005008 <HAL_TIM_Encoder_Init>
 8000f98:	4603      	mov	r3, r0
 8000f9a:	b108      	cbz	r0, 8000fa0 <main+0x2d8>
 8000f9c:	b672      	cpsid	i
  while (1)
 8000f9e:	e7fe      	b.n	8000f9e <main+0x2d6>
  if (HAL_TIMEx_MasterConfigSynchronization(&htim2, &sMasterConfig) != HAL_OK)
 8000fa0:	a90c      	add	r1, sp, #48	@ 0x30
 8000fa2:	4628      	mov	r0, r5
  sMasterConfig.MasterSlaveMode = TIM_MASTERSLAVEMODE_DISABLE;
 8000fa4:	e9cd 330c 	strd	r3, r3, [sp, #48]	@ 0x30
  if (HAL_TIMEx_MasterConfigSynchronization(&htim2, &sMasterConfig) != HAL_OK)
 8000fa8:	f004 fa7e 	bl	80054a8 <HAL_TIMEx_MasterConfigSynchronization>
 8000fac:	4603      	mov	r3, r0
 8000fae:	b108      	cbz	r0, 8000fb4 <main+0x2ec>
 8000fb0:	b672      	cpsid	i
  while (1)
 8000fb2:	e7fe      	b.n	8000fb2 <main+0x2ea>
  huart2.Instance = USART2;
 8000fb4:	4833      	ldr	r0, [pc, #204]	@ (8001084 <main+0x3bc>)
  huart2.Init.BaudRate = 921600;
 8000fb6:	4a34      	ldr	r2, [pc, #208]	@ (8001088 <main+0x3c0>)
  huart2.Init.Parity = UART_PARITY_NONE;
 8000fb8:	6103      	str	r3, [r0, #16]
  huart2.Init.StopBits = UART_STOPBITS_1;
 8000fba:	e9c0 3302 	strd	r3, r3, [r0, #8]
  huart2.Init.OverSampling = UART_OVERSAMPLING_16;
 8000fbe:	e9c0 3306 	strd	r3, r3, [r0, #24]
  huart2.Init.BaudRate = 921600;
 8000fc2:	f44f 2361 	mov.w	r3, #921600	@ 0xe1000
  huart2.Init.Mode = UART_MODE_TX_RX;
 8000fc6:	6144      	str	r4, [r0, #20]
  huart2.Init.BaudRate = 921600;
 8000fc8:	e9c0 2300 	strd	r2, r3, [r0]
  if (HAL_UART_Init(&huart2) != HAL_OK)
 8000fcc:	f004 fad6 	bl	800557c <HAL_UART_Init>
 8000fd0:	4604      	mov	r4, r0
 8000fd2:	b108      	cbz	r0, 8000fd8 <main+0x310>
 8000fd4:	b672      	cpsid	i
  while (1)
 8000fd6:	e7fe      	b.n	8000fd6 <main+0x30e>
  MX_MotorControl_Init();
 8000fd8:	f001 f8b4 	bl	8002144 <MX_MotorControl_Init>
  HAL_NVIC_SetPriority(USART2_IRQn, 3, 1);
 8000fdc:	4632      	mov	r2, r6
 8000fde:	4639      	mov	r1, r7
 8000fe0:	2026      	movs	r0, #38	@ 0x26
 8000fe2:	f003 f971 	bl	80042c8 <HAL_NVIC_SetPriority>
  HAL_NVIC_EnableIRQ(USART2_IRQn);
 8000fe6:	2026      	movs	r0, #38	@ 0x26
 8000fe8:	f003 f9aa 	bl	8004340 <HAL_NVIC_EnableIRQ>
  HAL_NVIC_SetPriority(DMA1_Stream5_IRQn, 3, 0);
 8000fec:	4622      	mov	r2, r4
 8000fee:	4639      	mov	r1, r7
 8000ff0:	2010      	movs	r0, #16
 8000ff2:	f003 f969 	bl	80042c8 <HAL_NVIC_SetPriority>
  HAL_NVIC_EnableIRQ(DMA1_Stream5_IRQn);
 8000ff6:	2010      	movs	r0, #16
 8000ff8:	f003 f9a2 	bl	8004340 <HAL_NVIC_EnableIRQ>
  HAL_NVIC_SetPriority(ADC_IRQn, 2, 0);
 8000ffc:	4622      	mov	r2, r4
 8000ffe:	2102      	movs	r1, #2
 8001000:	2012      	movs	r0, #18
 8001002:	f003 f961 	bl	80042c8 <HAL_NVIC_SetPriority>
  HAL_NVIC_EnableIRQ(ADC_IRQn);
 8001006:	2012      	movs	r0, #18
 8001008:	f003 f99a 	bl	8004340 <HAL_NVIC_EnableIRQ>
  HAL_NVIC_SetPriority(TIM1_UP_TIM10_IRQn, 0, 0);
 800100c:	4622      	mov	r2, r4
 800100e:	4621      	mov	r1, r4
 8001010:	2019      	movs	r0, #25
 8001012:	f003 f959 	bl	80042c8 <HAL_NVIC_SetPriority>
  HAL_NVIC_EnableIRQ(TIM1_UP_TIM10_IRQn);
 8001016:	2019      	movs	r0, #25
 8001018:	f003 f992 	bl	8004340 <HAL_NVIC_EnableIRQ>
  HAL_NVIC_SetPriority(TIM1_BRK_TIM9_IRQn, 4, 1);
 800101c:	4632      	mov	r2, r6
 800101e:	2104      	movs	r1, #4
 8001020:	2018      	movs	r0, #24
 8001022:	f003 f951 	bl	80042c8 <HAL_NVIC_SetPriority>
  HAL_NVIC_EnableIRQ(TIM1_BRK_TIM9_IRQn);
 8001026:	2018      	movs	r0, #24
 8001028:	f003 f98a 	bl	8004340 <HAL_NVIC_EnableIRQ>
  HAL_NVIC_SetPriority(TIM2_IRQn, 3, 0);
 800102c:	4622      	mov	r2, r4
 800102e:	4639      	mov	r1, r7
 8001030:	201c      	movs	r0, #28
 8001032:	f003 f949 	bl	80042c8 <HAL_NVIC_SetPriority>
  HAL_NVIC_EnableIRQ(TIM2_IRQn);
 8001036:	201c      	movs	r0, #28
 8001038:	f003 f982 	bl	8004340 <HAL_NVIC_EnableIRQ>
  HAL_NVIC_SetPriority(EXTI15_10_IRQn, 3, 0);
 800103c:	4622      	mov	r2, r4
 800103e:	4639      	mov	r1, r7
 8001040:	2028      	movs	r0, #40	@ 0x28
 8001042:	f003 f941 	bl	80042c8 <HAL_NVIC_SetPriority>
  HAL_NVIC_EnableIRQ(EXTI15_10_IRQn);
 8001046:	2028      	movs	r0, #40	@ 0x28
 8001048:	f003 f97a 	bl	8004340 <HAL_NVIC_EnableIRQ>
  HAL_GPIO_WritePin(GPIOC, GPIO_PIN_6, GPIO_PIN_RESET);   //B
 800104c:	480f      	ldr	r0, [pc, #60]	@ (800108c <main+0x3c4>)
 800104e:	4622      	mov	r2, r4
 8001050:	2140      	movs	r1, #64	@ 0x40
 8001052:	f003 fb49 	bl	80046e8 <HAL_GPIO_WritePin>
  HAL_GPIO_WritePin(GPIOC, GPIO_PIN_7, GPIO_PIN_SET); //G
 8001056:	480d      	ldr	r0, [pc, #52]	@ (800108c <main+0x3c4>)
 8001058:	4632      	mov	r2, r6
 800105a:	2180      	movs	r1, #128	@ 0x80
 800105c:	f003 fb44 	bl	80046e8 <HAL_GPIO_WritePin>
  HAL_GPIO_WritePin(GPIOC, GPIO_PIN_8, GPIO_PIN_RESET);   //R
 8001060:	480a      	ldr	r0, [pc, #40]	@ (800108c <main+0x3c4>)
 8001062:	4622      	mov	r2, r4
 8001064:	f44f 7180 	mov.w	r1, #256	@ 0x100
 8001068:	f003 fb3e 	bl	80046e8 <HAL_GPIO_WritePin>
  HAL_GPIO_WritePin(GPIOC, GPIO_PIN_14, GPIO_PIN_SET);   // DRV Enable
 800106c:	4807      	ldr	r0, [pc, #28]	@ (800108c <main+0x3c4>)
 800106e:	4632      	mov	r2, r6
 8001070:	f44f 4180 	mov.w	r1, #16384	@ 0x4000
 8001074:	f003 fb38 	bl	80046e8 <HAL_GPIO_WritePin>
  while (1)
 8001078:	e7fe      	b.n	8001078 <main+0x3b0>
 800107a:	bf00      	nop
 800107c:	20000650 	.word	0x20000650
 8001080:	20000698 	.word	0x20000698
 8001084:	20000608 	.word	0x20000608
 8001088:	40004400 	.word	0x40004400
 800108c:	40020800 	.word	0x40020800

08001090 <Error_Handler>:
 8001090:	b672      	cpsid	i
  while (1)
 8001092:	e7fe      	b.n	8001092 <Error_Handler+0x2>

08001094 <MC_StartMotor1>:
  *
  * @retval returns true if the command is successfully executed, false otherwise.
  */
__weak bool MC_StartMotor1(void)
{
  return (MCI_StartMotor(pMCI[M1]));
 8001094:	4b01      	ldr	r3, [pc, #4]	@ (800109c <MC_StartMotor1+0x8>)
 8001096:	6818      	ldr	r0, [r3, #0]
 8001098:	f000 b890 	b.w	80011bc <MCI_StartMotor>
 800109c:	20001928 	.word	0x20001928

080010a0 <MC_StopMotor1>:
  *
  * @retval returns true if the command is successfully executed, false otherwise.
  */
__weak bool MC_StopMotor1(void)
{
  return (MCI_StopMotor(pMCI[M1]));
 80010a0:	4b01      	ldr	r3, [pc, #4]	@ (80010a8 <MC_StopMotor1+0x8>)
 80010a2:	6818      	ldr	r0, [r3, #0]
 80010a4:	f000 b8ba 	b.w	800121c <MCI_StopMotor>
 80010a8:	20001928 	.word	0x20001928

080010ac <MC_GetSTMStateMotor1>:
/**
 * @brief returns the current state of Motor 1 state machine
 */
__weak MCI_State_t MC_GetSTMStateMotor1(void)
{
  return (MCI_GetSTMState(pMCI[M1]));
 80010ac:	4b01      	ldr	r3, [pc, #4]	@ (80010b4 <MC_GetSTMStateMotor1+0x8>)
 80010ae:	6818      	ldr	r0, [r3, #0]
 80010b0:	f000 b87e 	b.w	80011b0 <MCI_GetSTMState>
 80010b4:	20001928 	.word	0x20001928

080010b8 <MC_ProfilerCommand>:
 * @brief Not implemented MC_Profiler function.
 *  */ //cstat !MISRAC2012-Rule-2.7 !RED-unused-param  !MISRAC2012-Rule-2.7  !MISRAC2012-Rule-8.13
__weak uint8_t MC_ProfilerCommand(uint16_t rxLength, uint8_t *rxBuffer, int16_t txSyncFreeSpace, uint16_t *txLength, uint8_t *txBuffer)
{
  return (MCP_CMD_UNKNOWN);
}
 80010b8:	2002      	movs	r0, #2
 80010ba:	4770      	bx	lr

080010bc <MC_APP_BootHook>:
   */

/* USER CODE BEGIN BootHook */

/* USER CODE END BootHook */
}
 80010bc:	4770      	bx	lr
 80010be:	bf00      	nop

080010c0 <MC_APP_PostMediumFrequencyHook_M1>:
 * @brief Hook function called right after the Medium Frequency Task for Motor 1.
 *
 *
 *
 */
__weak void MC_APP_PostMediumFrequencyHook_M1(void)
 80010c0:	4770      	bx	lr
 80010c2:	bf00      	nop

080010c4 <MCI_Init>:
  *         (only present if position control is enabled)
  * @param  pPWMHandle pointer to the PWM & current feedback component to be used by the MCI.
  */
__weak void MCI_Init(MCI_Handle_t *pHandle, SpeednTorqCtrl_Handle_t *pSTC, pFOCVars_t pFOCVars,
                     PWMC_Handle_t *pPWMHandle )
{
 80010c4:	b410      	push	{r4}
    pHandle->pSTC = pSTC;
    pHandle->pFOCVars = pFOCVars;
    pHandle->pPWM = pPWMHandle;

    /* Buffer related initialization */
    pHandle->lastCommand = MCI_NOCOMMANDSYET;
 80010c6:	2400      	movs	r4, #0
    pHandle->hFinalTorque = 0;
    pHandle->hDurationms = 0;
    pHandle->CommandState = MCI_BUFFER_EMPTY;
    pHandle->DirectCommand = MCI_NO_COMMAND;
    pHandle->State = IDLE;
    pHandle->CurrentFaults = MC_NO_FAULTS;
 80010c8:	e9c0 4407 	strd	r4, r4, [r0, #28]
    pHandle->lastCommand = MCI_NOCOMMANDSYET;
 80010cc:	7304      	strb	r4, [r0, #12]
    pHandle->hFinalSpeed = 0;
 80010ce:	f8c0 400e 	str.w	r4, [r0, #14]
    pHandle->CommandState = MCI_BUFFER_EMPTY;
 80010d2:	f880 4024 	strb.w	r4, [r0, #36]	@ 0x24
    pHandle->pFOCVars = pFOCVars;
 80010d6:	e9c0 1200 	strd	r1, r2, [r0]
    pHandle->PastFaults = MC_NO_FAULTS;
#ifdef NULL_PTR_CHECK_MC_INT
  }
#endif
}
 80010da:	f85d 4b04 	ldr.w	r4, [sp], #4
    pHandle->pPWM = pPWMHandle;
 80010de:	6083      	str	r3, [r0, #8]
}
 80010e0:	4770      	bx	lr
 80010e2:	bf00      	nop

080010e4 <MCI_ExecSpeedRamp>:
    /* Nothing to do */
  }
  else
  {
#endif
    pHandle->lastCommand = MCI_CMD_EXECSPEEDRAMP;
 80010e4:	f04f 0c01 	mov.w	ip, #1
    pHandle->hFinalSpeed = hFinalSpeed;
    pHandle->hDurationms = hDurationms;
    pHandle->CommandState = MCI_COMMAND_NOT_ALREADY_EXECUTED;
 80010e8:	f240 3301 	movw	r3, #769	@ 0x301
    pHandle->lastCommand = MCI_CMD_EXECSPEEDRAMP;
 80010ec:	f880 c00c 	strb.w	ip, [r0, #12]
    pHandle->hFinalSpeed = hFinalSpeed;
 80010f0:	81c1      	strh	r1, [r0, #14]
    pHandle->hDurationms = hDurationms;
 80010f2:	8382      	strh	r2, [r0, #28]
    pHandle->CommandState = MCI_COMMAND_NOT_ALREADY_EXECUTED;
 80010f4:	8483      	strh	r3, [r0, #36]	@ 0x24
    pHandle->LastModalitySetByUser = MCM_SPEED_MODE;

#ifdef NULL_PTR_CHECK_MC_INT
  }
#endif
}
 80010f6:	4770      	bx	lr

080010f8 <MCI_ExecTorqueRamp>:
    /* Nothing to do */
  }
  else
  {
#endif
    pHandle->lastCommand = MCI_CMD_EXECTORQUERAMP;
 80010f8:	f04f 0c02 	mov.w	ip, #2
    pHandle->hFinalTorque = hFinalTorque;
    pHandle->hDurationms = hDurationms;
    pHandle->CommandState = MCI_COMMAND_NOT_ALREADY_EXECUTED;
 80010fc:	f240 4301 	movw	r3, #1025	@ 0x401
    pHandle->lastCommand = MCI_CMD_EXECTORQUERAMP;
 8001100:	f880 c00c 	strb.w	ip, [r0, #12]
    pHandle->hFinalTorque = hFinalTorque;
 8001104:	8201      	strh	r1, [r0, #16]
    pHandle->hDurationms = hDurationms;
 8001106:	8382      	strh	r2, [r0, #28]
    pHandle->CommandState = MCI_COMMAND_NOT_ALREADY_EXECUTED;
 8001108:	8483      	strh	r3, [r0, #36]	@ 0x24
    pHandle->LastModalitySetByUser = MCM_TORQUE_MODE;
#ifdef NULL_PTR_CHECK_MC_INT
  }
#endif
}
 800110a:	4770      	bx	lr

0800110c <MCI_SetCurrentReferences>:
  * function.

  @sa MCI_SetCurrentReferences_F
  */
__weak void MCI_SetCurrentReferences(MCI_Handle_t *pHandle, qd_t Iqdref)
{
 800110c:	b082      	sub	sp, #8
  }
  else
  {
#endif

    pHandle->lastCommand = MCI_CMD_SETCURRENTREFERENCES;
 800110e:	2203      	movs	r2, #3
    pHandle->Iqdref.q = Iqdref.q;
    pHandle->Iqdref.d = Iqdref.d;
    pHandle->CommandState = MCI_COMMAND_NOT_ALREADY_EXECUTED;
 8001110:	f240 4301 	movw	r3, #1025	@ 0x401
    pHandle->lastCommand = MCI_CMD_SETCURRENTREFERENCES;
 8001114:	7302      	strb	r2, [r0, #12]
    pHandle->Iqdref.q = Iqdref.q;
 8001116:	f8c0 1012 	str.w	r1, [r0, #18]
    pHandle->CommandState = MCI_COMMAND_NOT_ALREADY_EXECUTED;
 800111a:	8483      	strh	r3, [r0, #36]	@ 0x24
    pHandle->LastModalitySetByUser = MCM_TORQUE_MODE;
#ifdef NULL_PTR_CHECK_MC_INT
  }
#endif
}
 800111c:	b002      	add	sp, #8
 800111e:	4770      	bx	lr

08001120 <MCI_FaultProcessing>:
  }
  else
  {
#endif
    /* Set current errors */
    pHandle->CurrentFaults = (pHandle->CurrentFaults | hSetErrors ) & (~hResetErrors);
 8001120:	8c03      	ldrh	r3, [r0, #32]
    pHandle->PastFaults |= hSetErrors;
 8001122:	f8b0 c022 	ldrh.w	ip, [r0, #34]	@ 0x22
    pHandle->CurrentFaults = (pHandle->CurrentFaults | hSetErrors ) & (~hResetErrors);
 8001126:	430b      	orrs	r3, r1
 8001128:	ea23 0302 	bic.w	r3, r3, r2
    pHandle->PastFaults |= hSetErrors;
 800112c:	ea41 010c 	orr.w	r1, r1, ip
    pHandle->CurrentFaults = (pHandle->CurrentFaults | hSetErrors ) & (~hResetErrors);
 8001130:	8403      	strh	r3, [r0, #32]
    pHandle->PastFaults |= hSetErrors;
 8001132:	8441      	strh	r1, [r0, #34]	@ 0x22
#ifdef NULL_PTR_CHECK_MC_INT
  }
#endif
}
 8001134:	4770      	bx	lr
 8001136:	bf00      	nop

08001138 <MCI_ExecBufferedCommands>:
    /* Nothing to do */
  }
  else
  {
#endif
    if ( pHandle->CommandState == MCI_COMMAND_NOT_ALREADY_EXECUTED )
 8001138:	f890 3024 	ldrb.w	r3, [r0, #36]	@ 0x24
 800113c:	2b01      	cmp	r3, #1
 800113e:	d000      	beq.n	8001142 <MCI_ExecBufferedCommands+0xa>
 8001140:	4770      	bx	lr
{
 8001142:	b510      	push	{r4, lr}
    {
      bool commandHasBeenExecuted = false;
      switch (pHandle->lastCommand)
 8001144:	7b02      	ldrb	r2, [r0, #12]
 8001146:	2a02      	cmp	r2, #2
 8001148:	4604      	mov	r4, r0
 800114a:	d007      	beq.n	800115c <MCI_ExecBufferedCommands+0x24>
 800114c:	2a03      	cmp	r2, #3
 800114e:	d028      	beq.n	80011a2 <MCI_ExecBufferedCommands+0x6a>
 8001150:	2a01      	cmp	r2, #1
 8001152:	d017      	beq.n	8001184 <MCI_ExecBufferedCommands+0x4c>
      {
        pHandle->CommandState = MCI_COMMAND_EXECUTED_SUCCESSFULLY;
      }
      else
      {
        pHandle->CommandState = MCI_COMMAND_EXECUTED_UNSUCCESSFULLY;
 8001154:	2303      	movs	r3, #3
 8001156:	f884 3024 	strb.w	r3, [r4, #36]	@ 0x24
      }
    }
#ifdef NULL_PTR_CHECK_MC_INT
  }
#endif
}
 800115a:	bd10      	pop	{r4, pc}
          pHandle->pFOCVars->bDriveInput = INTERNAL;
 800115c:	6843      	ldr	r3, [r0, #4]
 800115e:	2200      	movs	r2, #0
 8001160:	f883 2024 	strb.w	r2, [r3, #36]	@ 0x24
          STC_SetControlMode(pHandle->pSTC, MCM_TORQUE_MODE);
 8001164:	6800      	ldr	r0, [r0, #0]
 8001166:	2104      	movs	r1, #4
 8001168:	f005 fd1c 	bl	8006ba4 <STC_SetControlMode>
          commandHasBeenExecuted = STC_ExecRamp(pHandle->pSTC, pHandle->hFinalTorque, pHandle->hDurationms);
 800116c:	8ba2      	ldrh	r2, [r4, #28]
 800116e:	f9b4 1010 	ldrsh.w	r1, [r4, #16]
 8001172:	6820      	ldr	r0, [r4, #0]
 8001174:	f005 fd1a 	bl	8006bac <STC_ExecRamp>
      if (commandHasBeenExecuted)
 8001178:	2800      	cmp	r0, #0
 800117a:	d0eb      	beq.n	8001154 <MCI_ExecBufferedCommands+0x1c>
        pHandle->CommandState = MCI_COMMAND_EXECUTED_SUCCESSFULLY;
 800117c:	2302      	movs	r3, #2
 800117e:	f884 3024 	strb.w	r3, [r4, #36]	@ 0x24
}
 8001182:	bd10      	pop	{r4, pc}
          pHandle->pFOCVars->bDriveInput = INTERNAL;
 8001184:	6843      	ldr	r3, [r0, #4]
 8001186:	2200      	movs	r2, #0
 8001188:	f883 2024 	strb.w	r2, [r3, #36]	@ 0x24
          STC_SetControlMode(pHandle->pSTC, MCM_SPEED_MODE);
 800118c:	6800      	ldr	r0, [r0, #0]
 800118e:	2103      	movs	r1, #3
 8001190:	f005 fd08 	bl	8006ba4 <STC_SetControlMode>
          commandHasBeenExecuted = STC_ExecRamp(pHandle->pSTC, pHandle->hFinalSpeed, pHandle->hDurationms);
 8001194:	8ba2      	ldrh	r2, [r4, #28]
 8001196:	f9b4 100e 	ldrsh.w	r1, [r4, #14]
 800119a:	6820      	ldr	r0, [r4, #0]
 800119c:	f005 fd06 	bl	8006bac <STC_ExecRamp>
          break;
 80011a0:	e7ea      	b.n	8001178 <MCI_ExecBufferedCommands+0x40>
          pHandle->pFOCVars->bDriveInput = EXTERNAL;
 80011a2:	6842      	ldr	r2, [r0, #4]
 80011a4:	f882 3024 	strb.w	r3, [r2, #36]	@ 0x24
          pHandle->pFOCVars->Iqdref = pHandle->Iqdref;
 80011a8:	f8d0 3012 	ldr.w	r3, [r0, #18]
 80011ac:	6113      	str	r3, [r2, #16]
      if (commandHasBeenExecuted)
 80011ae:	e7e5      	b.n	800117c <MCI_ExecBufferedCommands+0x44>

080011b0 <MCI_GetSTMState>:
#ifdef NULL_PTR_CHECK_MC_INT
  return ((MC_NULL == pHandle) ? FAULT_NOW : pHandle->State);
#else
  return (pHandle->State);
#endif
}
 80011b0:	7fc0      	ldrb	r0, [r0, #31]
 80011b2:	4770      	bx	lr

080011b4 <MCI_GetOccurredFaults>:
#ifdef NULL_PTR_CHECK_MC_INT
  return ((MC_NULL == pHandle) ? MC_SW_ERROR : (uint16_t)pHandle->PastFaults);
#else
  return ((uint16_t)pHandle->PastFaults);
#endif
}
 80011b4:	8c40      	ldrh	r0, [r0, #34]	@ 0x22
 80011b6:	4770      	bx	lr

080011b8 <MCI_GetCurrentFaults>:
#ifdef NULL_PTR_CHECK_MC_INT
  return ((MC_NULL == pHandle) ? MC_SW_ERROR : (uint16_t)pHandle->CurrentFaults);
#else
  return ((uint16_t)pHandle->CurrentFaults);
#endif
}
 80011b8:	8c00      	ldrh	r0, [r0, #32]
 80011ba:	4770      	bx	lr

080011bc <MCI_StartMotor>:
{
 80011bc:	b510      	push	{r4, lr}
 80011be:	4604      	mov	r4, r0
    if ((IDLE == MCI_GetSTMState(pHandle)) &&
 80011c0:	f7ff fff6 	bl	80011b0 <MCI_GetSTMState>
 80011c4:	b108      	cbz	r0, 80011ca <MCI_StartMotor+0xe>
  bool retVal = false;
 80011c6:	2000      	movs	r0, #0
}
 80011c8:	bd10      	pop	{r4, pc}
        (MC_NO_FAULTS == MCI_GetOccurredFaults(pHandle)) &&
 80011ca:	4620      	mov	r0, r4
 80011cc:	f7ff fff2 	bl	80011b4 <MCI_GetOccurredFaults>
    if ((IDLE == MCI_GetSTMState(pHandle)) &&
 80011d0:	2800      	cmp	r0, #0
 80011d2:	d1f8      	bne.n	80011c6 <MCI_StartMotor+0xa>
        (MC_NO_FAULTS == MCI_GetCurrentFaults(pHandle)))
 80011d4:	4620      	mov	r0, r4
 80011d6:	f7ff ffef 	bl	80011b8 <MCI_GetCurrentFaults>
        (MC_NO_FAULTS == MCI_GetOccurredFaults(pHandle)) &&
 80011da:	2800      	cmp	r0, #0
 80011dc:	d1f3      	bne.n	80011c6 <MCI_StartMotor+0xa>
      pHandle->DirectCommand = MCI_START;
 80011de:	2001      	movs	r0, #1
 80011e0:	77a0      	strb	r0, [r4, #30]
      pHandle->CommandState = MCI_COMMAND_NOT_ALREADY_EXECUTED;
 80011e2:	f884 0024 	strb.w	r0, [r4, #36]	@ 0x24
}
 80011e6:	bd10      	pop	{r4, pc}

080011e8 <MCI_StartWithPolarizationMotor>:
{
 80011e8:	b510      	push	{r4, lr}
 80011ea:	4604      	mov	r4, r0
    if ((IDLE == MCI_GetSTMState(pHandle)) &&
 80011ec:	f7ff ffe0 	bl	80011b0 <MCI_GetSTMState>
 80011f0:	b108      	cbz	r0, 80011f6 <MCI_StartWithPolarizationMotor+0xe>
  bool retVal = true;
 80011f2:	2001      	movs	r0, #1
}
 80011f4:	bd10      	pop	{r4, pc}
        (MC_NO_FAULTS == MCI_GetOccurredFaults(pHandle)) &&
 80011f6:	4620      	mov	r0, r4
 80011f8:	f7ff ffdc 	bl	80011b4 <MCI_GetOccurredFaults>
    if ((IDLE == MCI_GetSTMState(pHandle)) &&
 80011fc:	2800      	cmp	r0, #0
 80011fe:	d1f8      	bne.n	80011f2 <MCI_StartWithPolarizationMotor+0xa>
        (MC_NO_FAULTS == MCI_GetCurrentFaults(pHandle)))
 8001200:	4620      	mov	r0, r4
 8001202:	f7ff ffd9 	bl	80011b8 <MCI_GetCurrentFaults>
        (MC_NO_FAULTS == MCI_GetOccurredFaults(pHandle)) &&
 8001206:	2800      	cmp	r0, #0
 8001208:	d1f3      	bne.n	80011f2 <MCI_StartWithPolarizationMotor+0xa>
      pHandle->DirectCommand = MCI_START;
 800120a:	2201      	movs	r2, #1
      pHandle->pPWM->offsetCalibStatus = false;
 800120c:	68a1      	ldr	r1, [r4, #8]
      pHandle->DirectCommand = MCI_START;
 800120e:	77a2      	strb	r2, [r4, #30]
      pHandle->CommandState = MCI_COMMAND_NOT_ALREADY_EXECUTED;
 8001210:	f884 2024 	strb.w	r2, [r4, #36]	@ 0x24
      pHandle->pPWM->offsetCalibStatus = false;
 8001214:	f881 0081 	strb.w	r0, [r1, #129]	@ 0x81
}
 8001218:	bd10      	pop	{r4, pc}
 800121a:	bf00      	nop

0800121c <MCI_StopMotor>:
{
 800121c:	b538      	push	{r3, r4, r5, lr}
 800121e:	4605      	mov	r5, r0
    State = MCI_GetSTMState(pHandle);
 8001220:	f7ff ffc6 	bl	80011b0 <MCI_GetSTMState>
    if ((IDLE == State) || (ICLWAIT == State))
 8001224:	4604      	mov	r4, r0
 8001226:	b118      	cbz	r0, 8001230 <MCI_StopMotor+0x14>
 8001228:	f1b0 040c 	subs.w	r4, r0, #12
 800122c:	bf18      	it	ne
 800122e:	2401      	movne	r4, #1
    if ((MC_NO_FAULTS == MCI_GetOccurredFaults(pHandle)) &&
 8001230:	4628      	mov	r0, r5
 8001232:	f7ff ffbf 	bl	80011b4 <MCI_GetOccurredFaults>
 8001236:	b110      	cbz	r0, 800123e <MCI_StopMotor+0x22>
  bool retVal = false;
 8001238:	2400      	movs	r4, #0
}
 800123a:	4620      	mov	r0, r4
 800123c:	bd38      	pop	{r3, r4, r5, pc}
        (MC_NO_FAULTS == MCI_GetCurrentFaults(pHandle)) &&
 800123e:	4628      	mov	r0, r5
 8001240:	f7ff ffba 	bl	80011b8 <MCI_GetCurrentFaults>
    if ((MC_NO_FAULTS == MCI_GetOccurredFaults(pHandle)) &&
 8001244:	2800      	cmp	r0, #0
 8001246:	d1f7      	bne.n	8001238 <MCI_StopMotor+0x1c>
        (MC_NO_FAULTS == MCI_GetCurrentFaults(pHandle)) &&
 8001248:	2c00      	cmp	r4, #0
 800124a:	d0f5      	beq.n	8001238 <MCI_StopMotor+0x1c>
      pHandle->DirectCommand = MCI_STOP;
 800124c:	2305      	movs	r3, #5
 800124e:	77ab      	strb	r3, [r5, #30]
      retVal = true;
 8001250:	e7f3      	b.n	800123a <MCI_StopMotor+0x1e>
 8001252:	bf00      	nop

08001254 <MCI_FaultAcknowledged>:
{
 8001254:	b510      	push	{r4, lr}
 8001256:	4604      	mov	r4, r0
    if ((FAULT_OVER == MCI_GetSTMState(pHandle)) && (MC_NO_FAULTS == MCI_GetCurrentFaults(pHandle)))
 8001258:	f7ff ffaa 	bl	80011b0 <MCI_GetSTMState>
 800125c:	280b      	cmp	r0, #11
 800125e:	d001      	beq.n	8001264 <MCI_FaultAcknowledged+0x10>
  bool reVal = false;
 8001260:	2000      	movs	r0, #0
}
 8001262:	bd10      	pop	{r4, pc}
    if ((FAULT_OVER == MCI_GetSTMState(pHandle)) && (MC_NO_FAULTS == MCI_GetCurrentFaults(pHandle)))
 8001264:	4620      	mov	r0, r4
 8001266:	f7ff ffa7 	bl	80011b8 <MCI_GetCurrentFaults>
 800126a:	2800      	cmp	r0, #0
 800126c:	d1f8      	bne.n	8001260 <MCI_FaultAcknowledged+0xc>
      pHandle->DirectCommand = MCI_ACK_FAULTS;
 800126e:	2302      	movs	r3, #2
 8001270:	77a3      	strb	r3, [r4, #30]
      pHandle->PastFaults = MC_NO_FAULTS;
 8001272:	8460      	strh	r0, [r4, #34]	@ 0x22
      reVal = true;
 8001274:	2001      	movs	r0, #1
}
 8001276:	bd10      	pop	{r4, pc}

08001278 <MCI_GetFaultState>:
    LocalFaultState = MC_SW_ERROR | (MC_SW_ERROR << 16);
  }
  else
  {
#endif
    LocalFaultState = (uint32_t)(pHandle->PastFaults);
 8001278:	8c43      	ldrh	r3, [r0, #34]	@ 0x22
    LocalFaultState |= (uint32_t)(pHandle->CurrentFaults) << 16;
 800127a:	8c00      	ldrh	r0, [r0, #32]
#ifdef NULL_PTR_CHECK_MC_INT
  }
#endif
  return (LocalFaultState);
}
 800127c:	ea43 4000 	orr.w	r0, r3, r0, lsl #16
 8001280:	4770      	bx	lr
 8001282:	bf00      	nop

08001284 <MCI_GetControlMode>:
#ifdef NULL_PTR_CHECK_MC_INT
  return ((MC_NULL == pHandle) ? MCM_TORQUE_MODE : pHandle->LastModalitySetByUser);
#else
  return (pHandle->LastModalitySetByUser);
#endif
}
 8001284:	f890 0025 	ldrb.w	r0, [r0, #37]	@ 0x25
 8001288:	4770      	bx	lr
 800128a:	bf00      	nop

0800128c <MCI_GetLastRampFinalSpeed>:
  }
  return (retVal);
#else
  return (pHandle->hFinalSpeed);
#endif
}
 800128c:	f9b0 000e 	ldrsh.w	r0, [r0, #14]
 8001290:	4770      	bx	lr
 8001292:	bf00      	nop

08001294 <MCI_GetLastRampFinalTorque>:
  }
  return (retVal);
#else
  return (pHandle->hFinalTorque);
#endif
}
 8001294:	f9b0 0010 	ldrsh.w	r0, [r0, #16]
 8001298:	4770      	bx	lr
 800129a:	bf00      	nop

0800129c <MCI_GetLastRampFinalDuration>:
  }
  return (retVal);
#else
  return (pHandle->hDurationms);
#endif
}
 800129c:	8b80      	ldrh	r0, [r0, #28]
 800129e:	4770      	bx	lr

080012a0 <MCI_StopRamp>:
    /* Nothing to do */
  }
  else
  {
#endif
    STC_StopRamp(pHandle->pSTC);
 80012a0:	6800      	ldr	r0, [r0, #0]
 80012a2:	f005 bcc3 	b.w	8006c2c <STC_StopRamp>
 80012a6:	bf00      	nop

080012a8 <MCI_GetAvrgMecSpeedUnit>:
  *         the unit defined by #SPEED_UNIT and related to the sensor actually
  *         used by FOC algorithm
  * @param  pHandle Pointer on the component instance to work on.
  */
__weak int16_t MCI_GetAvrgMecSpeedUnit(MCI_Handle_t *pHandle)
{
 80012a8:	b508      	push	{r3, lr}
    temp_speed = 0;
  }
  else
  {
#endif
    SpeednPosFdbk_Handle_t * SpeedSensor = STC_GetSpeedSensor(pHandle->pSTC);
 80012aa:	6800      	ldr	r0, [r0, #0]
 80012ac:	f005 fc68 	bl	8006b80 <STC_GetSpeedSensor>
    temp_speed = SPD_GetAvrgMecSpeedUnit(SpeedSensor);
#ifdef NULL_PTR_CHECK_MC_INT
  }
#endif
  return (temp_speed);
}
 80012b0:	e8bd 4008 	ldmia.w	sp!, {r3, lr}
    temp_speed = SPD_GetAvrgMecSpeedUnit(SpeedSensor);
 80012b4:	f005 bc04 	b.w	8006ac0 <SPD_GetAvrgMecSpeedUnit>

080012b8 <MCI_GetMecSpeedRefUnit>:
__weak int16_t MCI_GetMecSpeedRefUnit(MCI_Handle_t *pHandle)
{
#ifdef NULL_PTR_CHECK_MC_INT
  return ((MC_NULL == pHandle) ? 0 : STC_GetMecSpeedRefUnit(pHandle->pSTC));
#else
  return (STC_GetMecSpeedRefUnit(pHandle->pSTC));
 80012b8:	6800      	ldr	r0, [r0, #0]
 80012ba:	f005 bc6b 	b.w	8006b94 <STC_GetMecSpeedRefUnit>
 80012be:	bf00      	nop

080012c0 <MCI_GetIab>:
  {
    tempVal = pHandle->pFOCVars->Iab;
  }
  return (tempVal);
#else
  return (pHandle->pFOCVars->Iab);
 80012c0:	6842      	ldr	r2, [r0, #4]
 80012c2:	6810      	ldr	r0, [r2, #0]
 80012c4:	2300      	movs	r3, #0
 80012c6:	b282      	uxth	r2, r0
 80012c8:	f362 030f 	bfi	r3, r2, #0, #16
 80012cc:	0c00      	lsrs	r0, r0, #16
 80012ce:	f360 431f 	bfi	r3, r0, #16, #16
{
 80012d2:	b082      	sub	sp, #8
#endif
}
 80012d4:	4618      	mov	r0, r3
 80012d6:	b002      	add	sp, #8
 80012d8:	4770      	bx	lr
 80012da:	bf00      	nop

080012dc <MCI_GetIalphabeta>:
  {
    tempVal = pHandle->pFOCVars->Ialphabeta;
  }
  return (tempVal);
#else
  return (pHandle->pFOCVars->Ialphabeta);
 80012dc:	6842      	ldr	r2, [r0, #4]
 80012de:	6850      	ldr	r0, [r2, #4]
 80012e0:	2300      	movs	r3, #0
 80012e2:	b282      	uxth	r2, r0
 80012e4:	f362 030f 	bfi	r3, r2, #0, #16
 80012e8:	0c00      	lsrs	r0, r0, #16
 80012ea:	f360 431f 	bfi	r3, r0, #16, #16
{
 80012ee:	b082      	sub	sp, #8
#endif
}
 80012f0:	4618      	mov	r0, r3
 80012f2:	b002      	add	sp, #8
 80012f4:	4770      	bx	lr
 80012f6:	bf00      	nop

080012f8 <MCI_GetIqd>:
  {
    tempVal = pHandle->pFOCVars->Iqd;
  }
  return (tempVal);
#else
  return (pHandle->pFOCVars->Iqd);
 80012f8:	6842      	ldr	r2, [r0, #4]
 80012fa:	68d0      	ldr	r0, [r2, #12]
 80012fc:	2300      	movs	r3, #0
 80012fe:	b282      	uxth	r2, r0
 8001300:	f362 030f 	bfi	r3, r2, #0, #16
 8001304:	0c00      	lsrs	r0, r0, #16
 8001306:	f360 431f 	bfi	r3, r0, #16, #16
{
 800130a:	b082      	sub	sp, #8
#endif
}
 800130c:	4618      	mov	r0, r3
 800130e:	b002      	add	sp, #8
 8001310:	4770      	bx	lr
 8001312:	bf00      	nop

08001314 <MCI_GetIqdref>:
  {
    tempVal = pHandle->pFOCVars->Iqdref;
  }
  return (tempVal);
#else
  return (pHandle->pFOCVars->Iqdref);
 8001314:	6842      	ldr	r2, [r0, #4]
 8001316:	6910      	ldr	r0, [r2, #16]
 8001318:	2300      	movs	r3, #0
 800131a:	b282      	uxth	r2, r0
 800131c:	f362 030f 	bfi	r3, r2, #0, #16
 8001320:	0c00      	lsrs	r0, r0, #16
 8001322:	f360 431f 	bfi	r3, r0, #16, #16
{
 8001326:	b082      	sub	sp, #8
#endif
}
 8001328:	4618      	mov	r0, r3
 800132a:	b002      	add	sp, #8
 800132c:	4770      	bx	lr
 800132e:	bf00      	nop

08001330 <MCI_GetVqd>:
  {
    tempVal = pHandle->pFOCVars->Vqd;
  }
  return (tempVal);
#else
  return (pHandle->pFOCVars->Vqd);
 8001330:	6842      	ldr	r2, [r0, #4]
 8001332:	f8d2 0016 	ldr.w	r0, [r2, #22]
 8001336:	2300      	movs	r3, #0
 8001338:	b282      	uxth	r2, r0
 800133a:	f362 030f 	bfi	r3, r2, #0, #16
 800133e:	0c00      	lsrs	r0, r0, #16
 8001340:	f360 431f 	bfi	r3, r0, #16, #16
{
 8001344:	b082      	sub	sp, #8
#endif
}
 8001346:	4618      	mov	r0, r3
 8001348:	b002      	add	sp, #8
 800134a:	4770      	bx	lr

0800134c <MCI_GetValphabeta>:
  {
    tempVal = pHandle->pFOCVars->Valphabeta;
  }
  return (tempVal);
#else
  return (pHandle->pFOCVars->Valphabeta);
 800134c:	6842      	ldr	r2, [r0, #4]
 800134e:	f8d2 001a 	ldr.w	r0, [r2, #26]
 8001352:	2300      	movs	r3, #0
 8001354:	b282      	uxth	r2, r0
 8001356:	f362 030f 	bfi	r3, r2, #0, #16
 800135a:	0c00      	lsrs	r0, r0, #16
 800135c:	f360 431f 	bfi	r3, r0, #16, #16
{
 8001360:	b082      	sub	sp, #8
#endif
}
 8001362:	4618      	mov	r0, r3
 8001364:	b002      	add	sp, #8
 8001366:	4770      	bx	lr

08001368 <MCI_GetTeref>:
__weak int16_t MCI_GetTeref(MCI_Handle_t *pHandle) //cstat !MISRAC2012-Rule-8.13
{
#ifdef NULL_PTR_CHECK_MC_INT
  return ((MC_NULL == pHandle) ? 0 : pHandle->pFOCVars->hTeref);
#else
  return (pHandle->pFOCVars->hTeref);
 8001368:	6843      	ldr	r3, [r0, #4]
#endif
}
 800136a:	f9b3 001e 	ldrsh.w	r0, [r3, #30]
 800136e:	4770      	bx	lr

08001370 <MCI_Clear_Iqdref>:
/**
  * @brief  It re-initializes Iqdref variables with their default values.
  * @param  pHandle Pointer on the component instance to work on.
  */
__weak void MCI_Clear_Iqdref(MCI_Handle_t *pHandle)
{
 8001370:	b510      	push	{r4, lr}
    /* Nothing to do */
  }
  else
  {
#endif
    pHandle->pFOCVars->Iqdref = STC_GetDefaultIqdref(pHandle->pSTC);
 8001372:	e9d0 0400 	ldrd	r0, r4, [r0]
 8001376:	f005 fc93 	bl	8006ca0 <STC_GetDefaultIqdref>
 800137a:	f3c0 430f 	ubfx	r3, r0, #16, #16
 800137e:	8220      	strh	r0, [r4, #16]
 8001380:	8263      	strh	r3, [r4, #18]
#ifdef NULL_PTR_CHECK_MC_INT
  }
#endif
}
 8001382:	bd10      	pop	{r4, pc}

08001384 <MCM_Clarke>:
  *                       beta = -(2*b+a)/sqrt(3)
  * @param  Input: stator values a and b in ab_t format.
  * @retval Stator values alpha and beta in alphabeta_t format.
  */
__weak alphabeta_t MCM_Clarke(ab_t Input)
{
 8001384:	f3c0 430f 	ubfx	r3, r0, #16, #16
  /* qIalpha = qIas*/
  Output.alpha = Input.a;

  a_divSQRT3_tmp = divSQRT_3 * ((int32_t)Input.a);

  b_divSQRT3_tmp = divSQRT_3 * ((int32_t)Input.b);
 8001388:	f644 11e6 	movw	r1, #18918	@ 0x49e6
#ifndef FULL_MISRA_C_COMPLIANCY_MC_MATH
  /* WARNING: the below instruction is not MISRA compliant, user should verify
    that Cortex-M3 assembly instruction ASR (arithmetic shift right) is used by
    the compiler to perform the shift (instead of LSR logical shift right) */
  //cstat !MISRAC2012-Rule-1.3_n !ATH-shift-neg !MISRAC2012-Rule-10.1_R6
  wbeta_tmp = (-(a_divSQRT3_tmp) - (b_divSQRT3_tmp) - (b_divSQRT3_tmp)) >> 15;
 800138c:	f24b 621a 	movw	r2, #46618	@ 0xb61a
  b_divSQRT3_tmp = divSQRT_3 * ((int32_t)Input.b);
 8001390:	fb13 f301 	smulbb	r3, r3, r1
  wbeta_tmp = (-(a_divSQRT3_tmp) - (b_divSQRT3_tmp) - (b_divSQRT3_tmp)) >> 15;
 8001394:	fb10 f202 	smulbb	r2, r0, r2
 8001398:	eba2 0243 	sub.w	r2, r2, r3, lsl #1
#else
  wbeta_tmp = (-(a_divSQRT3_tmp) - (b_divSQRT3_tmp) - (b_divSQRT3_tmp)) / 32768;
#endif

  /* Check saturation of Ibeta */
  if (wbeta_tmp > INT16_MAX)
 800139c:	f1b2 4f80 	cmp.w	r2, #1073741824	@ 0x40000000
{
 80013a0:	b084      	sub	sp, #16
 80013a2:	b203      	sxth	r3, r0
  if (wbeta_tmp > INT16_MAX)
 80013a4:	da05      	bge.n	80013b2 <MCM_Clarke+0x2e>
 80013a6:	13d1      	asrs	r1, r2, #15
  {
    hbeta_tmp = INT16_MAX;
  }
  else if (wbeta_tmp < (-32768))
 80013a8:	f511 4f00 	cmn.w	r1, #32768	@ 0x8000
 80013ac:	da0c      	bge.n	80013c8 <MCM_Clarke+0x44>
 80013ae:	4a09      	ldr	r2, [pc, #36]	@ (80013d4 <MCM_Clarke+0x50>)
 80013b0:	e001      	b.n	80013b6 <MCM_Clarke+0x32>
 80013b2:	f647 72ff 	movw	r2, #32767	@ 0x7fff
  else
  {
    /* Nothing to do */
  }

  return (Output);
 80013b6:	b29b      	uxth	r3, r3
 80013b8:	2000      	movs	r0, #0
 80013ba:	f363 000f 	bfi	r0, r3, #0, #16
 80013be:	b293      	uxth	r3, r2
 80013c0:	f363 401f 	bfi	r0, r3, #16, #16
}
 80013c4:	b004      	add	sp, #16
 80013c6:	4770      	bx	lr
    hbeta_tmp = ((int16_t)wbeta_tmp);
 80013c8:	4802      	ldr	r0, [pc, #8]	@ (80013d4 <MCM_Clarke+0x50>)
 80013ca:	b20a      	sxth	r2, r1
 80013cc:	4282      	cmp	r2, r0
 80013ce:	bfb8      	it	lt
 80013d0:	4602      	movlt	r2, r0
 80013d2:	e7f0      	b.n	80013b6 <MCM_Clarke+0x32>
 80013d4:	ffff8001 	.word	0xffff8001

080013d8 <MCM_Trig_Functions>:
  uint16_t uhindex;

  Trig_Components Local_Components;

  /* 10 bit index computation  */
  shindex = (((int32_t)32768) + ((int32_t)hAngle));
 80013d8:	f500 4000 	add.w	r0, r0, #32768	@ 0x8000
  uhindex = (uint16_t)shindex;
  uhindex /= ((uint16_t)64);
 80013dc:	f3c0 1089 	ubfx	r0, r0, #6, #10

  switch (((uint16_t)uhindex) & SIN_MASK)
 80013e0:	f400 7140 	and.w	r1, r0, #768	@ 0x300
 80013e4:	f5b1 7f00 	cmp.w	r1, #512	@ 0x200
{
 80013e8:	b082      	sub	sp, #8
  switch (((uint16_t)uhindex) & SIN_MASK)
 80013ea:	d028      	beq.n	800143e <MCM_Trig_Functions+0x66>
 80013ec:	f04f 0300 	mov.w	r3, #0
 80013f0:	461a      	mov	r2, r3
 80013f2:	d816      	bhi.n	8001422 <MCM_Trig_Functions+0x4a>
 80013f4:	b361      	cbz	r1, 8001450 <MCM_Trig_Functions+0x78>
 80013f6:	f5b1 7f80 	cmp.w	r1, #256	@ 0x100
 80013fa:	d109      	bne.n	8001410 <MCM_Trig_Functions+0x38>
      break;
    }

    case U270_360:
    {
      Local_Components.hSin =  -hSin_Cos_Table[( uint8_t )( 0xFFu - ( uint8_t )( uhindex ) )];
 80013fc:	b2c0      	uxtb	r0, r0
 80013fe:	43c2      	mvns	r2, r0
 8001400:	491a      	ldr	r1, [pc, #104]	@ (800146c <MCM_Trig_Functions+0x94>)
 8001402:	b2d2      	uxtb	r2, r2
      Local_Components.hCos =  hSin_Cos_Table[( uint8_t )( uhindex )];
 8001404:	f931 3010 	ldrsh.w	r3, [r1, r0, lsl #1]
      Local_Components.hSin =  -hSin_Cos_Table[( uint8_t )( 0xFFu - ( uint8_t )( uhindex ) )];
 8001408:	f831 2012 	ldrh.w	r2, [r1, r2, lsl #1]
 800140c:	4252      	negs	r2, r2
 800140e:	b212      	sxth	r2, r2
    }

    default:
      break;
  }
  return (Local_Components);
 8001410:	b29b      	uxth	r3, r3
 8001412:	2000      	movs	r0, #0
 8001414:	f363 000f 	bfi	r0, r3, #0, #16
 8001418:	b292      	uxth	r2, r2
 800141a:	f362 401f 	bfi	r0, r2, #16, #16
}
 800141e:	b002      	add	sp, #8
 8001420:	4770      	bx	lr
  switch (((uint16_t)uhindex) & SIN_MASK)
 8001422:	f5b1 7f40 	cmp.w	r1, #768	@ 0x300
 8001426:	d1f3      	bne.n	8001410 <MCM_Trig_Functions+0x38>
      Local_Components.hSin = hSin_Cos_Table[( uint8_t )( 0xFFu - ( uint8_t )( uhindex ) )];
 8001428:	4910      	ldr	r1, [pc, #64]	@ (800146c <MCM_Trig_Functions+0x94>)
 800142a:	b2c0      	uxtb	r0, r0
 800142c:	43c2      	mvns	r2, r0
      Local_Components.hCos = -hSin_Cos_Table[( uint8_t )( uhindex )];
 800142e:	f831 3010 	ldrh.w	r3, [r1, r0, lsl #1]
      Local_Components.hSin = hSin_Cos_Table[( uint8_t )( 0xFFu - ( uint8_t )( uhindex ) )];
 8001432:	b2d2      	uxtb	r2, r2
      Local_Components.hCos = -hSin_Cos_Table[( uint8_t )( uhindex )];
 8001434:	425b      	negs	r3, r3
      Local_Components.hSin = hSin_Cos_Table[( uint8_t )( 0xFFu - ( uint8_t )( uhindex ) )];
 8001436:	f931 2012 	ldrsh.w	r2, [r1, r2, lsl #1]
      Local_Components.hCos = -hSin_Cos_Table[( uint8_t )( uhindex )];
 800143a:	b21b      	sxth	r3, r3
      break;
 800143c:	e7e8      	b.n	8001410 <MCM_Trig_Functions+0x38>
      Local_Components.hSin = hSin_Cos_Table[( uint8_t )( uhindex )];
 800143e:	b2c0      	uxtb	r0, r0
      Local_Components.hCos = hSin_Cos_Table[( uint8_t )( 0xFFu - ( uint8_t )( uhindex ) )];
 8001440:	43c3      	mvns	r3, r0
      Local_Components.hSin = hSin_Cos_Table[( uint8_t )( uhindex )];
 8001442:	490a      	ldr	r1, [pc, #40]	@ (800146c <MCM_Trig_Functions+0x94>)
      Local_Components.hCos = hSin_Cos_Table[( uint8_t )( 0xFFu - ( uint8_t )( uhindex ) )];
 8001444:	b2db      	uxtb	r3, r3
      Local_Components.hSin = hSin_Cos_Table[( uint8_t )( uhindex )];
 8001446:	f931 2010 	ldrsh.w	r2, [r1, r0, lsl #1]
      Local_Components.hCos = hSin_Cos_Table[( uint8_t )( 0xFFu - ( uint8_t )( uhindex ) )];
 800144a:	f931 3013 	ldrsh.w	r3, [r1, r3, lsl #1]
      break;
 800144e:	e7df      	b.n	8001410 <MCM_Trig_Functions+0x38>
      Local_Components.hSin = -hSin_Cos_Table[( uint8_t )( uhindex )];
 8001450:	b2c0      	uxtb	r0, r0
      Local_Components.hCos = -hSin_Cos_Table[( uint8_t )( 0xFFu - ( uint8_t )( uhindex ) )];
 8001452:	43c3      	mvns	r3, r0
      Local_Components.hSin = -hSin_Cos_Table[( uint8_t )( uhindex )];
 8001454:	4905      	ldr	r1, [pc, #20]	@ (800146c <MCM_Trig_Functions+0x94>)
      Local_Components.hCos = -hSin_Cos_Table[( uint8_t )( 0xFFu - ( uint8_t )( uhindex ) )];
 8001456:	b2db      	uxtb	r3, r3
      Local_Components.hSin = -hSin_Cos_Table[( uint8_t )( uhindex )];
 8001458:	f831 2010 	ldrh.w	r2, [r1, r0, lsl #1]
      Local_Components.hCos = -hSin_Cos_Table[( uint8_t )( 0xFFu - ( uint8_t )( uhindex ) )];
 800145c:	f831 3013 	ldrh.w	r3, [r1, r3, lsl #1]
      Local_Components.hSin = -hSin_Cos_Table[( uint8_t )( uhindex )];
 8001460:	4252      	negs	r2, r2
      Local_Components.hCos = -hSin_Cos_Table[( uint8_t )( 0xFFu - ( uint8_t )( uhindex ) )];
 8001462:	425b      	negs	r3, r3
      Local_Components.hSin = -hSin_Cos_Table[( uint8_t )( uhindex )];
 8001464:	b212      	sxth	r2, r2
      Local_Components.hCos = -hSin_Cos_Table[( uint8_t )( 0xFFu - ( uint8_t )( uhindex ) )];
 8001466:	b21b      	sxth	r3, r3
      break;
 8001468:	e7d2      	b.n	8001410 <MCM_Trig_Functions+0x38>
 800146a:	bf00      	nop
 800146c:	08007690 	.word	0x08007690

08001470 <MCM_Park>:
{
 8001470:	b530      	push	{r4, r5, lr}
 8001472:	4605      	mov	r5, r0
 8001474:	4604      	mov	r4, r0
 8001476:	b085      	sub	sp, #20
  Local_Vector_Components = MCM_Trig_Functions(Theta);
 8001478:	4608      	mov	r0, r1
 800147a:	f7ff ffad 	bl	80013d8 <MCM_Trig_Functions>
 800147e:	b22d      	sxth	r5, r5
 8001480:	b201      	sxth	r1, r0
 8001482:	1424      	asrs	r4, r4, #16
 8001484:	1400      	asrs	r0, r0, #16
  q_tmp_1 = Input.alpha * ((int32_t )Local_Vector_Components.hCos);
 8001486:	fb05 f301 	mul.w	r3, r5, r1
  wqd_tmp = (q_tmp_1 - q_tmp_2) >> 15; //cstat !MISRAC2012-Rule-1.3_n !ATH-shift-neg !MISRAC2012-Rule-10.1_R6
 800148a:	fb04 3310 	mls	r3, r4, r0, r3
  if (wqd_tmp > INT16_MAX)
 800148e:	f1b3 4f80 	cmp.w	r3, #1073741824	@ 0x40000000
 8001492:	da05      	bge.n	80014a0 <MCM_Park+0x30>
 8001494:	13da      	asrs	r2, r3, #15
  else if (wqd_tmp < (-32768))
 8001496:	f512 4f00 	cmn.w	r2, #32768	@ 0x8000
 800149a:	da22      	bge.n	80014e2 <MCM_Park+0x72>
 800149c:	4a14      	ldr	r2, [pc, #80]	@ (80014f0 <MCM_Park+0x80>)
 800149e:	e001      	b.n	80014a4 <MCM_Park+0x34>
 80014a0:	f647 72ff 	movw	r2, #32767	@ 0x7fff
  d_tmp_2 = Input.beta * ((int32_t )Local_Vector_Components.hCos);
 80014a4:	fb01 f404 	mul.w	r4, r1, r4
  wqd_tmp = (d_tmp_1 + d_tmp_2) >> 15; //cstat !MISRAC2012-Rule-1.3_n !ATH-shift-neg !MISRAC2012-Rule-10.1_R6
 80014a8:	fb05 4400 	mla	r4, r5, r0, r4
  if (wqd_tmp > INT16_MAX)
 80014ac:	f1b4 4f80 	cmp.w	r4, #1073741824	@ 0x40000000
  wqd_tmp = (d_tmp_1 + d_tmp_2) >> 15; //cstat !MISRAC2012-Rule-1.3_n !ATH-shift-neg !MISRAC2012-Rule-10.1_R6
 80014b0:	ea4f 33e4 	mov.w	r3, r4, asr #15
  if (wqd_tmp > INT16_MAX)
 80014b4:	da04      	bge.n	80014c0 <MCM_Park+0x50>
  else if (wqd_tmp < (-32768))
 80014b6:	f513 4f00 	cmn.w	r3, #32768	@ 0x8000
 80014ba:	da0c      	bge.n	80014d6 <MCM_Park+0x66>
 80014bc:	4b0c      	ldr	r3, [pc, #48]	@ (80014f0 <MCM_Park+0x80>)
 80014be:	e001      	b.n	80014c4 <MCM_Park+0x54>
 80014c0:	f647 73ff 	movw	r3, #32767	@ 0x7fff
  return (Output);
 80014c4:	b292      	uxth	r2, r2
 80014c6:	2000      	movs	r0, #0
 80014c8:	f362 000f 	bfi	r0, r2, #0, #16
 80014cc:	b29b      	uxth	r3, r3
 80014ce:	f363 401f 	bfi	r0, r3, #16, #16
}
 80014d2:	b005      	add	sp, #20
 80014d4:	bd30      	pop	{r4, r5, pc}
    hqd_tmp = ((int16_t)wqd_tmp);
 80014d6:	4906      	ldr	r1, [pc, #24]	@ (80014f0 <MCM_Park+0x80>)
 80014d8:	b21b      	sxth	r3, r3
 80014da:	428b      	cmp	r3, r1
 80014dc:	bfb8      	it	lt
 80014de:	460b      	movlt	r3, r1
 80014e0:	e7f0      	b.n	80014c4 <MCM_Park+0x54>
    hqd_tmp = ((int16_t)wqd_tmp);
 80014e2:	4b03      	ldr	r3, [pc, #12]	@ (80014f0 <MCM_Park+0x80>)
 80014e4:	b212      	sxth	r2, r2
 80014e6:	429a      	cmp	r2, r3
 80014e8:	bfb8      	it	lt
 80014ea:	461a      	movlt	r2, r3
 80014ec:	e7da      	b.n	80014a4 <MCM_Park+0x34>
 80014ee:	bf00      	nop
 80014f0:	ffff8001 	.word	0xffff8001

080014f4 <MCM_Rev_Park>:
{
 80014f4:	b530      	push	{r4, r5, lr}
 80014f6:	4605      	mov	r5, r0
 80014f8:	b085      	sub	sp, #20
 80014fa:	4604      	mov	r4, r0
  Local_Vector_Components = MCM_Trig_Functions(Theta);
 80014fc:	4608      	mov	r0, r1
 80014fe:	f7ff ff6b 	bl	80013d8 <MCM_Trig_Functions>
 8001502:	1424      	asrs	r4, r4, #16
 8001504:	1402      	asrs	r2, r0, #16
 8001506:	b22d      	sxth	r5, r5
 8001508:	b200      	sxth	r0, r0
  alpha_tmp2 = Input.d * ((int32_t)Local_Vector_Components.hSin);
 800150a:	fb04 f302 	mul.w	r3, r4, r2
  Output.alpha = (int16_t)(((alpha_tmp1) + (alpha_tmp2)) >> 15);
 800150e:	fb05 3300 	mla	r3, r5, r0, r3
  beta_tmp2 = Input.d * ((int32_t)Local_Vector_Components.hCos);
 8001512:	fb00 f404 	mul.w	r4, r0, r4
  Output.beta = (int16_t)((beta_tmp2 - beta_tmp1) >> 15);
 8001516:	fb05 4412 	mls	r4, r5, r2, r4
  return (Output);
 800151a:	f3c3 33cf 	ubfx	r3, r3, #15, #16
 800151e:	2000      	movs	r0, #0
 8001520:	f363 000f 	bfi	r0, r3, #0, #16
 8001524:	f3c4 34cf 	ubfx	r4, r4, #15, #16
 8001528:	f364 401f 	bfi	r0, r4, #16, #16
}
 800152c:	b005      	add	sp, #20
 800152e:	bd30      	pop	{r4, r5, pc}

08001530 <MCM_Sqrt>:
  */
__weak int32_t MCM_Sqrt(int32_t wInput)
{
  int32_t wtemprootnew;

  if (wInput > 0)
 8001530:	1e03      	subs	r3, r0, #0
 8001532:	dd32      	ble.n	800159a <MCM_Sqrt+0x6a>
    {
      wtemproot = ((int32_t)128);
    }
    else
    {
      wtemproot = ((int32_t)8192);
 8001534:	f5b3 1f00 	cmp.w	r3, #2097152	@ 0x200000
 8001538:	bfd4      	ite	le
 800153a:	2180      	movle	r1, #128	@ 0x80
 800153c:	f44f 5100 	movgt.w	r1, #8192	@ 0x2000
    }

    do
    {
      wtemprootnew = (wtemproot + (wInput / wtemproot)) / (int32_t)2;
 8001540:	fb93 f2f1 	sdiv	r2, r3, r1
 8001544:	440a      	add	r2, r1
      if ((wtemprootnew == wtemproot) || ((int32_t)0 == wtemproot))
 8001546:	ebb1 0f62 	cmp.w	r1, r2, asr #1
      wtemprootnew = (wtemproot + (wInput / wtemproot)) / (int32_t)2;
 800154a:	ea4f 0062 	mov.w	r0, r2, asr #1
      if ((wtemprootnew == wtemproot) || ((int32_t)0 == wtemproot))
 800154e:	d025      	beq.n	800159c <MCM_Sqrt+0x6c>
      wtemprootnew = (wtemproot + (wInput / wtemproot)) / (int32_t)2;
 8001550:	fb93 f2f0 	sdiv	r2, r3, r0
 8001554:	4402      	add	r2, r0
      if ((wtemprootnew == wtemproot) || ((int32_t)0 == wtemproot))
 8001556:	ebb0 0f62 	cmp.w	r0, r2, asr #1
      wtemprootnew = (wtemproot + (wInput / wtemproot)) / (int32_t)2;
 800155a:	ea4f 0162 	mov.w	r1, r2, asr #1
      if ((wtemprootnew == wtemproot) || ((int32_t)0 == wtemproot))
 800155e:	d01d      	beq.n	800159c <MCM_Sqrt+0x6c>
      wtemprootnew = (wtemproot + (wInput / wtemproot)) / (int32_t)2;
 8001560:	fb93 f2f1 	sdiv	r2, r3, r1
 8001564:	440a      	add	r2, r1
      if ((wtemprootnew == wtemproot) || ((int32_t)0 == wtemproot))
 8001566:	ebb1 0f62 	cmp.w	r1, r2, asr #1
      wtemprootnew = (wtemproot + (wInput / wtemproot)) / (int32_t)2;
 800156a:	ea4f 0062 	mov.w	r0, r2, asr #1
      if ((wtemprootnew == wtemproot) || ((int32_t)0 == wtemproot))
 800156e:	d015      	beq.n	800159c <MCM_Sqrt+0x6c>
      wtemprootnew = (wtemproot + (wInput / wtemproot)) / (int32_t)2;
 8001570:	fb93 f2f0 	sdiv	r2, r3, r0
 8001574:	4402      	add	r2, r0
      if ((wtemprootnew == wtemproot) || ((int32_t)0 == wtemproot))
 8001576:	ebb0 0f62 	cmp.w	r0, r2, asr #1
      wtemprootnew = (wtemproot + (wInput / wtemproot)) / (int32_t)2;
 800157a:	ea4f 0162 	mov.w	r1, r2, asr #1
      if ((wtemprootnew == wtemproot) || ((int32_t)0 == wtemproot))
 800157e:	d00d      	beq.n	800159c <MCM_Sqrt+0x6c>
      wtemprootnew = (wtemproot + (wInput / wtemproot)) / (int32_t)2;
 8001580:	fb93 f2f1 	sdiv	r2, r3, r1
 8001584:	440a      	add	r2, r1
      if ((wtemprootnew == wtemproot) || ((int32_t)0 == wtemproot))
 8001586:	ebb1 0f62 	cmp.w	r1, r2, asr #1
      wtemprootnew = (wtemproot + (wInput / wtemproot)) / (int32_t)2;
 800158a:	ea4f 0062 	mov.w	r0, r2, asr #1
      if ((wtemprootnew == wtemproot) || ((int32_t)0 == wtemproot))
 800158e:	d005      	beq.n	800159c <MCM_Sqrt+0x6c>
      wtemprootnew = (wtemproot + (wInput / wtemproot)) / (int32_t)2;
 8001590:	fb93 f3f0 	sdiv	r3, r3, r0
 8001594:	4418      	add	r0, r3
 8001596:	1040      	asrs	r0, r0, #1
      if ((wtemprootnew == wtemproot) || ((int32_t)0 == wtemproot))
 8001598:	4770      	bx	lr
    while (biter < 6U);

  }
  else
  {
    wtemprootnew = (int32_t)0;
 800159a:	2000      	movs	r0, #0
  }

  return (wtemprootnew);
}
 800159c:	4770      	bx	lr
 800159e:	bf00      	nop

080015a0 <FOC_Clear>:
  *         controller. It must be called before each motor restart.
  *         It does not clear speed sensor.
  * @param  bMotor related motor it can be M1 or M2.
  */
__weak void FOC_Clear(uint8_t bMotor)
{
 80015a0:	b538      	push	{r3, r4, r5, lr}
 80015a2:	2326      	movs	r3, #38	@ 0x26
 80015a4:	4916      	ldr	r1, [pc, #88]	@ (8001600 <FOC_Clear+0x60>)
 80015a6:	fb00 f303 	mul.w	r3, r0, r3

  ab_t NULL_ab = {((int16_t)0), ((int16_t)0)};
  qd_t NULL_qd = {((int16_t)0), ((int16_t)0)};
  alphabeta_t NULL_alphabeta = {((int16_t)0), ((int16_t)0)};

  FOCVars[bMotor].Iab = NULL_ab;
 80015aa:	2400      	movs	r4, #0
 80015ac:	50cc      	str	r4, [r1, r3]
{
 80015ae:	4605      	mov	r5, r0
 80015b0:	f103 0208 	add.w	r2, r3, #8
 80015b4:	1858      	adds	r0, r3, r1
 80015b6:	3310      	adds	r3, #16
 80015b8:	440a      	add	r2, r1
 80015ba:	440b      	add	r3, r1
  FOCVars[bMotor].hTeref = (int16_t)0;
  FOCVars[bMotor].Vqd = NULL_qd;
  FOCVars[bMotor].Valphabeta = NULL_alphabeta;
  FOCVars[bMotor].hElAngle = (int16_t)0;

  PID_SetIntegralTerm(pPIDIq[bMotor], ((int32_t)0));
 80015bc:	4911      	ldr	r1, [pc, #68]	@ (8001604 <FOC_Clear+0x64>)
  FOCVars[bMotor].Iab = NULL_ab;
 80015be:	6044      	str	r4, [r0, #4]
  PID_SetIntegralTerm(pPIDIq[bMotor], ((int32_t)0));
 80015c0:	f851 0025 	ldr.w	r0, [r1, r5, lsl #2]
  FOCVars[bMotor].Iqd = NULL_qd;
 80015c4:	6054      	str	r4, [r2, #4]
 80015c6:	6094      	str	r4, [r2, #8]
  PID_SetIntegralTerm(pPIDIq[bMotor], ((int32_t)0));
 80015c8:	4621      	mov	r1, r4
  FOCVars[bMotor].Vqd = NULL_qd;
 80015ca:	f8c3 4006 	str.w	r4, [r3, #6]
 80015ce:	f8c3 400a 	str.w	r4, [r3, #10]
 80015d2:	f8c3 400e 	str.w	r4, [r3, #14]
  PID_SetIntegralTerm(pPIDIq[bMotor], ((int32_t)0));
 80015d6:	f004 fbd1 	bl	8005d7c <PID_SetIntegralTerm>
  PID_SetIntegralTerm(pPIDId[bMotor], ((int32_t)0));
 80015da:	4b0b      	ldr	r3, [pc, #44]	@ (8001608 <FOC_Clear+0x68>)
 80015dc:	4621      	mov	r1, r4
 80015de:	f853 0025 	ldr.w	r0, [r3, r5, lsl #2]
 80015e2:	f004 fbcb 	bl	8005d7c <PID_SetIntegralTerm>

  STC_Clear(pSTC[bMotor]);
 80015e6:	4b09      	ldr	r3, [pc, #36]	@ (800160c <FOC_Clear+0x6c>)
 80015e8:	f853 0025 	ldr.w	r0, [r3, r5, lsl #2]
 80015ec:	f005 faca 	bl	8006b84 <STC_Clear>

  PWMC_SwitchOffPWM(pwmcHandle[bMotor]);
 80015f0:	4b07      	ldr	r3, [pc, #28]	@ (8001610 <FOC_Clear+0x70>)
 80015f2:	f853 0025 	ldr.w	r0, [r3, r5, lsl #2]

  /* USER CODE BEGIN FOC_Clear 1 */

  /* USER CODE END FOC_Clear 1 */
}
 80015f6:	e8bd 4038 	ldmia.w	sp!, {r3, r4, r5, lr}
  PWMC_SwitchOffPWM(pwmcHandle[bMotor]);
 80015fa:	f000 bf3d 	b.w	8002478 <PWMC_SwitchOffPWM>
 80015fe:	bf00      	nop
 8001600:	20000774 	.word	0x20000774
 8001604:	20000008 	.word	0x20000008
 8001608:	20000004 	.word	0x20000004
 800160c:	2000000c 	.word	0x2000000c
 8001610:	2000076c 	.word	0x2000076c

08001614 <MCboot>:
  if (MC_NULL == pMCIList)
 8001614:	2800      	cmp	r0, #0
 8001616:	d073      	beq.n	8001700 <MCboot+0xec>
{
 8001618:	e92d 4ff0 	stmdb	sp!, {r4, r5, r6, r7, r8, r9, sl, fp, lr}
    bMCBootCompleted = (uint8_t )0;
 800161c:	f8df 9130 	ldr.w	r9, [pc, #304]	@ 8001750 <MCboot+0x13c>
    pwmcHandle[M1] = &PWM_Handle_M1._Super;
 8001620:	f8df b130 	ldr.w	fp, [pc, #304]	@ 8001754 <MCboot+0x140>
    EAC_Init(&EncAlignCtrlM1,pSTC[M1],&VirtualSpeedSensorM1,&ENCODER_M1);
 8001624:	4d37      	ldr	r5, [pc, #220]	@ (8001704 <MCboot+0xf0>)
 8001626:	4e38      	ldr	r6, [pc, #224]	@ (8001708 <MCboot+0xf4>)
    MCI_Init(&Mci[M1], pSTC[M1], &FOCVars[M1],pwmcHandle[M1] );
 8001628:	4f38      	ldr	r7, [pc, #224]	@ (800170c <MCboot+0xf8>)
{
 800162a:	b083      	sub	sp, #12
    bMCBootCompleted = (uint8_t )0;
 800162c:	f04f 0800 	mov.w	r8, #0
 8001630:	4604      	mov	r4, r0
    pwmcHandle[M1] = &PWM_Handle_M1._Super;
 8001632:	4837      	ldr	r0, [pc, #220]	@ (8001710 <MCboot+0xfc>)
 8001634:	f8cb 0000 	str.w	r0, [fp]
    bMCBootCompleted = (uint8_t )0;
 8001638:	f889 8000 	strb.w	r8, [r9]
    R3_1_Init(&PWM_Handle_M1);
 800163c:	f004 fee4 	bl	8006408 <R3_1_Init>
    ASPEP_start(&aspepOverUartA);
 8001640:	4834      	ldr	r0, [pc, #208]	@ (8001714 <MCboot+0x100>)
 8001642:	f7fe ff83 	bl	800054c <ASPEP_start>
    startTimers();
 8001646:	f004 fc45 	bl	8005ed4 <startTimers>
    PID_HandleInit(&PIDSpeedHandle_M1);
 800164a:	4833      	ldr	r0, [pc, #204]	@ (8001718 <MCboot+0x104>)
 800164c:	f004 fb82 	bl	8005d54 <PID_HandleInit>
    ENC_Init (&ENCODER_M1);
 8001650:	4832      	ldr	r0, [pc, #200]	@ (800171c <MCboot+0x108>)
 8001652:	f004 f8a7 	bl	80057a4 <ENC_Init>
    EAC_Init(&EncAlignCtrlM1,pSTC[M1],&VirtualSpeedSensorM1,&ENCODER_M1);
 8001656:	6829      	ldr	r1, [r5, #0]
 8001658:	4b30      	ldr	r3, [pc, #192]	@ (800171c <MCboot+0x108>)
 800165a:	4a31      	ldr	r2, [pc, #196]	@ (8001720 <MCboot+0x10c>)
 800165c:	4630      	mov	r0, r6
 800165e:	f004 f855 	bl	800570c <EAC_Init>
    pEAC[M1] = &EncAlignCtrlM1;
 8001662:	4b30      	ldr	r3, [pc, #192]	@ (8001724 <MCboot+0x110>)
    STC_Init(pSTC[M1],&PIDSpeedHandle_M1, &ENCODER_M1._Super);
 8001664:	4a2d      	ldr	r2, [pc, #180]	@ (800171c <MCboot+0x108>)
 8001666:	492c      	ldr	r1, [pc, #176]	@ (8001718 <MCboot+0x104>)
 8001668:	6828      	ldr	r0, [r5, #0]
    pEAC[M1] = &EncAlignCtrlM1;
 800166a:	601e      	str	r6, [r3, #0]
    STC_Init(pSTC[M1],&PIDSpeedHandle_M1, &ENCODER_M1._Super);
 800166c:	f005 fa70 	bl	8006b50 <STC_Init>
    STO_CR_Init (&STO_CR_M1);
 8001670:	482d      	ldr	r0, [pc, #180]	@ (8001728 <MCboot+0x114>)
    RVBS_Init(&BusVoltageSensor_M1);
 8001672:	4e2e      	ldr	r6, [pc, #184]	@ (800172c <MCboot+0x118>)
    STO_CR_Init (&STO_CR_M1);
 8001674:	f005 fdf2 	bl	800725c <STO_CR_Init>
    VSS_Init(&VirtualSpeedSensorM1);
 8001678:	4829      	ldr	r0, [pc, #164]	@ (8001720 <MCboot+0x10c>)
 800167a:	f005 fea3 	bl	80073c4 <VSS_Init>
    PID_HandleInit(&PIDIqHandle_M1);
 800167e:	482c      	ldr	r0, [pc, #176]	@ (8001730 <MCboot+0x11c>)
 8001680:	f004 fb68 	bl	8005d54 <PID_HandleInit>
    PID_HandleInit(&PIDIdHandle_M1);
 8001684:	482b      	ldr	r0, [pc, #172]	@ (8001734 <MCboot+0x120>)
 8001686:	f004 fb65 	bl	8005d54 <PID_HandleInit>
    (void)RCM_RegisterRegConv(&VbusRegConv_M1);
 800168a:	482b      	ldr	r0, [pc, #172]	@ (8001738 <MCboot+0x124>)
 800168c:	f001 fee6 	bl	800345c <RCM_RegisterRegConv>
    RVBS_Init(&BusVoltageSensor_M1);
 8001690:	4630      	mov	r0, r6
 8001692:	f005 f9af 	bl	80069f4 <RVBS_Init>
    pMPM[M1]->pVBS = &(BusVoltageSensor_M1._Super);
 8001696:	4b29      	ldr	r3, [pc, #164]	@ (800173c <MCboot+0x128>)
    NTC_Init(&TempSensor_M1);
 8001698:	4829      	ldr	r0, [pc, #164]	@ (8001740 <MCboot+0x12c>)
    pMPM[M1]->pVBS = &(BusVoltageSensor_M1._Super);
 800169a:	681b      	ldr	r3, [r3, #0]
 800169c:	60de      	str	r6, [r3, #12]
    pMPM[M1]->pFOCVars = &FOCVars[M1];
 800169e:	4e29      	ldr	r6, [pc, #164]	@ (8001744 <MCboot+0x130>)
 80016a0:	609e      	str	r6, [r3, #8]
    NTC_Init(&TempSensor_M1);
 80016a2:	f004 fb39 	bl	8005d18 <NTC_Init>
    REMNG_Init(pREMNG[M1]);
 80016a6:	4828      	ldr	r0, [pc, #160]	@ (8001748 <MCboot+0x134>)
 80016a8:	f005 f9fe 	bl	8006aa8 <REMNG_Init>
    FOC_Clear(M1);
 80016ac:	4640      	mov	r0, r8
 80016ae:	f7ff ff77 	bl	80015a0 <FOC_Clear>
    FOCVars[M1].bDriveInput = EXTERNAL;
 80016b2:	f04f 0a01 	mov.w	sl, #1
    FOCVars[M1].Iqdref = STC_GetDefaultIqdref(pSTC[M1]);
 80016b6:	6828      	ldr	r0, [r5, #0]
    FOCVars[M1].bDriveInput = EXTERNAL;
 80016b8:	f886 a024 	strb.w	sl, [r6, #36]	@ 0x24
    FOCVars[M1].Iqdref = STC_GetDefaultIqdref(pSTC[M1]);
 80016bc:	f005 faf0 	bl	8006ca0 <STC_GetDefaultIqdref>
 80016c0:	6130      	str	r0, [r6, #16]
    FOCVars[M1].UserIdref = STC_GetDefaultIqdref(pSTC[M1]).d;
 80016c2:	6828      	ldr	r0, [r5, #0]
 80016c4:	f005 faec 	bl	8006ca0 <STC_GetDefaultIqdref>
 80016c8:	f3c0 400f 	ubfx	r0, r0, #16, #16
    MCI_Init(&Mci[M1], pSTC[M1], &FOCVars[M1],pwmcHandle[M1] );
 80016cc:	6829      	ldr	r1, [r5, #0]
 80016ce:	f8db 3000 	ldr.w	r3, [fp]
    FOCVars[M1].UserIdref = STC_GetDefaultIqdref(pSTC[M1]).d;
 80016d2:	82b0      	strh	r0, [r6, #20]
    MCI_Init(&Mci[M1], pSTC[M1], &FOCVars[M1],pwmcHandle[M1] );
 80016d4:	4632      	mov	r2, r6
 80016d6:	4638      	mov	r0, r7
 80016d8:	f7ff fcf4 	bl	80010c4 <MCI_Init>
   Mci[M1].pScale = &scaleParams_M1;
 80016dc:	4b1b      	ldr	r3, [pc, #108]	@ (800174c <MCboot+0x138>)
    MCI_ExecTorqueRamp(&Mci[M1], STC_GetDefaultIqdref(pSTC[M1]).q, 0);
 80016de:	6828      	ldr	r0, [r5, #0]
   Mci[M1].pScale = &scaleParams_M1;
 80016e0:	61bb      	str	r3, [r7, #24]
    MCI_ExecTorqueRamp(&Mci[M1], STC_GetDefaultIqdref(pSTC[M1]).q, 0);
 80016e2:	f005 fadd 	bl	8006ca0 <STC_GetDefaultIqdref>
 80016e6:	4642      	mov	r2, r8
 80016e8:	b201      	sxth	r1, r0
 80016ea:	4638      	mov	r0, r7
 80016ec:	f7ff fd04 	bl	80010f8 <MCI_ExecTorqueRamp>
    pMCIList[M1] = &Mci[M1];
 80016f0:	6027      	str	r7, [r4, #0]
    MC_APP_BootHook();
 80016f2:	f7ff fce3 	bl	80010bc <MC_APP_BootHook>
    bMCBootCompleted = 1U;
 80016f6:	f889 a000 	strb.w	sl, [r9]
}
 80016fa:	b003      	add	sp, #12
 80016fc:	e8bd 8ff0 	ldmia.w	sp!, {r4, r5, r6, r7, r8, r9, sl, fp, pc}
 8001700:	4770      	bx	lr
 8001702:	bf00      	nop
 8001704:	2000000c 	.word	0x2000000c
 8001708:	20000074 	.word	0x20000074
 800170c:	20000728 	.word	0x20000728
 8001710:	200002cc 	.word	0x200002cc
 8001714:	20000494 	.word	0x20000494
 8001718:	200003fc 	.word	0x200003fc
 800171c:	20000090 	.word	0x20000090
 8001720:	20000294 	.word	0x20000294
 8001724:	20000770 	.word	0x20000770
 8001728:	20000110 	.word	0x20000110
 800172c:	2000002c 	.word	0x2000002c
 8001730:	200003d0 	.word	0x200003d0
 8001734:	200003a4 	.word	0x200003a4
 8001738:	20000048 	.word	0x20000048
 800173c:	20000000 	.word	0x20000000
 8001740:	20000058 	.word	0x20000058
 8001744:	20000774 	.word	0x20000774
 8001748:	20000014 	.word	0x20000014
 800174c:	20000448 	.word	0x20000448
 8001750:	20000764 	.word	0x20000764
 8001754:	2000076c 	.word	0x2000076c

08001758 <FOC_InitAdditionalMethods>:
    {
  /* USER CODE BEGIN FOC_InitAdditionalMethods 0 */

  /* USER CODE END FOC_InitAdditionalMethods 0 */
    }
}
 8001758:	4770      	bx	lr
 800175a:	bf00      	nop

0800175c <FOC_CalcCurrRef>:
  *         MTPA algorithm(s). It must be called with the periodicity specified
  *         in oTSC parameters.
  * @param  bMotor related motor it can be M1 or M2.
  */
__weak void FOC_CalcCurrRef(uint8_t bMotor)
{
 800175c:	b510      	push	{r4, lr}

  /* USER CODE BEGIN FOC_CalcCurrRef 0 */

  /* USER CODE END FOC_CalcCurrRef 0 */
  if (INTERNAL == FOCVars[bMotor].bDriveInput)
 800175e:	4c08      	ldr	r4, [pc, #32]	@ (8001780 <FOC_CalcCurrRef+0x24>)
 8001760:	2326      	movs	r3, #38	@ 0x26
 8001762:	fb03 4400 	mla	r4, r3, r0, r4
 8001766:	f894 3024 	ldrb.w	r3, [r4, #36]	@ 0x24
 800176a:	b103      	cbz	r3, 800176e <FOC_CalcCurrRef+0x12>
    /* Nothing to do */
  }
  /* USER CODE BEGIN FOC_CalcCurrRef 1 */

  /* USER CODE END FOC_CalcCurrRef 1 */
}
 800176c:	bd10      	pop	{r4, pc}
    FOCVars[bMotor].hTeref = STC_CalcTorqueReference(pSTC[bMotor]);
 800176e:	4b05      	ldr	r3, [pc, #20]	@ (8001784 <FOC_CalcCurrRef+0x28>)
 8001770:	f853 0020 	ldr.w	r0, [r3, r0, lsl #2]
 8001774:	f005 fa5e 	bl	8006c34 <STC_CalcTorqueReference>
 8001778:	83e0      	strh	r0, [r4, #30]
    FOCVars[bMotor].Iqdref.q = FOCVars[bMotor].hTeref;
 800177a:	8220      	strh	r0, [r4, #16]
}
 800177c:	bd10      	pop	{r4, pc}
 800177e:	bf00      	nop
 8001780:	20000774 	.word	0x20000774
 8001784:	2000000c 	.word	0x2000000c

08001788 <TSK_SetChargeBootCapDelayM1>:
  * @param  hTickCount number of ticks to be counted.
  * @retval void
  */
__weak void TSK_SetChargeBootCapDelayM1(uint16_t hTickCount)
{
   hBootCapDelayCounterM1 = hTickCount;
 8001788:	4b01      	ldr	r3, [pc, #4]	@ (8001790 <TSK_SetChargeBootCapDelayM1+0x8>)
 800178a:	8018      	strh	r0, [r3, #0]
}
 800178c:	4770      	bx	lr
 800178e:	bf00      	nop
 8001790:	20000768 	.word	0x20000768

08001794 <TSK_ChargeBootCapDelayHasElapsedM1>:
  * @retval bool true if time has elapsed, false otherwise.
  */
__weak bool TSK_ChargeBootCapDelayHasElapsedM1(void)
{
  bool retVal = false;
  if (((uint16_t)0) == hBootCapDelayCounterM1)
 8001794:	4b03      	ldr	r3, [pc, #12]	@ (80017a4 <TSK_ChargeBootCapDelayHasElapsedM1+0x10>)
 8001796:	8818      	ldrh	r0, [r3, #0]
 8001798:	b280      	uxth	r0, r0
  {
    retVal = true;
  }
  return (retVal);
}
 800179a:	fab0 f080 	clz	r0, r0
 800179e:	0940      	lsrs	r0, r0, #5
 80017a0:	4770      	bx	lr
 80017a2:	bf00      	nop
 80017a4:	20000768 	.word	0x20000768

080017a8 <TSK_SetStopPermanencyTimeM1>:
  * @param  hTickCount number of ticks to be counted.
  * @retval void
  */
__weak void TSK_SetStopPermanencyTimeM1(uint16_t hTickCount)
{
  hStopPermanencyCounterM1 = hTickCount;
 80017a8:	4b01      	ldr	r3, [pc, #4]	@ (80017b0 <TSK_SetStopPermanencyTimeM1+0x8>)
 80017aa:	8018      	strh	r0, [r3, #0]
}
 80017ac:	4770      	bx	lr
 80017ae:	bf00      	nop
 80017b0:	20000766 	.word	0x20000766

080017b4 <TSK_StopPermanencyTimeHasElapsedM1>:
  * @retval bool true if time is elapsed, false otherwise.
  */
__weak bool TSK_StopPermanencyTimeHasElapsedM1(void)
{
  bool retVal = false;
  if (((uint16_t)0) == hStopPermanencyCounterM1)
 80017b4:	4b03      	ldr	r3, [pc, #12]	@ (80017c4 <TSK_StopPermanencyTimeHasElapsedM1+0x10>)
 80017b6:	8818      	ldrh	r0, [r3, #0]
 80017b8:	b280      	uxth	r0, r0
  {
    retVal = true;
  }
  return (retVal);
}
 80017ba:	fab0 f080 	clz	r0, r0
 80017be:	0940      	lsrs	r0, r0, #5
 80017c0:	4770      	bx	lr
 80017c2:	bf00      	nop
 80017c4:	20000766 	.word	0x20000766

080017c8 <TSK_MediumFrequencyTaskM1>:
{
 80017c8:	b570      	push	{r4, r5, r6, lr}
 80017ca:	b082      	sub	sp, #8
  int16_t wAux = 0;
 80017cc:	2300      	movs	r3, #0
  (void)STO_CR_CalcAvrgMecSpeedUnit(&STO_CR_M1, &wAux);
 80017ce:	f10d 0106 	add.w	r1, sp, #6
 80017d2:	48a1      	ldr	r0, [pc, #644]	@ (8001a58 <TSK_MediumFrequencyTaskM1+0x290>)
  PQD_CalcElMotorPower(pMPM[M1]);
 80017d4:	4da1      	ldr	r5, [pc, #644]	@ (8001a5c <TSK_MediumFrequencyTaskM1+0x294>)
  int16_t wAux = 0;
 80017d6:	f8ad 3006 	strh.w	r3, [sp, #6]
  if (MCI_GetCurrentFaults(&Mci[M1]) == MC_NO_FAULTS)
 80017da:	4ca1      	ldr	r4, [pc, #644]	@ (8001a60 <TSK_MediumFrequencyTaskM1+0x298>)
  (void)STO_CR_CalcAvrgMecSpeedUnit(&STO_CR_M1, &wAux);
 80017dc:	f005 fc70 	bl	80070c0 <STO_CR_CalcAvrgMecSpeedUnit>
  (void)ENC_CalcAvrgMecSpeedUnit(&ENCODER_M1, &wAux);
 80017e0:	f10d 0106 	add.w	r1, sp, #6
 80017e4:	489f      	ldr	r0, [pc, #636]	@ (8001a64 <TSK_MediumFrequencyTaskM1+0x29c>)
 80017e6:	f004 f83d 	bl	8005864 <ENC_CalcAvrgMecSpeedUnit>
  PQD_CalcElMotorPower(pMPM[M1]);
 80017ea:	6828      	ldr	r0, [r5, #0]
 80017ec:	f004 fb38 	bl	8005e60 <PQD_CalcElMotorPower>
  if (MCI_GetCurrentFaults(&Mci[M1]) == MC_NO_FAULTS)
 80017f0:	4620      	mov	r0, r4
 80017f2:	f7ff fce1 	bl	80011b8 <MCI_GetCurrentFaults>
 80017f6:	b118      	cbz	r0, 8001800 <TSK_MediumFrequencyTaskM1+0x38>
    Mci[M1].State = FAULT_NOW;
 80017f8:	230a      	movs	r3, #10
 80017fa:	77e3      	strb	r3, [r4, #31]
}
 80017fc:	b002      	add	sp, #8
 80017fe:	bd70      	pop	{r4, r5, r6, pc}
    if (MCI_GetOccurredFaults(&Mci[M1]) == MC_NO_FAULTS)
 8001800:	4620      	mov	r0, r4
 8001802:	f7ff fcd7 	bl	80011b4 <MCI_GetOccurredFaults>
 8001806:	bb78      	cbnz	r0, 8001868 <TSK_MediumFrequencyTaskM1+0xa0>
      switch (Mci[M1].State)
 8001808:	7fe3      	ldrb	r3, [r4, #31]
 800180a:	2b14      	cmp	r3, #20
 800180c:	d8f6      	bhi.n	80017fc <TSK_MediumFrequencyTaskM1+0x34>
 800180e:	a201      	add	r2, pc, #4	@ (adr r2, 8001814 <TSK_MediumFrequencyTaskM1+0x4c>)
 8001810:	f852 f023 	ldr.w	pc, [r2, r3, lsl #2]
 8001814:	080019b9 	.word	0x080019b9
 8001818:	080017fd 	.word	0x080017fd
 800181c:	08001967 	.word	0x08001967
 8001820:	080017fd 	.word	0x080017fd
 8001824:	080017fd 	.word	0x080017fd
 8001828:	080017fd 	.word	0x080017fd
 800182c:	08001953 	.word	0x08001953
 8001830:	080017fd 	.word	0x080017fd
 8001834:	08001947 	.word	0x08001947
 8001838:	080017fd 	.word	0x080017fd
 800183c:	08001869 	.word	0x08001869
 8001840:	08001939 	.word	0x08001939
 8001844:	080017fd 	.word	0x080017fd
 8001848:	080017fd 	.word	0x080017fd
 800184c:	080017fd 	.word	0x080017fd
 8001850:	080017fd 	.word	0x080017fd
 8001854:	080018e1 	.word	0x080018e1
 8001858:	080018af 	.word	0x080018af
 800185c:	080017fd 	.word	0x080017fd
 8001860:	080017fd 	.word	0x080017fd
 8001864:	08001871 	.word	0x08001871
      Mci[M1].State = FAULT_OVER;
 8001868:	230b      	movs	r3, #11
 800186a:	77e3      	strb	r3, [r4, #31]
}
 800186c:	b002      	add	sp, #8
 800186e:	bd70      	pop	{r4, r5, r6, pc}
          if (MCI_STOP == Mci[M1].DirectCommand)
 8001870:	7fa3      	ldrb	r3, [r4, #30]
 8001872:	2b05      	cmp	r3, #5
 8001874:	f000 80b0 	beq.w	80019d8 <TSK_MediumFrequencyTaskM1+0x210>
            if (TSK_StopPermanencyTimeHasElapsedM1())
 8001878:	f7ff ff9c 	bl	80017b4 <TSK_StopPermanencyTimeHasElapsedM1>
 800187c:	2800      	cmp	r0, #0
 800187e:	d0bd      	beq.n	80017fc <TSK_MediumFrequencyTaskM1+0x34>
              ENC_Clear(&ENCODER_M1);
 8001880:	4878      	ldr	r0, [pc, #480]	@ (8001a64 <TSK_MediumFrequencyTaskM1+0x29c>)
 8001882:	f003 ffc7 	bl	8005814 <ENC_Clear>
              R3_1_SwitchOnPWM(pwmcHandle[M1]);
 8001886:	4b78      	ldr	r3, [pc, #480]	@ (8001a68 <TSK_MediumFrequencyTaskM1+0x2a0>)
 8001888:	6818      	ldr	r0, [r3, #0]
 800188a:	f004 fc6d 	bl	8006168 <R3_1_SwitchOnPWM>
              FOC_InitAdditionalMethods(M1);
 800188e:	2000      	movs	r0, #0
 8001890:	f7ff ff62 	bl	8001758 <FOC_InitAdditionalMethods>
              STC_ForceSpeedReferenceToCurrentSpeed(pSTC[M1]); /* Init the reference speed to current speed */
 8001894:	4b75      	ldr	r3, [pc, #468]	@ (8001a6c <TSK_MediumFrequencyTaskM1+0x2a4>)
 8001896:	6818      	ldr	r0, [r3, #0]
 8001898:	f005 fa10 	bl	8006cbc <STC_ForceSpeedReferenceToCurrentSpeed>
              MCI_ExecBufferedCommands(&Mci[M1]); /* Exec the speed ramp after changing of the speed sensor */
 800189c:	4870      	ldr	r0, [pc, #448]	@ (8001a60 <TSK_MediumFrequencyTaskM1+0x298>)
 800189e:	f7ff fc4b 	bl	8001138 <MCI_ExecBufferedCommands>
              FOC_CalcCurrRef(M1);
 80018a2:	2000      	movs	r0, #0
 80018a4:	f7ff ff5a 	bl	800175c <FOC_CalcCurrRef>
              Mci[M1].State = RUN;
 80018a8:	2306      	movs	r3, #6
 80018aa:	77e3      	strb	r3, [r4, #31]
 80018ac:	e7a6      	b.n	80017fc <TSK_MediumFrequencyTaskM1+0x34>
          if (MCI_STOP == Mci[M1].DirectCommand)
 80018ae:	7fa3      	ldrb	r3, [r4, #30]
            if (pwmcHandle[M1]->offsetCalibStatus == false)
 80018b0:	4e6d      	ldr	r6, [pc, #436]	@ (8001a68 <TSK_MediumFrequencyTaskM1+0x2a0>)
          if (MCI_STOP == Mci[M1].DirectCommand)
 80018b2:	2b05      	cmp	r3, #5
            if (pwmcHandle[M1]->offsetCalibStatus == false)
 80018b4:	6830      	ldr	r0, [r6, #0]
          if (MCI_STOP == Mci[M1].DirectCommand)
 80018b6:	f000 8091 	beq.w	80019dc <TSK_MediumFrequencyTaskM1+0x214>
            if (PWMC_CurrentReadingCalibr(pwmcHandle[M1], CRC_EXEC))
 80018ba:	2101      	movs	r1, #1
 80018bc:	f000 fde0 	bl	8002480 <PWMC_CurrentReadingCalibr>
 80018c0:	2800      	cmp	r0, #0
 80018c2:	d09b      	beq.n	80017fc <TSK_MediumFrequencyTaskM1+0x34>
              if (MCI_MEASURE_OFFSETS == Mci[M1].DirectCommand)
 80018c4:	7fa3      	ldrb	r3, [r4, #30]
 80018c6:	2b03      	cmp	r3, #3
 80018c8:	f000 80a6 	beq.w	8001a18 <TSK_MediumFrequencyTaskM1+0x250>
                R3_1_TurnOnLowSides(pwmcHandle[M1],M1_CHARGE_BOOT_CAP_DUTY_CYCLES);
 80018cc:	6830      	ldr	r0, [r6, #0]
 80018ce:	2100      	movs	r1, #0
 80018d0:	f004 fd42 	bl	8006358 <R3_1_TurnOnLowSides>
                TSK_SetChargeBootCapDelayM1(M1_CHARGE_BOOT_CAP_TICKS);
 80018d4:	2014      	movs	r0, #20
 80018d6:	f7ff ff57 	bl	8001788 <TSK_SetChargeBootCapDelayM1>
                Mci[M1].State = CHARGE_BOOT_CAP;
 80018da:	2310      	movs	r3, #16
 80018dc:	77e3      	strb	r3, [r4, #31]
 80018de:	e78d      	b.n	80017fc <TSK_MediumFrequencyTaskM1+0x34>
          if (MCI_STOP == Mci[M1].DirectCommand)
 80018e0:	7fa3      	ldrb	r3, [r4, #30]
 80018e2:	2b05      	cmp	r3, #5
 80018e4:	d078      	beq.n	80019d8 <TSK_MediumFrequencyTaskM1+0x210>
            if (TSK_ChargeBootCapDelayHasElapsedM1())
 80018e6:	f7ff ff55 	bl	8001794 <TSK_ChargeBootCapDelayHasElapsedM1>
 80018ea:	2800      	cmp	r0, #0
 80018ec:	d086      	beq.n	80017fc <TSK_MediumFrequencyTaskM1+0x34>
              R3_1_SwitchOffPWM(pwmcHandle[M1]);
 80018ee:	4d5e      	ldr	r5, [pc, #376]	@ (8001a68 <TSK_MediumFrequencyTaskM1+0x2a0>)
              STC_SetSpeedSensor( pSTC[M1], &VirtualSpeedSensorM1._Super );
 80018f0:	4e5e      	ldr	r6, [pc, #376]	@ (8001a6c <TSK_MediumFrequencyTaskM1+0x2a4>)
              R3_1_SwitchOffPWM(pwmcHandle[M1]);
 80018f2:	6828      	ldr	r0, [r5, #0]
 80018f4:	f004 fc82 	bl	80061fc <R3_1_SwitchOffPWM>
              FOCVars[M1].bDriveInput = EXTERNAL;
 80018f8:	4b5d      	ldr	r3, [pc, #372]	@ (8001a70 <TSK_MediumFrequencyTaskM1+0x2a8>)
              STC_SetSpeedSensor( pSTC[M1], &VirtualSpeedSensorM1._Super );
 80018fa:	495e      	ldr	r1, [pc, #376]	@ (8001a74 <TSK_MediumFrequencyTaskM1+0x2ac>)
 80018fc:	6830      	ldr	r0, [r6, #0]
              FOCVars[M1].bDriveInput = EXTERNAL;
 80018fe:	2201      	movs	r2, #1
 8001900:	f883 2024 	strb.w	r2, [r3, #36]	@ 0x24
              STC_SetSpeedSensor( pSTC[M1], &VirtualSpeedSensorM1._Super );
 8001904:	f005 f93a 	bl	8006b7c <STC_SetSpeedSensor>
              ENC_Clear(&ENCODER_M1);
 8001908:	4856      	ldr	r0, [pc, #344]	@ (8001a64 <TSK_MediumFrequencyTaskM1+0x29c>)
 800190a:	f003 ff83 	bl	8005814 <ENC_Clear>
              STO_CR_Clear(&STO_CR_M1);
 800190e:	4852      	ldr	r0, [pc, #328]	@ (8001a58 <TSK_MediumFrequencyTaskM1+0x290>)
 8001910:	f005 fc78 	bl	8007204 <STO_CR_Clear>
              FOC_Clear( M1 );
 8001914:	2000      	movs	r0, #0
 8001916:	f7ff fe43 	bl	80015a0 <FOC_Clear>
              if (EAC_IsAligned(&EncAlignCtrlM1) == false)
 800191a:	4857      	ldr	r0, [pc, #348]	@ (8001a78 <TSK_MediumFrequencyTaskM1+0x2b0>)
 800191c:	f003 ff3e 	bl	800579c <EAC_IsAligned>
 8001920:	2800      	cmp	r0, #0
 8001922:	f040 8082 	bne.w	8001a2a <TSK_MediumFrequencyTaskM1+0x262>
                EAC_StartAlignment(&EncAlignCtrlM1);
 8001926:	4854      	ldr	r0, [pc, #336]	@ (8001a78 <TSK_MediumFrequencyTaskM1+0x2b0>)
 8001928:	f003 fef8 	bl	800571c <EAC_StartAlignment>
                Mci[M1].State = ALIGNMENT;
 800192c:	2302      	movs	r3, #2
              PWMC_SwitchOnPWM(pwmcHandle[M1]);
 800192e:	6828      	ldr	r0, [r5, #0]
                Mci[M1].State = ALIGNMENT;
 8001930:	77e3      	strb	r3, [r4, #31]
              PWMC_SwitchOnPWM(pwmcHandle[M1]);
 8001932:	f000 fda3 	bl	800247c <PWMC_SwitchOnPWM>
 8001936:	e761      	b.n	80017fc <TSK_MediumFrequencyTaskM1+0x34>
          if (MCI_ACK_FAULTS == Mci[M1].DirectCommand)
 8001938:	7fa3      	ldrb	r3, [r4, #30]
 800193a:	2b02      	cmp	r3, #2
 800193c:	f47f af5e 	bne.w	80017fc <TSK_MediumFrequencyTaskM1+0x34>
            Mci[M1].DirectCommand = MCI_NO_COMMAND;
 8001940:	2300      	movs	r3, #0
 8001942:	83e3      	strh	r3, [r4, #30]
 8001944:	e75a      	b.n	80017fc <TSK_MediumFrequencyTaskM1+0x34>
          if (TSK_StopPermanencyTimeHasElapsedM1())
 8001946:	f7ff ff35 	bl	80017b4 <TSK_StopPermanencyTimeHasElapsedM1>
 800194a:	2800      	cmp	r0, #0
 800194c:	f43f af56 	beq.w	80017fc <TSK_MediumFrequencyTaskM1+0x34>
 8001950:	e7f6      	b.n	8001940 <TSK_MediumFrequencyTaskM1+0x178>
          if (MCI_STOP == Mci[M1].DirectCommand)
 8001952:	7fa3      	ldrb	r3, [r4, #30]
 8001954:	2b05      	cmp	r3, #5
 8001956:	d03f      	beq.n	80019d8 <TSK_MediumFrequencyTaskM1+0x210>
            MCI_ExecBufferedCommands(&Mci[M1]);
 8001958:	4841      	ldr	r0, [pc, #260]	@ (8001a60 <TSK_MediumFrequencyTaskM1+0x298>)
 800195a:	f7ff fbed 	bl	8001138 <MCI_ExecBufferedCommands>
              FOC_CalcCurrRef(M1);
 800195e:	2000      	movs	r0, #0
 8001960:	f7ff fefc 	bl	800175c <FOC_CalcCurrRef>
 8001964:	e74a      	b.n	80017fc <TSK_MediumFrequencyTaskM1+0x34>
          if (MCI_STOP == Mci[M1].DirectCommand)
 8001966:	7fa3      	ldrb	r3, [r4, #30]
 8001968:	2b05      	cmp	r3, #5
 800196a:	d035      	beq.n	80019d8 <TSK_MediumFrequencyTaskM1+0x210>
            bool isAligned = EAC_IsAligned(&EncAlignCtrlM1);
 800196c:	4842      	ldr	r0, [pc, #264]	@ (8001a78 <TSK_MediumFrequencyTaskM1+0x2b0>)
 800196e:	f003 ff15 	bl	800579c <EAC_IsAligned>
 8001972:	4605      	mov	r5, r0
            bool EACDone = EAC_Exec(&EncAlignCtrlM1);
 8001974:	4840      	ldr	r0, [pc, #256]	@ (8001a78 <TSK_MediumFrequencyTaskM1+0x2b0>)
 8001976:	f003 fef9 	bl	800576c <EAC_Exec>
 800197a:	4606      	mov	r6, r0
            if ((isAligned == false)  && (EACDone == false))
 800197c:	b90d      	cbnz	r5, 8001982 <TSK_MediumFrequencyTaskM1+0x1ba>
 800197e:	2800      	cmp	r0, #0
 8001980:	d042      	beq.n	8001a08 <TSK_MediumFrequencyTaskM1+0x240>
              R3_1_SwitchOffPWM( pwmcHandle[M1] );
 8001982:	4d39      	ldr	r5, [pc, #228]	@ (8001a68 <TSK_MediumFrequencyTaskM1+0x2a0>)
              STC_SetControlMode(pSTC[M1], MCM_SPEED_MODE);
 8001984:	4e39      	ldr	r6, [pc, #228]	@ (8001a6c <TSK_MediumFrequencyTaskM1+0x2a4>)
              R3_1_SwitchOffPWM( pwmcHandle[M1] );
 8001986:	6828      	ldr	r0, [r5, #0]
 8001988:	f004 fc38 	bl	80061fc <R3_1_SwitchOffPWM>
              STC_SetControlMode(pSTC[M1], MCM_SPEED_MODE);
 800198c:	6830      	ldr	r0, [r6, #0]
 800198e:	2103      	movs	r1, #3
 8001990:	f005 f908 	bl	8006ba4 <STC_SetControlMode>
              STC_SetSpeedSensor(pSTC[M1], &ENCODER_M1._Super);
 8001994:	4933      	ldr	r1, [pc, #204]	@ (8001a64 <TSK_MediumFrequencyTaskM1+0x29c>)
 8001996:	6830      	ldr	r0, [r6, #0]
 8001998:	f005 f8f0 	bl	8006b7c <STC_SetSpeedSensor>
              FOC_Clear(M1);
 800199c:	2000      	movs	r0, #0
 800199e:	f7ff fdff 	bl	80015a0 <FOC_Clear>
              R3_1_TurnOnLowSides(pwmcHandle[M1],M1_CHARGE_BOOT_CAP_DUTY_CYCLES);
 80019a2:	6828      	ldr	r0, [r5, #0]
 80019a4:	2100      	movs	r1, #0
 80019a6:	f004 fcd7 	bl	8006358 <R3_1_TurnOnLowSides>
              TSK_SetStopPermanencyTimeM1(STOPPERMANENCY_TICKS);
 80019aa:	f44f 7048 	mov.w	r0, #800	@ 0x320
 80019ae:	f7ff fefb 	bl	80017a8 <TSK_SetStopPermanencyTimeM1>
              Mci[M1].State = WAIT_STOP_MOTOR;
 80019b2:	2314      	movs	r3, #20
 80019b4:	77e3      	strb	r3, [r4, #31]
 80019b6:	e721      	b.n	80017fc <TSK_MediumFrequencyTaskM1+0x34>
          if ((MCI_START == Mci[M1].DirectCommand) || (MCI_MEASURE_OFFSETS == Mci[M1].DirectCommand))
 80019b8:	7fa3      	ldrb	r3, [r4, #30]
 80019ba:	f003 03fd 	and.w	r3, r3, #253	@ 0xfd
 80019be:	2b01      	cmp	r3, #1
 80019c0:	f47f af1c 	bne.w	80017fc <TSK_MediumFrequencyTaskM1+0x34>
            if (pwmcHandle[M1]->offsetCalibStatus == false)
 80019c4:	4d28      	ldr	r5, [pc, #160]	@ (8001a68 <TSK_MediumFrequencyTaskM1+0x2a0>)
 80019c6:	6828      	ldr	r0, [r5, #0]
 80019c8:	f890 1081 	ldrb.w	r1, [r0, #129]	@ 0x81
 80019cc:	b9a9      	cbnz	r1, 80019fa <TSK_MediumFrequencyTaskM1+0x232>
              (void)PWMC_CurrentReadingCalibr(pwmcHandle[M1], CRC_START);
 80019ce:	f000 fd57 	bl	8002480 <PWMC_CurrentReadingCalibr>
              Mci[M1].State = OFFSET_CALIB;
 80019d2:	2311      	movs	r3, #17
 80019d4:	77e3      	strb	r3, [r4, #31]
 80019d6:	e711      	b.n	80017fc <TSK_MediumFrequencyTaskM1+0x34>
    R3_1_SwitchOffPWM(pwmcHandle[motor]);
 80019d8:	4b23      	ldr	r3, [pc, #140]	@ (8001a68 <TSK_MediumFrequencyTaskM1+0x2a0>)
 80019da:	6818      	ldr	r0, [r3, #0]
 80019dc:	f004 fc0e 	bl	80061fc <R3_1_SwitchOffPWM>
  FOC_Clear(motor);
 80019e0:	2000      	movs	r0, #0
 80019e2:	f7ff fddd 	bl	80015a0 <FOC_Clear>
  PQD_Clear(pMPM[motor]);
 80019e6:	6828      	ldr	r0, [r5, #0]
 80019e8:	f004 fa56 	bl	8005e98 <PQD_Clear>
  TSK_SetStopPermanencyTimeM1(STOPPERMANENCY_TICKS);
 80019ec:	f44f 7048 	mov.w	r0, #800	@ 0x320
 80019f0:	f7ff feda 	bl	80017a8 <TSK_SetStopPermanencyTimeM1>
  Mci[motor].State = STOP;
 80019f4:	2308      	movs	r3, #8
 80019f6:	77e3      	strb	r3, [r4, #31]
}
 80019f8:	e700      	b.n	80017fc <TSK_MediumFrequencyTaskM1+0x34>
              (void)PWMC_CurrentReadingCalibr(pwmcHandle[M1], CRC_EXEC);
 80019fa:	4619      	mov	r1, r3
              pwmcHandle[M1]->OffCalibrWaitTimeCounter = 1u;
 80019fc:	f8a0 3060 	strh.w	r3, [r0, #96]	@ 0x60
              (void)PWMC_CurrentReadingCalibr(pwmcHandle[M1], CRC_EXEC);
 8001a00:	f000 fd3e 	bl	8002480 <PWMC_CurrentReadingCalibr>
              R3_1_TurnOnLowSides(pwmcHandle[M1],M1_CHARGE_BOOT_CAP_DUTY_CYCLES);
 8001a04:	6828      	ldr	r0, [r5, #0]
 8001a06:	e762      	b.n	80018ce <TSK_MediumFrequencyTaskM1+0x106>
              IqdRef.d = STC_CalcTorqueReference(pSTC[M1]);
 8001a08:	4b18      	ldr	r3, [pc, #96]	@ (8001a6c <TSK_MediumFrequencyTaskM1+0x2a4>)
 8001a0a:	6818      	ldr	r0, [r3, #0]
 8001a0c:	f005 f912 	bl	8006c34 <STC_CalcTorqueReference>
              FOCVars[M1].Iqdref = IqdRef;
 8001a10:	4b17      	ldr	r3, [pc, #92]	@ (8001a70 <TSK_MediumFrequencyTaskM1+0x2a8>)
 8001a12:	821e      	strh	r6, [r3, #16]
 8001a14:	8258      	strh	r0, [r3, #18]
            {
 8001a16:	e6f1      	b.n	80017fc <TSK_MediumFrequencyTaskM1+0x34>
                FOC_Clear(M1);
 8001a18:	2000      	movs	r0, #0
 8001a1a:	f7ff fdc1 	bl	80015a0 <FOC_Clear>
                PQD_Clear(pMPM[M1]);
 8001a1e:	6828      	ldr	r0, [r5, #0]
 8001a20:	f004 fa3a 	bl	8005e98 <PQD_Clear>
                Mci[M1].DirectCommand = MCI_NO_COMMAND;
 8001a24:	2300      	movs	r3, #0
 8001a26:	83e3      	strh	r3, [r4, #30]
 8001a28:	e6e8      	b.n	80017fc <TSK_MediumFrequencyTaskM1+0x34>
                STC_SetControlMode(pSTC[M1], MCM_SPEED_MODE);
 8001a2a:	6830      	ldr	r0, [r6, #0]
 8001a2c:	2103      	movs	r1, #3
 8001a2e:	f005 f8b9 	bl	8006ba4 <STC_SetControlMode>
                STC_SetSpeedSensor(pSTC[M1], &ENCODER_M1._Super);
 8001a32:	490c      	ldr	r1, [pc, #48]	@ (8001a64 <TSK_MediumFrequencyTaskM1+0x29c>)
 8001a34:	6830      	ldr	r0, [r6, #0]
 8001a36:	f005 f8a1 	bl	8006b7c <STC_SetSpeedSensor>
                FOC_InitAdditionalMethods(M1);
 8001a3a:	2000      	movs	r0, #0
 8001a3c:	f7ff fe8c 	bl	8001758 <FOC_InitAdditionalMethods>
                FOC_CalcCurrRef(M1);
 8001a40:	2000      	movs	r0, #0
 8001a42:	f7ff fe8b 	bl	800175c <FOC_CalcCurrRef>
                STC_ForceSpeedReferenceToCurrentSpeed(pSTC[M1]); /* Init the reference speed to current speed */
 8001a46:	6830      	ldr	r0, [r6, #0]
 8001a48:	f005 f938 	bl	8006cbc <STC_ForceSpeedReferenceToCurrentSpeed>
                MCI_ExecBufferedCommands(&Mci[M1]); /* Exec the speed ramp after changing of the speed sensor */
 8001a4c:	4804      	ldr	r0, [pc, #16]	@ (8001a60 <TSK_MediumFrequencyTaskM1+0x298>)
 8001a4e:	f7ff fb73 	bl	8001138 <MCI_ExecBufferedCommands>
 8001a52:	2306      	movs	r3, #6
 8001a54:	e76b      	b.n	800192e <TSK_MediumFrequencyTaskM1+0x166>
 8001a56:	bf00      	nop
 8001a58:	20000110 	.word	0x20000110
 8001a5c:	20000000 	.word	0x20000000
 8001a60:	20000728 	.word	0x20000728
 8001a64:	20000090 	.word	0x20000090
 8001a68:	2000076c 	.word	0x2000076c
 8001a6c:	2000000c 	.word	0x2000000c
 8001a70:	20000774 	.word	0x20000774
 8001a74:	20000294 	.word	0x20000294
 8001a78:	20000074 	.word	0x20000074

08001a7c <MC_Scheduler>:
  if (((uint8_t)1) == bMCBootCompleted)
 8001a7c:	4b1d      	ldr	r3, [pc, #116]	@ (8001af4 <MC_Scheduler+0x78>)
 8001a7e:	781b      	ldrb	r3, [r3, #0]
 8001a80:	2b01      	cmp	r3, #1
 8001a82:	d000      	beq.n	8001a86 <MC_Scheduler+0xa>
 8001a84:	4770      	bx	lr
{
 8001a86:	b570      	push	{r4, r5, r6, lr}
    if(hMFTaskCounterM1 > 0u)
 8001a88:	4c1b      	ldr	r4, [pc, #108]	@ (8001af8 <MC_Scheduler+0x7c>)
 8001a8a:	8823      	ldrh	r3, [r4, #0]
 8001a8c:	b19b      	cbz	r3, 8001ab6 <MC_Scheduler+0x3a>
      hMFTaskCounterM1--;
 8001a8e:	3b01      	subs	r3, #1
 8001a90:	b29b      	uxth	r3, r3
    if(hBootCapDelayCounterM1 > 0U)
 8001a92:	4a1a      	ldr	r2, [pc, #104]	@ (8001afc <MC_Scheduler+0x80>)
      hMFTaskCounterM1--;
 8001a94:	8023      	strh	r3, [r4, #0]
    if(hBootCapDelayCounterM1 > 0U)
 8001a96:	8813      	ldrh	r3, [r2, #0]
 8001a98:	b29b      	uxth	r3, r3
 8001a9a:	b11b      	cbz	r3, 8001aa4 <MC_Scheduler+0x28>
      hBootCapDelayCounterM1--;
 8001a9c:	8813      	ldrh	r3, [r2, #0]
 8001a9e:	3b01      	subs	r3, #1
 8001aa0:	b29b      	uxth	r3, r3
 8001aa2:	8013      	strh	r3, [r2, #0]
    if(hStopPermanencyCounterM1 > 0U)
 8001aa4:	4a16      	ldr	r2, [pc, #88]	@ (8001b00 <MC_Scheduler+0x84>)
 8001aa6:	8813      	ldrh	r3, [r2, #0]
 8001aa8:	b29b      	uxth	r3, r3
 8001aaa:	b11b      	cbz	r3, 8001ab4 <MC_Scheduler+0x38>
      hStopPermanencyCounterM1--;
 8001aac:	8813      	ldrh	r3, [r2, #0]
 8001aae:	3b01      	subs	r3, #1
 8001ab0:	b29b      	uxth	r3, r3
 8001ab2:	8013      	strh	r3, [r2, #0]
}
 8001ab4:	bd70      	pop	{r4, r5, r6, pc}
      MCP_Over_UartA.rxBuffer = MCP_Over_UartA.pTransportLayer->fRXPacketProcess(MCP_Over_UartA.pTransportLayer,
 8001ab6:	4d13      	ldr	r5, [pc, #76]	@ (8001b04 <MC_Scheduler+0x88>)
      TSK_MediumFrequencyTaskM1();
 8001ab8:	f7ff fe86 	bl	80017c8 <TSK_MediumFrequencyTaskM1>
      MC_APP_PostMediumFrequencyHook_M1();
 8001abc:	f7ff fb00 	bl	80010c0 <MC_APP_PostMediumFrequencyHook_M1>
      MCP_Over_UartA.rxBuffer = MCP_Over_UartA.pTransportLayer->fRXPacketProcess(MCP_Over_UartA.pTransportLayer,
 8001ac0:	4629      	mov	r1, r5
 8001ac2:	f851 0b0c 	ldr.w	r0, [r1], #12
 8001ac6:	6883      	ldr	r3, [r0, #8]
 8001ac8:	4798      	blx	r3
 8001aca:	6068      	str	r0, [r5, #4]
      if ( 0U == MCP_Over_UartA.rxBuffer)
 8001acc:	b130      	cbz	r0, 8001adc <MC_Scheduler+0x60>
        if (0U == MCP_Over_UartA.pTransportLayer->fGetBuffer(MCP_Over_UartA.pTransportLayer,
 8001ace:	4629      	mov	r1, r5
 8001ad0:	220a      	movs	r2, #10
 8001ad2:	f851 0b08 	ldr.w	r0, [r1], #8
 8001ad6:	6803      	ldr	r3, [r0, #0]
 8001ad8:	4798      	blx	r3
 8001ada:	b908      	cbnz	r0, 8001ae0 <MC_Scheduler+0x64>
{
 8001adc:	2301      	movs	r3, #1
 8001ade:	e7d8      	b.n	8001a92 <MC_Scheduler+0x16>
          MCP_ReceivedPacket(&MCP_Over_UartA);
 8001ae0:	4628      	mov	r0, r5
 8001ae2:	f000 fa59 	bl	8001f98 <MCP_ReceivedPacket>
          MCP_Over_UartA.pTransportLayer->fSendPacket(MCP_Over_UartA.pTransportLayer, MCP_Over_UartA.txBuffer,
 8001ae6:	6828      	ldr	r0, [r5, #0]
 8001ae8:	89ea      	ldrh	r2, [r5, #14]
 8001aea:	6846      	ldr	r6, [r0, #4]
 8001aec:	68a9      	ldr	r1, [r5, #8]
 8001aee:	230a      	movs	r3, #10
 8001af0:	47b0      	blx	r6
 8001af2:	e7f3      	b.n	8001adc <MC_Scheduler+0x60>
 8001af4:	20000764 	.word	0x20000764
 8001af8:	2000076a 	.word	0x2000076a
 8001afc:	20000768 	.word	0x20000768
 8001b00:	20000766 	.word	0x20000766
 8001b04:	20000484 	.word	0x20000484

08001b08 <TSK_HighFrequencyTask>:
  * subsystem (see the state machine(s)).
  *
  * @retval Number of the  motor instance which FOC loop was executed.
  */
__weak uint8_t TSK_HighFrequencyTask(void)
{
 8001b08:	e92d 41f0 	stmdb	sp!, {r4, r5, r6, r7, r8, lr}
  /* USER CODE BEGIN HighFrequencyTask 0 */

  /* USER CODE END HighFrequencyTask 0 */

  Observer_Inputs_t STO_aux_Inputs; /* Only if sensorless aux */
  STO_aux_Inputs.Valfa_beta = FOCVars[M1].Valphabeta;  /* Only if sensorless */
 8001b0c:	4c3d      	ldr	r4, [pc, #244]	@ (8001c04 <TSK_HighFrequencyTask+0xfc>)
  int16_t hElAngle;
  uint16_t hCodeError;
  SpeednPosFdbk_Handle_t *speedHandle;
  speedHandle = STC_GetSpeedSensor(pSTC[M1]);
  hElAngle = SPD_GetElAngle(speedHandle);
  PWMC_GetPhaseCurrents(pwmcHandle[M1], &Iab);
 8001b0e:	f8df 8120 	ldr.w	r8, [pc, #288]	@ 8001c30 <TSK_HighFrequencyTask+0x128>
  STO_aux_Inputs.Valfa_beta = FOCVars[M1].Valphabeta;  /* Only if sensorless */
 8001b12:	f8d4 001a 	ldr.w	r0, [r4, #26]
{
 8001b16:	b088      	sub	sp, #32
  STO_aux_Inputs.Valfa_beta = FOCVars[M1].Valphabeta;  /* Only if sensorless */
 8001b18:	9005      	str	r0, [sp, #20]
  (void)ENC_CalcAngle(&ENCODER_M1);   /* If not sensorless then 2nd parameter is MC_NULL */
 8001b1a:	483b      	ldr	r0, [pc, #236]	@ (8001c08 <TSK_HighFrequencyTask+0x100>)
 8001b1c:	f003 fe88 	bl	8005830 <ENC_CalcAngle>
  speedHandle = STC_GetSpeedSensor(pSTC[M1]);
 8001b20:	4b3a      	ldr	r3, [pc, #232]	@ (8001c0c <TSK_HighFrequencyTask+0x104>)
 8001b22:	6818      	ldr	r0, [r3, #0]
 8001b24:	f005 f82c 	bl	8006b80 <STC_GetSpeedSensor>
 8001b28:	4607      	mov	r7, r0
  hElAngle = SPD_GetElAngle(speedHandle);
 8001b2a:	f004 ffc5 	bl	8006ab8 <SPD_GetElAngle>
  PWMC_GetPhaseCurrents(pwmcHandle[M1], &Iab);
 8001b2e:	a902      	add	r1, sp, #8
  hElAngle = SPD_GetElAngle(speedHandle);
 8001b30:	4605      	mov	r5, r0
  PWMC_GetPhaseCurrents(pwmcHandle[M1], &Iab);
 8001b32:	f8d8 0000 	ldr.w	r0, [r8]
 8001b36:	f000 fb23 	bl	8002180 <PWMC_GetPhaseCurrents>
  Ialphabeta = MCM_Clarke(Iab);
 8001b3a:	9802      	ldr	r0, [sp, #8]
 8001b3c:	f7ff fc22 	bl	8001384 <MCM_Clarke>
  Iqd = MCM_Park(Ialphabeta, hElAngle);
 8001b40:	4629      	mov	r1, r5
  Ialphabeta = MCM_Clarke(Iab);
 8001b42:	9003      	str	r0, [sp, #12]
  Iqd = MCM_Park(Ialphabeta, hElAngle);
 8001b44:	f7ff fc94 	bl	8001470 <MCM_Park>
  Vqd.q = PI_Controller(pPIDIq[M1], (int32_t)(FOCVars[M1].Iqdref.q) - Iqd.q);
 8001b48:	4b31      	ldr	r3, [pc, #196]	@ (8001c10 <TSK_HighFrequencyTask+0x108>)
 8001b4a:	f9b4 1010 	ldrsh.w	r1, [r4, #16]
  Iqd = MCM_Park(Ialphabeta, hElAngle);
 8001b4e:	9000      	str	r0, [sp, #0]
  Vqd.q = PI_Controller(pPIDIq[M1], (int32_t)(FOCVars[M1].Iqdref.q) - Iqd.q);
 8001b50:	b200      	sxth	r0, r0
 8001b52:	1a09      	subs	r1, r1, r0
 8001b54:	6818      	ldr	r0, [r3, #0]
 8001b56:	f004 f943 	bl	8005de0 <PI_Controller>
  Vqd.d = PI_Controller(pPIDId[M1], (int32_t)(FOCVars[M1].Iqdref.d) - Iqd.d);
 8001b5a:	f9bd 3002 	ldrsh.w	r3, [sp, #2]
 8001b5e:	f9b4 1012 	ldrsh.w	r1, [r4, #18]
 8001b62:	1ac9      	subs	r1, r1, r3
 8001b64:	4b2b      	ldr	r3, [pc, #172]	@ (8001c14 <TSK_HighFrequencyTask+0x10c>)
  Vqd.q = PI_Controller(pPIDIq[M1], (int32_t)(FOCVars[M1].Iqdref.q) - Iqd.q);
 8001b66:	4606      	mov	r6, r0
  Vqd.d = PI_Controller(pPIDId[M1], (int32_t)(FOCVars[M1].Iqdref.d) - Iqd.d);
 8001b68:	6818      	ldr	r0, [r3, #0]
 8001b6a:	f004 f939 	bl	8005de0 <PI_Controller>
  Vqd = Circle_Limitation(&CircleLimitationM1, Vqd);
 8001b6e:	f8ad 6004 	strh.w	r6, [sp, #4]
 8001b72:	f8ad 0006 	strh.w	r0, [sp, #6]
 8001b76:	9901      	ldr	r1, [sp, #4]
 8001b78:	4827      	ldr	r0, [pc, #156]	@ (8001c18 <TSK_HighFrequencyTask+0x110>)
 8001b7a:	f003 fd99 	bl	80056b0 <Circle_Limitation>
 8001b7e:	4606      	mov	r6, r0
  hElAngle += SPD_GetInstElSpeedDpp(speedHandle)*REV_PARK_ANGLE_COMPENSATION_FACTOR;
 8001b80:	4638      	mov	r0, r7
  Vqd = Circle_Limitation(&CircleLimitationM1, Vqd);
 8001b82:	9601      	str	r6, [sp, #4]
  hElAngle += SPD_GetInstElSpeedDpp(speedHandle)*REV_PARK_ANGLE_COMPENSATION_FACTOR;
 8001b84:	f004 ffa0 	bl	8006ac8 <SPD_GetInstElSpeedDpp>
  Valphabeta = MCM_Rev_Park(Vqd, hElAngle);
 8001b88:	4629      	mov	r1, r5
 8001b8a:	9801      	ldr	r0, [sp, #4]
 8001b8c:	f7ff fcb2 	bl	80014f4 <MCM_Rev_Park>
 8001b90:	4601      	mov	r1, r0
  hCodeError = PWMC_SetPhaseVoltage(pwmcHandle[M1], Valphabeta);
 8001b92:	f8d8 0000 	ldr.w	r0, [r8]
  Valphabeta = MCM_Rev_Park(Vqd, hElAngle);
 8001b96:	9104      	str	r1, [sp, #16]
  hCodeError = PWMC_SetPhaseVoltage(pwmcHandle[M1], Valphabeta);
 8001b98:	f000 faf4 	bl	8002184 <PWMC_SetPhaseVoltage>

  FOCVars[M1].Vqd = Vqd;
  FOCVars[M1].Iab = Iab;
  FOCVars[M1].Ialphabeta = Ialphabeta;
 8001b9c:	e9dd 2302 	ldrd	r2, r3, [sp, #8]
  hCodeError = PWMC_SetPhaseVoltage(pwmcHandle[M1], Valphabeta);
 8001ba0:	4601      	mov	r1, r0
  FOCVars[M1].Ialphabeta = Ialphabeta;
 8001ba2:	e9c4 2300 	strd	r2, r3, [r4]
  FOCVars[M1].Iqd = Iqd;
  FOCVars[M1].Valphabeta = Valphabeta;
 8001ba6:	9804      	ldr	r0, [sp, #16]
  FOCVars[M1].Iqd = Iqd;
 8001ba8:	9a00      	ldr	r2, [sp, #0]
  FOCVars[M1].hElAngle = hElAngle;
 8001baa:	8425      	strh	r5, [r4, #32]
  if(hFOCreturn == MC_DURATION)
 8001bac:	2901      	cmp	r1, #1
  FOCVars[M1].Vqd = Vqd;
 8001bae:	f8c4 6016 	str.w	r6, [r4, #22]
  FOCVars[M1].Iqd = Iqd;
 8001bb2:	60e2      	str	r2, [r4, #12]
  FOCVars[M1].Valphabeta = Valphabeta;
 8001bb4:	f8c4 001a 	str.w	r0, [r4, #26]
  if(hFOCreturn == MC_DURATION)
 8001bb8:	d019      	beq.n	8001bee <TSK_HighFrequencyTask+0xe6>
    STO_aux_Inputs.Vbus = VBS_GetAvBusVoltage_d(&(BusVoltageSensor_M1._Super)); /* Only for sensorless */
 8001bba:	4818      	ldr	r0, [pc, #96]	@ (8001c1c <TSK_HighFrequencyTask+0x114>)
    STO_aux_Inputs.Ialfa_beta = FOCVars[M1].Ialphabeta; /* Only if sensorless */
 8001bbc:	9306      	str	r3, [sp, #24]
    STO_aux_Inputs.Vbus = VBS_GetAvBusVoltage_d(&(BusVoltageSensor_M1._Super)); /* Only for sensorless */
 8001bbe:	f003 fd6f 	bl	80056a0 <VBS_GetAvBusVoltage_d>
    (void)STO_CR_CalcElAngle (&STO_CR_M1, &STO_aux_Inputs);
 8001bc2:	a905      	add	r1, sp, #20
    STO_aux_Inputs.Vbus = VBS_GetAvBusVoltage_d(&(BusVoltageSensor_M1._Super)); /* Only for sensorless */
 8001bc4:	4603      	mov	r3, r0
    (void)STO_CR_CalcElAngle (&STO_CR_M1, &STO_aux_Inputs);
 8001bc6:	4816      	ldr	r0, [pc, #88]	@ (8001c20 <TSK_HighFrequencyTask+0x118>)
    STO_aux_Inputs.Vbus = VBS_GetAvBusVoltage_d(&(BusVoltageSensor_M1._Super)); /* Only for sensorless */
 8001bc8:	f8ad 301c 	strh.w	r3, [sp, #28]
    (void)STO_CR_CalcElAngle (&STO_CR_M1, &STO_aux_Inputs);
 8001bcc:	f005 f87e 	bl	8006ccc <STO_CR_CalcElAngle>
    STO_CR_CalcAvrgElSpeedDpp (&STO_CR_M1);
 8001bd0:	4813      	ldr	r0, [pc, #76]	@ (8001c20 <TSK_HighFrequencyTask+0x118>)
 8001bd2:	f005 fba3 	bl	800731c <STO_CR_CalcAvrgElSpeedDpp>
  GLOBAL_TIMESTAMP++;
 8001bd6:	4a13      	ldr	r2, [pc, #76]	@ (8001c24 <TSK_HighFrequencyTask+0x11c>)
  if (0U == MCPA_UART_A.Mark)
 8001bd8:	4813      	ldr	r0, [pc, #76]	@ (8001c28 <TSK_HighFrequencyTask+0x120>)
  GLOBAL_TIMESTAMP++;
 8001bda:	6813      	ldr	r3, [r2, #0]
  if (0U == MCPA_UART_A.Mark)
 8001bdc:	f890 1029 	ldrb.w	r1, [r0, #41]	@ 0x29
  GLOBAL_TIMESTAMP++;
 8001be0:	3301      	adds	r3, #1
 8001be2:	6013      	str	r3, [r2, #0]
  if (0U == MCPA_UART_A.Mark)
 8001be4:	b941      	cbnz	r1, 8001bf8 <TSK_HighFrequencyTask+0xf0>
}
 8001be6:	2000      	movs	r0, #0
 8001be8:	b008      	add	sp, #32
 8001bea:	e8bd 81f0 	ldmia.w	sp!, {r4, r5, r6, r7, r8, pc}
    MCI_FaultProcessing(&Mci[M1], MC_DURATION, 0);
 8001bee:	480f      	ldr	r0, [pc, #60]	@ (8001c2c <TSK_HighFrequencyTask+0x124>)
 8001bf0:	2200      	movs	r2, #0
 8001bf2:	f7ff fa95 	bl	8001120 <MCI_FaultProcessing>
 8001bf6:	e7ee      	b.n	8001bd6 <TSK_HighFrequencyTask+0xce>
    MCPA_dataLog (&MCPA_UART_A);
 8001bf8:	f003 ff22 	bl	8005a40 <MCPA_dataLog>
}
 8001bfc:	2000      	movs	r0, #0
 8001bfe:	b008      	add	sp, #32
 8001c00:	e8bd 81f0 	ldmia.w	sp!, {r4, r5, r6, r7, r8, pc}
 8001c04:	20000774 	.word	0x20000774
 8001c08:	20000090 	.word	0x20000090
 8001c0c:	2000000c 	.word	0x2000000c
 8001c10:	20000008 	.word	0x20000008
 8001c14:	20000004 	.word	0x20000004
 8001c18:	20000010 	.word	0x20000010
 8001c1c:	2000002c 	.word	0x2000002c
 8001c20:	20000110 	.word	0x20000110
 8001c24:	2000196c 	.word	0x2000196c
 8001c28:	20000458 	.word	0x20000458
 8001c2c:	20000728 	.word	0x20000728
 8001c30:	2000076c 	.word	0x2000076c

08001c34 <TSK_SafetyTask_PWMOFF>:
  * @brief  Safety task implementation if  MC.M1_ON_OVER_VOLTAGE == TURN_OFF_PWM.
  * @param  bMotor Motor reference number defined
  *         \link Motors_reference_number here \endlink.
  */
__weak void TSK_SafetyTask_PWMOFF(uint8_t bMotor)
{
 8001c34:	b5f8      	push	{r3, r4, r5, r6, r7, lr}

  /* USER CODE END TSK_SafetyTask_PWMOFF 0 */
  uint16_t CodeReturn = MC_NO_ERROR;
  const uint16_t errMask[NBR_OF_MOTORS] = {VBUS_TEMP_ERR_MASK};
  /* Check for fault if FW protection is activated. It returns MC_OVER_TEMP or MC_NO_ERROR */
  CodeReturn |= PWMC_IsFaultOccurred(pwmcHandle[bMotor]);     /* check for fault. It return MC_OVER_CURR or MC_NO_FAULTS
 8001c36:	4f20      	ldr	r7, [pc, #128]	@ (8001cb8 <TSK_SafetyTask_PWMOFF+0x84>)
{
 8001c38:	4604      	mov	r4, r0
  CodeReturn |= PWMC_IsFaultOccurred(pwmcHandle[bMotor]);     /* check for fault. It return MC_OVER_CURR or MC_NO_FAULTS
 8001c3a:	f857 0020 	ldr.w	r0, [r7, r0, lsl #2]
 8001c3e:	f000 fc47 	bl	80024d0 <PWMC_IsFaultOccurred>
 8001c42:	4605      	mov	r5, r0
                                                    (for STM32F30x can return MC_OVER_VOLT in case of HW Overvoltage) */
  if (M1 == bMotor)
 8001c44:	b344      	cbz	r4, 8001c98 <TSK_SafetyTask_PWMOFF+0x64>
  }
  else
  {
    /* Nothing to do */
  }
  MCI_FaultProcessing(&Mci[bMotor], CodeReturn, ~CodeReturn); /* Process faults */
 8001c46:	4e1d      	ldr	r6, [pc, #116]	@ (8001cbc <TSK_SafetyTask_PWMOFF+0x88>)
 8001c48:	eb04 0384 	add.w	r3, r4, r4, lsl #2
 8001c4c:	eb06 06c3 	add.w	r6, r6, r3, lsl #3
 8001c50:	43ea      	mvns	r2, r5
 8001c52:	4630      	mov	r0, r6
 8001c54:	b292      	uxth	r2, r2
 8001c56:	4629      	mov	r1, r5
 8001c58:	f7ff fa62 	bl	8001120 <MCI_FaultProcessing>

  if (MCI_GetFaultState(&Mci[bMotor]) != (uint32_t)MC_NO_FAULTS)
 8001c5c:	4630      	mov	r0, r6
 8001c5e:	f7ff fb0b 	bl	8001278 <MCI_GetFaultState>
 8001c62:	b1c0      	cbz	r0, 8001c96 <TSK_SafetyTask_PWMOFF+0x62>
  {
    /* Reset Encoder state */
    if (pEAC[bMotor] != MC_NULL)
 8001c64:	4b16      	ldr	r3, [pc, #88]	@ (8001cc0 <TSK_SafetyTask_PWMOFF+0x8c>)
 8001c66:	f853 0024 	ldr.w	r0, [r3, r4, lsl #2]
 8001c6a:	b110      	cbz	r0, 8001c72 <TSK_SafetyTask_PWMOFF+0x3e>
    {
      EAC_SetRestartState(pEAC[bMotor], false);
 8001c6c:	2100      	movs	r1, #0
 8001c6e:	f003 fd97 	bl	80057a0 <EAC_SetRestartState>
    }
    else
    {
      /* Nothing to do */
    }
    PWMC_SwitchOffPWM(pwmcHandle[bMotor]);
 8001c72:	f857 0024 	ldr.w	r0, [r7, r4, lsl #2]
 8001c76:	f000 fbff 	bl	8002478 <PWMC_SwitchOffPWM>
    if (MCPA_UART_A.Mark != 0U)
 8001c7a:	4812      	ldr	r0, [pc, #72]	@ (8001cc4 <TSK_SafetyTask_PWMOFF+0x90>)
 8001c7c:	f890 3029 	ldrb.w	r3, [r0, #41]	@ 0x29
 8001c80:	b9b3      	cbnz	r3, 8001cb0 <TSK_SafetyTask_PWMOFF+0x7c>
    }
    else
    {
      /* Nothing to do */
    }
    FOC_Clear(bMotor);
 8001c82:	4620      	mov	r0, r4
 8001c84:	f7ff fc8c 	bl	80015a0 <FOC_Clear>
    PQD_Clear(pMPM[bMotor]); //cstat !MISRAC2012-Rule-11.3
 8001c88:	4b0f      	ldr	r3, [pc, #60]	@ (8001cc8 <TSK_SafetyTask_PWMOFF+0x94>)
 8001c8a:	f853 0024 	ldr.w	r0, [r3, r4, lsl #2]
    /* No errors */
  }
  /* USER CODE BEGIN TSK_SafetyTask_PWMOFF 3 */

  /* USER CODE END TSK_SafetyTask_PWMOFF 3 */
}
 8001c8e:	e8bd 40f8 	ldmia.w	sp!, {r3, r4, r5, r6, r7, lr}
    PQD_Clear(pMPM[bMotor]); //cstat !MISRAC2012-Rule-11.3
 8001c92:	f004 b901 	b.w	8005e98 <PQD_Clear>
}
 8001c96:	bdf8      	pop	{r3, r4, r5, r6, r7, pc}
    uint16_t rawValueM1 =  RCM_ExecRegularConv(&VbusRegConv_M1);
 8001c98:	480c      	ldr	r0, [pc, #48]	@ (8001ccc <TSK_SafetyTask_PWMOFF+0x98>)
 8001c9a:	f001 fcbd 	bl	8003618 <RCM_ExecRegularConv>
 8001c9e:	4601      	mov	r1, r0
    CodeReturn |= errMask[bMotor] & RVBS_CalcAvVbus(&BusVoltageSensor_M1, rawValueM1);
 8001ca0:	480b      	ldr	r0, [pc, #44]	@ (8001cd0 <TSK_SafetyTask_PWMOFF+0x9c>)
 8001ca2:	f004 fed3 	bl	8006a4c <RVBS_CalcAvVbus>
 8001ca6:	f020 0008 	bic.w	r0, r0, #8
 8001caa:	4328      	orrs	r0, r5
 8001cac:	b285      	uxth	r5, r0
 8001cae:	e7ca      	b.n	8001c46 <TSK_SafetyTask_PWMOFF+0x12>
      MCPA_flushDataLog (&MCPA_UART_A);
 8001cb0:	f003 ff86 	bl	8005bc0 <MCPA_flushDataLog>
 8001cb4:	e7e5      	b.n	8001c82 <TSK_SafetyTask_PWMOFF+0x4e>
 8001cb6:	bf00      	nop
 8001cb8:	2000076c 	.word	0x2000076c
 8001cbc:	20000728 	.word	0x20000728
 8001cc0:	20000770 	.word	0x20000770
 8001cc4:	20000458 	.word	0x20000458
 8001cc8:	20000000 	.word	0x20000000
 8001ccc:	20000048 	.word	0x20000048
 8001cd0:	2000002c 	.word	0x2000002c

08001cd4 <TSK_SafetyTask>:
{
 8001cd4:	b508      	push	{r3, lr}
  if (1U == bMCBootCompleted)
 8001cd6:	4b06      	ldr	r3, [pc, #24]	@ (8001cf0 <TSK_SafetyTask+0x1c>)
 8001cd8:	781b      	ldrb	r3, [r3, #0]
 8001cda:	2b01      	cmp	r3, #1
 8001cdc:	d000      	beq.n	8001ce0 <TSK_SafetyTask+0xc>
}
 8001cde:	bd08      	pop	{r3, pc}
    TSK_SafetyTask_PWMOFF(M1);
 8001ce0:	2000      	movs	r0, #0
 8001ce2:	f7ff ffa7 	bl	8001c34 <TSK_SafetyTask_PWMOFF>
}
 8001ce6:	e8bd 4008 	ldmia.w	sp!, {r3, lr}
    RCM_ExecUserConv();
 8001cea:	f001 bccd 	b.w	8003688 <RCM_ExecUserConv>
 8001cee:	bf00      	nop
 8001cf0:	20000764 	.word	0x20000764

08001cf4 <MC_RunMotorControlTasks>:
{
 8001cf4:	b508      	push	{r3, lr}
  if (0U == bMCBootCompleted)
 8001cf6:	4b04      	ldr	r3, [pc, #16]	@ (8001d08 <MC_RunMotorControlTasks+0x14>)
 8001cf8:	781b      	ldrb	r3, [r3, #0]
 8001cfa:	b903      	cbnz	r3, 8001cfe <MC_RunMotorControlTasks+0xa>
}
 8001cfc:	bd08      	pop	{r3, pc}
    MC_Scheduler();
 8001cfe:	f7ff febd 	bl	8001a7c <MC_Scheduler>
    TSK_SafetyTask();
 8001d02:	f7ff ffe7 	bl	8001cd4 <TSK_SafetyTask>
}
 8001d06:	bd08      	pop	{r3, pc}
 8001d08:	20000764 	.word	0x20000764

08001d0c <TSK_HardwareFaultTask>:
  *
  *  This function is to be executed when a general hardware failure has been detected
  * by the microcontroller and is used to put the system in safety condition.
  */
__weak void TSK_HardwareFaultTask(void)
{
 8001d0c:	b508      	push	{r3, lr}
  /* USER CODE BEGIN TSK_HardwareFaultTask 0 */

  /* USER CODE END TSK_HardwareFaultTask 0 */
  R3_1_SwitchOffPWM(pwmcHandle[M1]);
 8001d0e:	4b05      	ldr	r3, [pc, #20]	@ (8001d24 <TSK_HardwareFaultTask+0x18>)
 8001d10:	6818      	ldr	r0, [r3, #0]
 8001d12:	f004 fa73 	bl	80061fc <R3_1_SwitchOffPWM>
  MCI_FaultProcessing(&Mci[M1], MC_SW_ERROR, 0);

  /* USER CODE BEGIN TSK_HardwareFaultTask 1 */

  /* USER CODE END TSK_HardwareFaultTask 1 */
}
 8001d16:	e8bd 4008 	ldmia.w	sp!, {r3, lr}
  MCI_FaultProcessing(&Mci[M1], MC_SW_ERROR, 0);
 8001d1a:	4803      	ldr	r0, [pc, #12]	@ (8001d28 <TSK_HardwareFaultTask+0x1c>)
 8001d1c:	2200      	movs	r2, #0
 8001d1e:	2180      	movs	r1, #128	@ 0x80
 8001d20:	f7ff b9fe 	b.w	8001120 <MCI_FaultProcessing>
 8001d24:	2000076c 	.word	0x2000076c
 8001d28:	20000728 	.word	0x20000728

08001d2c <UI_HandleStartStopButton_cb>:

__weak void UI_HandleStartStopButton_cb (void)
{
 8001d2c:	b508      	push	{r3, lr}
/* USER CODE BEGIN START_STOP_BTN */
  if (IDLE == MC_GetSTMStateMotor1())
 8001d2e:	f7ff f9bd 	bl	80010ac <MC_GetSTMStateMotor1>
 8001d32:	b918      	cbnz	r0, 8001d3c <UI_HandleStartStopButton_cb+0x10>
  else
  {
    (void)MC_StopMotor1();
  }
/* USER CODE END START_STOP_BTN */
}
 8001d34:	e8bd 4008 	ldmia.w	sp!, {r3, lr}
    (void)MC_StartMotor1();
 8001d38:	f7ff b9ac 	b.w	8001094 <MC_StartMotor1>
}
 8001d3c:	e8bd 4008 	ldmia.w	sp!, {r3, lr}
    (void)MC_StopMotor1();
 8001d40:	f7ff b9ae 	b.w	80010a0 <MC_StopMotor1>

08001d44 <mc_lock_pins>:

 /**
  * @brief  Locks GPIO pins used for Motor Control to prevent accidental reconfiguration.
  */
__weak void mc_lock_pins (void)
{
 8001d44:	b430      	push	{r4, r5}
  * @retval None
  */
__STATIC_INLINE void LL_GPIO_LockPin(GPIO_TypeDef *GPIOx, uint32_t PinMask)
{
  __IO uint32_t temp;
  WRITE_REG(GPIOx->LCKR, GPIO_LCKR_LCKK | PinMask);
 8001d46:	4a35      	ldr	r2, [pc, #212]	@ (8001e1c <mc_lock_pins+0xd8>)
 8001d48:	4835      	ldr	r0, [pc, #212]	@ (8001e20 <mc_lock_pins+0xdc>)
 8001d4a:	f44f 3181 	mov.w	r1, #66048	@ 0x10200
  WRITE_REG(GPIOx->LCKR, PinMask);
 8001d4e:	f44f 7400 	mov.w	r4, #512	@ 0x200
  WRITE_REG(GPIOx->LCKR, GPIO_LCKR_LCKK | PinMask);
 8001d52:	61d1      	str	r1, [r2, #28]
 8001d54:	b08c      	sub	sp, #48	@ 0x30
  WRITE_REG(GPIOx->LCKR, PinMask);
 8001d56:	61d4      	str	r4, [r2, #28]
  WRITE_REG(GPIOx->LCKR, GPIO_LCKR_LCKK | PinMask);
 8001d58:	61d1      	str	r1, [r2, #28]
  temp = READ_REG(GPIOx->LCKR);
 8001d5a:	69d3      	ldr	r3, [r2, #28]
 8001d5c:	930b      	str	r3, [sp, #44]	@ 0x2c
  WRITE_REG(GPIOx->LCKR, PinMask);
 8001d5e:	f44f 7580 	mov.w	r5, #256	@ 0x100
  (void) temp;
 8001d62:	9b0b      	ldr	r3, [sp, #44]	@ 0x2c
  WRITE_REG(GPIOx->LCKR, GPIO_LCKR_LCKK | PinMask);
 8001d64:	61d0      	str	r0, [r2, #28]
  WRITE_REG(GPIOx->LCKR, PinMask);
 8001d66:	61d5      	str	r5, [r2, #28]
  WRITE_REG(GPIOx->LCKR, GPIO_LCKR_LCKK | PinMask);
 8001d68:	61d0      	str	r0, [r2, #28]
  temp = READ_REG(GPIOx->LCKR);
 8001d6a:	69d3      	ldr	r3, [r2, #28]
 8001d6c:	930a      	str	r3, [sp, #40]	@ 0x28
  (void) temp;
 8001d6e:	9b0a      	ldr	r3, [sp, #40]	@ 0x28
  WRITE_REG(GPIOx->LCKR, GPIO_LCKR_LCKK | PinMask);
 8001d70:	4b2c      	ldr	r3, [pc, #176]	@ (8001e24 <mc_lock_pins+0xe0>)
 8001d72:	61d8      	str	r0, [r3, #28]
  WRITE_REG(GPIOx->LCKR, PinMask);
 8001d74:	61dd      	str	r5, [r3, #28]
  WRITE_REG(GPIOx->LCKR, GPIO_LCKR_LCKK | PinMask);
 8001d76:	61d8      	str	r0, [r3, #28]
  temp = READ_REG(GPIOx->LCKR);
 8001d78:	69d8      	ldr	r0, [r3, #28]
 8001d7a:	9009      	str	r0, [sp, #36]	@ 0x24
  (void) temp;
 8001d7c:	9809      	ldr	r0, [sp, #36]	@ 0x24
  WRITE_REG(GPIOx->LCKR, GPIO_LCKR_LCKK | PinMask);
 8001d7e:	61d9      	str	r1, [r3, #28]
  WRITE_REG(GPIOx->LCKR, PinMask);
 8001d80:	61dc      	str	r4, [r3, #28]
  WRITE_REG(GPIOx->LCKR, GPIO_LCKR_LCKK | PinMask);
 8001d82:	61d9      	str	r1, [r3, #28]
  temp = READ_REG(GPIOx->LCKR);
 8001d84:	69d9      	ldr	r1, [r3, #28]
 8001d86:	9108      	str	r1, [sp, #32]
  WRITE_REG(GPIOx->LCKR, PinMask);
 8001d88:	f44f 4080 	mov.w	r0, #16384	@ 0x4000
  WRITE_REG(GPIOx->LCKR, GPIO_LCKR_LCKK | PinMask);
 8001d8c:	f44f 31a0 	mov.w	r1, #81920	@ 0x14000
  (void) temp;
 8001d90:	9c08      	ldr	r4, [sp, #32]
  WRITE_REG(GPIOx->LCKR, GPIO_LCKR_LCKK | PinMask);
 8001d92:	61d1      	str	r1, [r2, #28]
  WRITE_REG(GPIOx->LCKR, PinMask);
 8001d94:	61d0      	str	r0, [r2, #28]
  WRITE_REG(GPIOx->LCKR, GPIO_LCKR_LCKK | PinMask);
 8001d96:	61d1      	str	r1, [r2, #28]
  temp = READ_REG(GPIOx->LCKR);
 8001d98:	69d1      	ldr	r1, [r2, #28]
 8001d9a:	9107      	str	r1, [sp, #28]
  WRITE_REG(GPIOx->LCKR, PinMask);
 8001d9c:	f44f 6080 	mov.w	r0, #1024	@ 0x400
  WRITE_REG(GPIOx->LCKR, GPIO_LCKR_LCKK | PinMask);
 8001da0:	f44f 3182 	mov.w	r1, #66560	@ 0x10400
  (void) temp;
 8001da4:	9c07      	ldr	r4, [sp, #28]
  WRITE_REG(GPIOx->LCKR, GPIO_LCKR_LCKK | PinMask);
 8001da6:	61d9      	str	r1, [r3, #28]
  WRITE_REG(GPIOx->LCKR, PinMask);
 8001da8:	61d8      	str	r0, [r3, #28]
  WRITE_REG(GPIOx->LCKR, GPIO_LCKR_LCKK | PinMask);
 8001daa:	61d9      	str	r1, [r3, #28]
  temp = READ_REG(GPIOx->LCKR);
 8001dac:	69d9      	ldr	r1, [r3, #28]
 8001dae:	9106      	str	r1, [sp, #24]
  WRITE_REG(GPIOx->LCKR, PinMask);
 8001db0:	f44f 4000 	mov.w	r0, #32768	@ 0x8000
  WRITE_REG(GPIOx->LCKR, GPIO_LCKR_LCKK | PinMask);
 8001db4:	f44f 31c0 	mov.w	r1, #98304	@ 0x18000
  (void) temp;
 8001db8:	9c06      	ldr	r4, [sp, #24]
  WRITE_REG(GPIOx->LCKR, GPIO_LCKR_LCKK | PinMask);
 8001dba:	61d1      	str	r1, [r2, #28]
  WRITE_REG(GPIOx->LCKR, PinMask);
 8001dbc:	61d0      	str	r0, [r2, #28]
  WRITE_REG(GPIOx->LCKR, GPIO_LCKR_LCKK | PinMask);
 8001dbe:	61d1      	str	r1, [r2, #28]
  temp = READ_REG(GPIOx->LCKR);
 8001dc0:	69d1      	ldr	r1, [r2, #28]
 8001dc2:	9105      	str	r1, [sp, #20]
  WRITE_REG(GPIOx->LCKR, PinMask);
 8001dc4:	f44f 5000 	mov.w	r0, #8192	@ 0x2000
  WRITE_REG(GPIOx->LCKR, GPIO_LCKR_LCKK | PinMask);
 8001dc8:	f44f 3190 	mov.w	r1, #73728	@ 0x12000
  (void) temp;
 8001dcc:	9c05      	ldr	r4, [sp, #20]
  WRITE_REG(GPIOx->LCKR, GPIO_LCKR_LCKK | PinMask);
 8001dce:	61d1      	str	r1, [r2, #28]
  WRITE_REG(GPIOx->LCKR, PinMask);
 8001dd0:	61d0      	str	r0, [r2, #28]
  WRITE_REG(GPIOx->LCKR, GPIO_LCKR_LCKK | PinMask);
 8001dd2:	61d1      	str	r1, [r2, #28]
  temp = READ_REG(GPIOx->LCKR);
 8001dd4:	69d2      	ldr	r2, [r2, #28]
 8001dd6:	9204      	str	r2, [sp, #16]
  WRITE_REG(GPIOx->LCKR, PinMask);
 8001dd8:	2001      	movs	r0, #1
  WRITE_REG(GPIOx->LCKR, GPIO_LCKR_LCKK | PinMask);
 8001dda:	f04f 1201 	mov.w	r2, #65537	@ 0x10001
  (void) temp;
 8001dde:	9904      	ldr	r1, [sp, #16]
  WRITE_REG(GPIOx->LCKR, GPIO_LCKR_LCKK | PinMask);
 8001de0:	61da      	str	r2, [r3, #28]
  WRITE_REG(GPIOx->LCKR, PinMask);
 8001de2:	61d8      	str	r0, [r3, #28]
  WRITE_REG(GPIOx->LCKR, GPIO_LCKR_LCKK | PinMask);
 8001de4:	61da      	str	r2, [r3, #28]
  temp = READ_REG(GPIOx->LCKR);
 8001de6:	69d9      	ldr	r1, [r3, #28]
 8001de8:	9103      	str	r1, [sp, #12]
  WRITE_REG(GPIOx->LCKR, PinMask);
 8001dea:	2402      	movs	r4, #2
  WRITE_REG(GPIOx->LCKR, GPIO_LCKR_LCKK | PinMask);
 8001dec:	490e      	ldr	r1, [pc, #56]	@ (8001e28 <mc_lock_pins+0xe4>)
  (void) temp;
 8001dee:	9d03      	ldr	r5, [sp, #12]
  WRITE_REG(GPIOx->LCKR, GPIO_LCKR_LCKK | PinMask);
 8001df0:	61d9      	str	r1, [r3, #28]
  WRITE_REG(GPIOx->LCKR, PinMask);
 8001df2:	61dc      	str	r4, [r3, #28]
  WRITE_REG(GPIOx->LCKR, GPIO_LCKR_LCKK | PinMask);
 8001df4:	61d9      	str	r1, [r3, #28]
  temp = READ_REG(GPIOx->LCKR);
 8001df6:	69db      	ldr	r3, [r3, #28]
 8001df8:	9302      	str	r3, [sp, #8]
  WRITE_REG(GPIOx->LCKR, GPIO_LCKR_LCKK | PinMask);
 8001dfa:	4b0c      	ldr	r3, [pc, #48]	@ (8001e2c <mc_lock_pins+0xe8>)
  (void) temp;
 8001dfc:	9d02      	ldr	r5, [sp, #8]
  WRITE_REG(GPIOx->LCKR, GPIO_LCKR_LCKK | PinMask);
 8001dfe:	61d9      	str	r1, [r3, #28]
  WRITE_REG(GPIOx->LCKR, PinMask);
 8001e00:	61dc      	str	r4, [r3, #28]
  WRITE_REG(GPIOx->LCKR, GPIO_LCKR_LCKK | PinMask);
 8001e02:	61d9      	str	r1, [r3, #28]
  temp = READ_REG(GPIOx->LCKR);
 8001e04:	69d9      	ldr	r1, [r3, #28]
 8001e06:	9101      	str	r1, [sp, #4]
  (void) temp;
 8001e08:	9901      	ldr	r1, [sp, #4]
  WRITE_REG(GPIOx->LCKR, GPIO_LCKR_LCKK | PinMask);
 8001e0a:	61da      	str	r2, [r3, #28]
  WRITE_REG(GPIOx->LCKR, PinMask);
 8001e0c:	61d8      	str	r0, [r3, #28]
  WRITE_REG(GPIOx->LCKR, GPIO_LCKR_LCKK | PinMask);
 8001e0e:	61da      	str	r2, [r3, #28]
  temp = READ_REG(GPIOx->LCKR);
 8001e10:	69db      	ldr	r3, [r3, #28]
 8001e12:	9300      	str	r3, [sp, #0]
  (void) temp;
 8001e14:	9b00      	ldr	r3, [sp, #0]
LL_GPIO_LockPin(M1_PWM_UL_GPIO_Port, M1_PWM_UL_Pin);
LL_GPIO_LockPin(M1_CURR_AMPL_U_GPIO_Port, M1_CURR_AMPL_U_Pin);
LL_GPIO_LockPin(M1_BUS_VOLTAGE_GPIO_Port, M1_BUS_VOLTAGE_Pin);
LL_GPIO_LockPin(M1_CURR_AMPL_V_GPIO_Port, M1_CURR_AMPL_V_Pin);
LL_GPIO_LockPin(M1_CURR_AMPL_W_GPIO_Port, M1_CURR_AMPL_W_Pin);
}
 8001e16:	b00c      	add	sp, #48	@ 0x30
 8001e18:	bc30      	pop	{r4, r5}
 8001e1a:	4770      	bx	lr
 8001e1c:	40020400 	.word	0x40020400
 8001e20:	00010100 	.word	0x00010100
 8001e24:	40020000 	.word	0x40020000
 8001e28:	00010002 	.word	0x00010002
 8001e2c:	40020800 	.word	0x40020800

08001e30 <RI_SetRegCommandParser>:
  * @param  txSyncFreeSpace Space available for synchronous transmission
  *
  * @retval Returns #MCP_CMD_OK if the command is acknowledged and #MCP_CMD_NOK if not.
  */
uint8_t RI_SetRegCommandParser (MCP_Handle_t * pHandle, uint16_t txSyncFreeSpace)
{
 8001e30:	e92d 4ff0 	stmdb	sp!, {r4, r5, r6, r7, r8, r9, sl, fp, lr}
  {
#endif
    uint16_t * dataElementID;
    uint8_t * rxData = pHandle->rxBuffer;
    uint8_t * txData = pHandle->txBuffer;
    int16_t rxLength = pHandle->rxLength;
 8001e34:	f9b0 400c 	ldrsh.w	r4, [r0, #12]
    uint8_t accessResult;

    uint16_t regID;
    uint8_t typeID;
    uint8_t motorID;
    uint8_t (*SetRegFcts[NBR_OF_MOTORS+1])(uint16_t, uint8_t, uint8_t*, uint16_t*, int16_t) = {&RI_SetRegisterGlobal, &RI_SetRegisterMotor1};
 8001e38:	4b31      	ldr	r3, [pc, #196]	@ (8001f00 <RI_SetRegCommandParser+0xd0>)
{
 8001e3a:	b089      	sub	sp, #36	@ 0x24
    uint16_t size = 0U;
 8001e3c:	f04f 0900 	mov.w	r9, #0
    uint8_t (*SetRegFcts[NBR_OF_MOTORS+1])(uint16_t, uint8_t, uint8_t*, uint16_t*, int16_t) = {&RI_SetRegisterGlobal, &RI_SetRegisterMotor1};
 8001e40:	9306      	str	r3, [sp, #24]
    uint8_t number_of_item =0;
    pHandle->txLength = 0;

    while (rxLength > 0)
 8001e42:	454c      	cmp	r4, r9
    uint8_t (*SetRegFcts[NBR_OF_MOTORS+1])(uint16_t, uint8_t, uint8_t*, uint16_t*, int16_t) = {&RI_SetRegisterGlobal, &RI_SetRegisterMotor1};
 8001e44:	4b2f      	ldr	r3, [pc, #188]	@ (8001f04 <RI_SetRegCommandParser+0xd4>)
    uint16_t size = 0U;
 8001e46:	f8ad 9016 	strh.w	r9, [sp, #22]
    uint8_t * txData = pHandle->txBuffer;
 8001e4a:	e9d0 c601 	ldrd	ip, r6, [r0, #4]
{
 8001e4e:	4607      	mov	r7, r0
    uint8_t (*SetRegFcts[NBR_OF_MOTORS+1])(uint16_t, uint8_t, uint8_t*, uint16_t*, int16_t) = {&RI_SetRegisterGlobal, &RI_SetRegisterMotor1};
 8001e50:	9307      	str	r3, [sp, #28]
    pHandle->txLength = 0;
 8001e52:	f8a0 900e 	strh.w	r9, [r0, #14]
    while (rxLength > 0)
 8001e56:	dd47      	ble.n	8001ee8 <RI_SetRegCommandParser+0xb8>
 8001e58:	eb06 0801 	add.w	r8, r6, r1
  uint8_t retVal = MCP_CMD_OK;
 8001e5c:	f8cd 900c 	str.w	r9, [sp, #12]
        accessResult = SetRegFcts[motorID](regID, typeID, rxData, &size, rxLength);
        /* Prepare next data*/
        rxLength = (int16_t) (rxLength - size);
        rxData = rxData+size;
        /* If there is only one CMD in the buffer, we do not store the result */
        if ((1U == number_of_item) && (0 == rxLength))
 8001e60:	f1c6 0a01 	rsb	sl, r6, #1
      rxData = rxData+MCP_ID_SIZE; // Shift buffer to the next data
 8001e64:	f10c 0502 	add.w	r5, ip, #2
      regID = *dataElementID & REG_MASK;
 8001e68:	f8bc c000 	ldrh.w	ip, [ip]
      typeID = (uint8_t)*dataElementID & TYPE_MASK;
 8001e6c:	fa5f f18c 	uxtb.w	r1, ip
      rxLength = rxLength-MCP_ID_SIZE; // We consume 2 byte in the DataID
 8001e70:	3c02      	subs	r4, #2
        accessResult = SetRegFcts[motorID](regID, typeID, rxData, &size, rxLength);
 8001e72:	f001 0b07 	and.w	fp, r1, #7
 8001e76:	f10d 0920 	add.w	r9, sp, #32
      if (motorID > NBR_OF_MOTORS)
 8001e7a:	f01c 0f06 	tst.w	ip, #6
        accessResult = SetRegFcts[motorID](regID, typeID, rxData, &size, rxLength);
 8001e7e:	fa0f fe84 	sxth.w	lr, r4
 8001e82:	f10d 0316 	add.w	r3, sp, #22
 8001e86:	462a      	mov	r2, r5
      rxLength = rxLength-MCP_ID_SIZE; // We consume 2 byte in the DataID
 8001e88:	b2a4      	uxth	r4, r4
      regID = *dataElementID & REG_MASK;
 8001e8a:	f02c 0007 	bic.w	r0, ip, #7
        accessResult = SetRegFcts[motorID](regID, typeID, rxData, &size, rxLength);
 8001e8e:	eb09 0b8b 	add.w	fp, r9, fp, lsl #2
 8001e92:	f001 0138 	and.w	r1, r1, #56	@ 0x38
      if (motorID > NBR_OF_MOTORS)
 8001e96:	d11b      	bne.n	8001ed0 <RI_SetRegCommandParser+0xa0>
        accessResult = SetRegFcts[motorID](regID, typeID, rxData, &size, rxLength);
 8001e98:	f8cd e000 	str.w	lr, [sp]
 8001e9c:	f85b bc08 	ldr.w	fp, [fp, #-8]
 8001ea0:	47d8      	blx	fp
        rxLength = (int16_t) (rxLength - size);
 8001ea2:	f8bd 2016 	ldrh.w	r2, [sp, #22]
        if ((1U == number_of_item) && (0 == rxLength))
 8001ea6:	eb06 030a 	add.w	r3, r6, sl
 8001eaa:	b2db      	uxtb	r3, r3
        rxLength = (int16_t) (rxLength - size);
 8001eac:	1aa4      	subs	r4, r4, r2
        if ((1U == number_of_item) && (0 == rxLength))
 8001eae:	2b01      	cmp	r3, #1
        rxLength = (int16_t) (rxLength - size);
 8001eb0:	b224      	sxth	r4, r4
        rxData = rxData+size;
 8001eb2:	eb05 0c02 	add.w	ip, r5, r2
        if ((1U == number_of_item) && (0 == rxLength))
 8001eb6:	d013      	beq.n	8001ee0 <RI_SetRegCommandParser+0xb0>
        {
          retVal = accessResult;
        }
        else
        {/* Store the result for each access to be able to report failing access */
          if (txSyncFreeSpace !=0 )
 8001eb8:	4546      	cmp	r6, r8
 8001eba:	d00d      	beq.n	8001ed8 <RI_SetRegCommandParser+0xa8>
          {
            *txData = accessResult;
 8001ebc:	f806 0b01 	strb.w	r0, [r6], #1
            txData = txData+1;
            pHandle->txLength++;
 8001ec0:	89fb      	ldrh	r3, [r7, #14]
 8001ec2:	3301      	adds	r3, #1
 8001ec4:	81fb      	strh	r3, [r7, #14]
            txSyncFreeSpace--; /* decrement one by one no wraparound possible */
            retVal = (accessResult != MCP_CMD_OK) ? MCP_CMD_NOK : retVal;
 8001ec6:	b1a0      	cbz	r0, 8001ef2 <RI_SetRegCommandParser+0xc2>
            if ((accessResult == MCP_ERROR_BAD_DATA_TYPE) || (accessResult == MCP_ERROR_BAD_RAW_FORMAT))
 8001ec8:	2807      	cmp	r0, #7
 8001eca:	d001      	beq.n	8001ed0 <RI_SetRegCommandParser+0xa0>
 8001ecc:	280a      	cmp	r0, #10
 8001ece:	d10e      	bne.n	8001eee <RI_SetRegCommandParser+0xbe>
        retVal = MCP_CMD_NOK;
 8001ed0:	2001      	movs	r0, #1
    }
  #ifdef NULL_PTR_CHECK_REG_INT
  }
#endif
  return (retVal);
}
 8001ed2:	b009      	add	sp, #36	@ 0x24
 8001ed4:	e8bd 8ff0 	ldmia.w	sp!, {r4, r5, r6, r7, r8, r9, sl, fp, pc}
            retVal = MCP_ERROR_NO_TXSYNC_SPACE;
 8001ed8:	2008      	movs	r0, #8
}
 8001eda:	b009      	add	sp, #36	@ 0x24
 8001edc:	e8bd 8ff0 	ldmia.w	sp!, {r4, r5, r6, r7, r8, r9, sl, fp, pc}
        if ((1U == number_of_item) && (0 == rxLength))
 8001ee0:	2c00      	cmp	r4, #0
 8001ee2:	d1e9      	bne.n	8001eb8 <RI_SetRegCommandParser+0x88>
    if (MCP_CMD_OK == retVal)
 8001ee4:	2800      	cmp	r0, #0
 8001ee6:	d1f4      	bne.n	8001ed2 <RI_SetRegCommandParser+0xa2>
      pHandle->txLength = 0;
 8001ee8:	2000      	movs	r0, #0
 8001eea:	81f8      	strh	r0, [r7, #14]
 8001eec:	e7f1      	b.n	8001ed2 <RI_SetRegCommandParser+0xa2>
            retVal = (accessResult != MCP_CMD_OK) ? MCP_CMD_NOK : retVal;
 8001eee:	2301      	movs	r3, #1
 8001ef0:	9303      	str	r3, [sp, #12]
    while (rxLength > 0)
 8001ef2:	2c00      	cmp	r4, #0
 8001ef4:	dcb6      	bgt.n	8001e64 <RI_SetRegCommandParser+0x34>
 8001ef6:	9803      	ldr	r0, [sp, #12]
    if (MCP_CMD_OK == retVal)
 8001ef8:	2800      	cmp	r0, #0
 8001efa:	d0f5      	beq.n	8001ee8 <RI_SetRegCommandParser+0xb8>
 8001efc:	e7e9      	b.n	8001ed2 <RI_SetRegCommandParser+0xa2>
 8001efe:	bf00      	nop
 8001f00:	08002509 	.word	0x08002509
 8001f04:	0800260d 	.word	0x0800260d

08001f08 <RI_GetRegCommandParser>:
  * @param  txSyncFreeSpace Space available for synchronous transmission
  *
  * @retval Returns #MCP_CMD_OK if the command is acknowledged and #MCP_CMD_NOK if not.
  */
uint8_t RI_GetRegCommandParser (MCP_Handle_t * pHandle, uint16_t txSyncFreeSpace)
{
 8001f08:	e92d 47f0 	stmdb	sp!, {r4, r5, r6, r7, r8, r9, sl, lr}
 8001f0c:	b086      	sub	sp, #24
  {
#endif
    uint16_t * dataElementID;
    uint8_t * rxData = pHandle->rxBuffer;
    uint8_t * txData = pHandle->txBuffer;
    uint16_t size = 0U;
 8001f0e:	2300      	movs	r3, #0
 8001f10:	f8ad 300e 	strh.w	r3, [sp, #14]

    uint16_t regID;
    uint8_t typeID;
    uint8_t motorID;
    uint8_t (*GetRegFcts[NBR_OF_MOTORS+1])(uint16_t, uint8_t, uint8_t*, uint16_t*, int16_t) = {&RI_GetRegisterGlobal, &RI_GetRegisterMotor1};
    pHandle->txLength = 0;
 8001f14:	81c3      	strh	r3, [r0, #14]
    uint16_t rxLength = pHandle->rxLength;
 8001f16:	f8b0 800c 	ldrh.w	r8, [r0, #12]
    uint8_t (*GetRegFcts[NBR_OF_MOTORS+1])(uint16_t, uint8_t, uint8_t*, uint16_t*, int16_t) = {&RI_GetRegisterGlobal, &RI_GetRegisterMotor1};
 8001f1a:	4b1d      	ldr	r3, [pc, #116]	@ (8001f90 <RI_GetRegCommandParser+0x88>)
 8001f1c:	9304      	str	r3, [sp, #16]
 8001f1e:	4b1d      	ldr	r3, [pc, #116]	@ (8001f94 <RI_GetRegCommandParser+0x8c>)
    uint8_t * rxData = pHandle->rxBuffer;
 8001f20:	f8d0 9004 	ldr.w	r9, [r0, #4]
    uint8_t * txData = pHandle->txBuffer;
 8001f24:	6886      	ldr	r6, [r0, #8]
    uint8_t (*GetRegFcts[NBR_OF_MOTORS+1])(uint16_t, uint8_t, uint8_t*, uint16_t*, int16_t) = {&RI_GetRegisterGlobal, &RI_GetRegisterMotor1};
 8001f26:	9305      	str	r3, [sp, #20]
    while (rxLength > 0U)
 8001f28:	f1b8 0f00 	cmp.w	r8, #0
 8001f2c:	d016      	beq.n	8001f5c <RI_GetRegCommandParser+0x54>
 8001f2e:	4607      	mov	r7, r0
 8001f30:	b20d      	sxth	r5, r1
    uint8_t * rxData = pHandle->rxBuffer;
 8001f32:	464c      	mov	r4, r9
    {
      dataElementID = (uint16_t *) rxData;
      rxLength = rxLength - MCP_ID_SIZE;
      rxData = rxData + MCP_ID_SIZE; // Shift buffer to the next MCP_ID

      regID = *dataElementID & REG_MASK;
 8001f34:	f834 cb02 	ldrh.w	ip, [r4], #2
      typeID = (uint8_t)*dataElementID & TYPE_MASK;
 8001f38:	fa5f f18c 	uxtb.w	r1, ip
        retVal = MCP_CMD_NOK;
        rxLength = 0;
      }
      else
      {
        retVal = GetRegFcts[motorID](regID, typeID, txData, &size, freeSpaceS16);
 8001f3c:	f001 0e07 	and.w	lr, r1, #7
 8001f40:	f10d 0a18 	add.w	sl, sp, #24
      if (motorID > NBR_OF_MOTORS)
 8001f44:	f01c 0f06 	tst.w	ip, #6
        retVal = GetRegFcts[motorID](regID, typeID, txData, &size, freeSpaceS16);
 8001f48:	4632      	mov	r2, r6
      regID = *dataElementID & REG_MASK;
 8001f4a:	f02c 0007 	bic.w	r0, ip, #7
        retVal = GetRegFcts[motorID](regID, typeID, txData, &size, freeSpaceS16);
 8001f4e:	f10d 030e 	add.w	r3, sp, #14
 8001f52:	eb0a 0e8e 	add.w	lr, sl, lr, lsl #2
 8001f56:	f001 0138 	and.w	r1, r1, #56	@ 0x38
      if (motorID > NBR_OF_MOTORS)
 8001f5a:	d003      	beq.n	8001f64 <RI_GetRegCommandParser+0x5c>
        retVal = MCP_CMD_NOK;
 8001f5c:	2001      	movs	r0, #1
    }
#ifdef NULL_PTR_CHECK_REG_INT
  }
#endif
  return (retVal);
}
 8001f5e:	b006      	add	sp, #24
 8001f60:	e8bd 87f0 	ldmia.w	sp!, {r4, r5, r6, r7, r8, r9, sl, pc}
        retVal = GetRegFcts[motorID](regID, typeID, txData, &size, freeSpaceS16);
 8001f64:	9500      	str	r5, [sp, #0]
 8001f66:	f85e ac08 	ldr.w	sl, [lr, #-8]
 8001f6a:	47d0      	blx	sl
        if (retVal == MCP_CMD_OK )
 8001f6c:	eba8 0304 	sub.w	r3, r8, r4
    while (rxLength > 0U)
 8001f70:	fa19 f383 	uxtah	r3, r9, r3
 8001f74:	b29b      	uxth	r3, r3
        if (retVal == MCP_CMD_OK )
 8001f76:	2800      	cmp	r0, #0
 8001f78:	d1f1      	bne.n	8001f5e <RI_GetRegCommandParser+0x56>
          txData = txData+size;
 8001f7a:	f8bd 100e 	ldrh.w	r1, [sp, #14]
          pHandle->txLength += size;
 8001f7e:	89fa      	ldrh	r2, [r7, #14]
          freeSpaceS16 = freeSpaceS16-size;
 8001f80:	1a6d      	subs	r5, r5, r1
          pHandle->txLength += size;
 8001f82:	440a      	add	r2, r1
          txData = txData+size;
 8001f84:	440e      	add	r6, r1
          pHandle->txLength += size;
 8001f86:	81fa      	strh	r2, [r7, #14]
          freeSpaceS16 = freeSpaceS16-size;
 8001f88:	b22d      	sxth	r5, r5
    while (rxLength > 0U)
 8001f8a:	2b00      	cmp	r3, #0
 8001f8c:	d1d2      	bne.n	8001f34 <RI_GetRegCommandParser+0x2c>
 8001f8e:	e7e6      	b.n	8001f5e <RI_GetRegCommandParser+0x56>
 8001f90:	08002ac9 	.word	0x08002ac9
 8001f94:	08002bfd 	.word	0x08002bfd

08001f98 <MCP_ReceivedPacket>:
  * @brief  Parses the header from the received packet and call the required function depending on the command sent by the controller device.
  *
  * @param  pHandle Handler of the current instance of the MCP component
  */
void MCP_ReceivedPacket(MCP_Handle_t *pHandle)
{
 8001f98:	b5f0      	push	{r4, r5, r6, r7, lr}
 8001f9a:	4604      	mov	r4, r0
  }
  else /* Length is 0, this is a request to send back the last packet */
  {
#endif
    packetHeader = (uint16_t *)pHandle->rxBuffer; //cstat !MISRAC2012-Rule-11.3
    command = (uint16_t)(*packetHeader & CMD_MASK);
 8001f9c:	6846      	ldr	r6, [r0, #4]
    pHandle->rxLength = pHandle->rxLength - MCP_HEADER_SIZE;
    pHandle->rxBuffer = pHandle->rxBuffer + MCP_HEADER_SIZE;

    /* Commands requiering payload response must be aware of space available for the payload */
    /* Last byte is reserved for MCP response*/
    txSyncFreeSpace = (int16_t)pHandle->pTransportLayer->txSyncMaxPayload - 1;
 8001f9e:	6822      	ldr	r2, [r4, #0]
    command = (uint16_t)(*packetHeader & CMD_MASK);
 8001fa0:	f836 3b02 	ldrh.w	r3, [r6], #2
    pHandle->rxLength = pHandle->rxLength - MCP_HEADER_SIZE;
 8001fa4:	8980      	ldrh	r0, [r0, #12]
    txSyncFreeSpace = (int16_t)pHandle->pTransportLayer->txSyncMaxPayload - 1;
 8001fa6:	8992      	ldrh	r2, [r2, #12]
    if ((command & MCP_USER_CMD_MASK) == MCP_USER_CMD)
 8001fa8:	f403 457f 	and.w	r5, r3, #65280	@ 0xff00
    txSyncFreeSpace = (int16_t)pHandle->pTransportLayer->txSyncMaxPayload - 1;
 8001fac:	3a01      	subs	r2, #1
    pHandle->rxLength = pHandle->rxLength - MCP_HEADER_SIZE;
 8001fae:	3802      	subs	r0, #2
    command = (uint16_t)(*packetHeader & CMD_MASK);
 8001fb0:	f023 0c07 	bic.w	ip, r3, #7
    if ((command & MCP_USER_CMD_MASK) == MCP_USER_CMD)
 8001fb4:	f5b5 7f80 	cmp.w	r5, #256	@ 0x100
    txSyncFreeSpace = (int16_t)pHandle->pTransportLayer->txSyncMaxPayload - 1;
 8001fb8:	b291      	uxth	r1, r2
{
 8001fba:	b083      	sub	sp, #12
    pHandle->rxLength = pHandle->rxLength - MCP_HEADER_SIZE;
 8001fbc:	b280      	uxth	r0, r0
    command = (uint16_t)(*packetHeader & CMD_MASK);
 8001fbe:	fa1f fc8c 	uxth.w	ip, ip
    txSyncFreeSpace = (int16_t)pHandle->pTransportLayer->txSyncMaxPayload - 1;
 8001fc2:	b212      	sxth	r2, r2
    if ((command & MCP_USER_CMD_MASK) == MCP_USER_CMD)
 8001fc4:	d045      	beq.n	8002052 <MCP_ReceivedPacket+0xba>
    motorID = (uint8_t)((*packetHeader - 1U) & MOTOR_MASK);
 8001fc6:	3b01      	subs	r3, #1
    MCI_Handle_t *pMCI = &Mci[motorID];
 8001fc8:	4f5b      	ldr	r7, [pc, #364]	@ (8002138 <MCP_ReceivedPacket+0x1a0>)
    pHandle->rxLength = pHandle->rxLength - MCP_HEADER_SIZE;
 8001fca:	81a0      	strh	r0, [r4, #12]
    MCI_Handle_t *pMCI = &Mci[motorID];
 8001fcc:	f003 0307 	and.w	r3, r3, #7
 8001fd0:	eb03 0383 	add.w	r3, r3, r3, lsl #2

    /* Initialization of the tx length, command which send back data has to increment the txLength
     * (case of Read register) */
    pHandle->txLength = 0U;
 8001fd4:	2500      	movs	r5, #0

    switch (command)
 8001fd6:	f1bc 0f38 	cmp.w	ip, #56	@ 0x38
    pHandle->rxBuffer = pHandle->rxBuffer + MCP_HEADER_SIZE;
 8001fda:	6066      	str	r6, [r4, #4]
    MCI_Handle_t *pMCI = &Mci[motorID];
 8001fdc:	eb07 07c3 	add.w	r7, r7, r3, lsl #3
    pHandle->txLength = 0U;
 8001fe0:	81e5      	strh	r5, [r4, #14]
    switch (command)
 8001fe2:	d82a      	bhi.n	800203a <MCP_ReceivedPacket+0xa2>
 8001fe4:	f1bc 0f38 	cmp.w	ip, #56	@ 0x38
 8001fe8:	d81e      	bhi.n	8002028 <MCP_ReceivedPacket+0x90>
 8001fea:	e8df f00c 	tbb	[pc, ip]
 8001fee:	1d6a      	.short	0x1d6a
 8001ff0:	1d1d1d1d 	.word	0x1d1d1d1d
 8001ff4:	1d721d1d 	.word	0x1d721d1d
 8001ff8:	1d1d1d1d 	.word	0x1d1d1d1d
 8001ffc:	1d771d1d 	.word	0x1d771d1d
 8002000:	1d1d1d1d 	.word	0x1d1d1d1d
 8002004:	1d7c1d1d 	.word	0x1d7c1d1d
 8002008:	1d1d1d1d 	.word	0x1d1d1d1d
 800200c:	1d421d1d 	.word	0x1d421d1d
 8002010:	1d1d1d1d 	.word	0x1d1d1d1d
 8002014:	1d481d1d 	.word	0x1d481d1d
 8002018:	1d1d1d1d 	.word	0x1d1d1d1d
 800201c:	1d3d1d1d 	.word	0x1d3d1d1d
 8002020:	1d1d1d1d 	.word	0x1d1d1d1d
 8002024:	1d1d      	.short	0x1d1d
 8002026:	50          	.byte	0x50
 8002027:	00          	.byte	0x00
 8002028:	2300      	movs	r3, #0
 800202a:	2002      	movs	r0, #2
      {
        MCPResponse = MCP_CMD_UNKNOWN;
        break;
      }
    }
    pHandle->txBuffer[pHandle->txLength] = MCPResponse;
 800202c:	68a2      	ldr	r2, [r4, #8]
 800202e:	54d0      	strb	r0, [r2, r3]
    pHandle->txLength++;
 8002030:	89e3      	ldrh	r3, [r4, #14]
 8002032:	3301      	adds	r3, #1
 8002034:	81e3      	strh	r3, [r4, #14]
#ifdef NULL_PTR_CHECK_MCP
  }
#endif
}
 8002036:	b003      	add	sp, #12
 8002038:	bdf0      	pop	{r4, r5, r6, r7, pc}
    switch (command)
 800203a:	f1bc 0f68 	cmp.w	ip, #104	@ 0x68
 800203e:	d057      	beq.n	80020f0 <MCP_ReceivedPacket+0x158>
 8002040:	f1bc 0f48 	cmp.w	ip, #72	@ 0x48
 8002044:	d1f0      	bne.n	8002028 <MCP_ReceivedPacket+0x90>
        MCI_Clear_Iqdref(pMCI);
 8002046:	4638      	mov	r0, r7
 8002048:	f7ff f992 	bl	8001370 <MCI_Clear_Iqdref>
    pHandle->txBuffer[pHandle->txLength] = MCPResponse;
 800204c:	89e3      	ldrh	r3, [r4, #14]
        MCPResponse = MCP_CMD_OK;
 800204e:	4628      	mov	r0, r5
        break;
 8002050:	e7ec      	b.n	800202c <MCP_ReceivedPacket+0x94>
      userCommand = ((uint8_t)(command & 0xF8U) >> 3U);
 8002052:	f3cc 0cc4 	ubfx	ip, ip, #3, #5
    pHandle->txLength = 0U;
 8002056:	2300      	movs	r3, #0
        if ((userCommand < MCP_USER_CALLBACK_MAX) && (MCP_UserCallBack[userCommand] != NULL))
 8002058:	f1bc 0f01 	cmp.w	ip, #1
    pHandle->rxLength = pHandle->rxLength - MCP_HEADER_SIZE;
 800205c:	81a0      	strh	r0, [r4, #12]
    pHandle->rxBuffer = pHandle->rxBuffer + MCP_HEADER_SIZE;
 800205e:	6066      	str	r6, [r4, #4]
    pHandle->txLength = 0U;
 8002060:	81e3      	strh	r3, [r4, #14]
        if ((userCommand < MCP_USER_CALLBACK_MAX) && (MCP_UserCallBack[userCommand] != NULL))
 8002062:	d956      	bls.n	8002112 <MCP_ReceivedPacket+0x17a>
          MCPResponse = MCP_ERROR_CALLBACK_NOT_REGISTRED;
 8002064:	200d      	movs	r0, #13
 8002066:	e7e1      	b.n	800202c <MCP_ReceivedPacket+0x94>
        if (IDLE == MCI_GetSTMState(pMCI))
 8002068:	4638      	mov	r0, r7
 800206a:	f7ff f8a1 	bl	80011b0 <MCI_GetSTMState>
 800206e:	2800      	cmp	r0, #0
 8002070:	d047      	beq.n	8002102 <MCP_ReceivedPacket+0x16a>
          (void)MCI_StopMotor(pMCI);
 8002072:	4638      	mov	r0, r7
 8002074:	f7ff f8d2 	bl	800121c <MCI_StopMotor>
    pHandle->txBuffer[pHandle->txLength] = MCPResponse;
 8002078:	89e3      	ldrh	r3, [r4, #14]
        MCPResponse = MCP_CMD_OK;
 800207a:	2000      	movs	r0, #0
 800207c:	e7d6      	b.n	800202c <MCP_ReceivedPacket+0x94>
        if (RUN == MCI_GetSTMState(pMCI))
 800207e:	4638      	mov	r0, r7
 8002080:	f7ff f896 	bl	80011b0 <MCI_GetSTMState>
 8002084:	2806      	cmp	r0, #6
 8002086:	d050      	beq.n	800212a <MCP_ReceivedPacket+0x192>
    pHandle->txBuffer[pHandle->txLength] = MCPResponse;
 8002088:	89e3      	ldrh	r3, [r4, #14]
        MCPResponse = MCP_CMD_OK;
 800208a:	2000      	movs	r0, #0
 800208c:	e7ce      	b.n	800202c <MCP_ReceivedPacket+0x94>
        (void)MCI_FaultAcknowledged(pMCI);
 800208e:	4638      	mov	r0, r7
 8002090:	f7ff f8e0 	bl	8001254 <MCI_FaultAcknowledged>
        HAL_GPIO_WritePin(GPIOC, GPIO_PIN_14, GPIO_PIN_RESET);   // DRV Disable
 8002094:	2200      	movs	r2, #0
 8002096:	f44f 4180 	mov.w	r1, #16384	@ 0x4000
 800209a:	4828      	ldr	r0, [pc, #160]	@ (800213c <MCP_ReceivedPacket+0x1a4>)
 800209c:	f002 fb24 	bl	80046e8 <HAL_GPIO_WritePin>
        HAL_Delay(500);
 80020a0:	f44f 70fa 	mov.w	r0, #500	@ 0x1f4
 80020a4:	f001 feb6 	bl	8003e14 <HAL_Delay>
        HAL_GPIO_WritePin(GPIOC, GPIO_PIN_14, GPIO_PIN_SET);   // DRV Enable
 80020a8:	4824      	ldr	r0, [pc, #144]	@ (800213c <MCP_ReceivedPacket+0x1a4>)
 80020aa:	2201      	movs	r2, #1
 80020ac:	f44f 4180 	mov.w	r1, #16384	@ 0x4000
 80020b0:	f002 fb1a 	bl	80046e8 <HAL_GPIO_WritePin>
        HAL_Delay(500);
 80020b4:	f44f 70fa 	mov.w	r0, #500	@ 0x1f4
 80020b8:	f001 feac 	bl	8003e14 <HAL_Delay>
    pHandle->txBuffer[pHandle->txLength] = MCPResponse;
 80020bc:	89e3      	ldrh	r3, [r4, #14]
        MCPResponse = MCP_CMD_OK;
 80020be:	2000      	movs	r0, #0
        break;
 80020c0:	e7b4      	b.n	800202c <MCP_ReceivedPacket+0x94>
        *pHandle->txBuffer = MCP_VERSION;
 80020c2:	68a3      	ldr	r3, [r4, #8]
        pHandle->txLength = 4U;
 80020c4:	2104      	movs	r1, #4
        *pHandle->txBuffer = MCP_VERSION;
 80020c6:	2201      	movs	r2, #1
        pHandle->txLength = 4U;
 80020c8:	81e1      	strh	r1, [r4, #14]
        *pHandle->txBuffer = MCP_VERSION;
 80020ca:	701a      	strb	r2, [r3, #0]
    pHandle->txBuffer[pHandle->txLength] = MCPResponse;
 80020cc:	89e3      	ldrh	r3, [r4, #14]
        MCPResponse = MCP_CMD_OK;
 80020ce:	2000      	movs	r0, #0
        break;
 80020d0:	e7ac      	b.n	800202c <MCP_ReceivedPacket+0x94>
        MCPResponse = RI_SetRegCommandParser(pHandle, (uint16_t)txSyncFreeSpace);
 80020d2:	4620      	mov	r0, r4
 80020d4:	f7ff feac 	bl	8001e30 <RI_SetRegCommandParser>
    pHandle->txBuffer[pHandle->txLength] = MCPResponse;
 80020d8:	89e3      	ldrh	r3, [r4, #14]
        break;
 80020da:	e7a7      	b.n	800202c <MCP_ReceivedPacket+0x94>
        MCPResponse = RI_GetRegCommandParser(pHandle, (uint16_t)txSyncFreeSpace);
 80020dc:	4620      	mov	r0, r4
 80020de:	f7ff ff13 	bl	8001f08 <RI_GetRegCommandParser>
    pHandle->txBuffer[pHandle->txLength] = MCPResponse;
 80020e2:	89e3      	ldrh	r3, [r4, #14]
        break;
 80020e4:	e7a2      	b.n	800202c <MCP_ReceivedPacket+0x94>
        MCPResponse = (MCI_StartWithPolarizationMotor(pMCI) == false) ? MCP_CMD_OK : MCP_CMD_NOK;
 80020e6:	4638      	mov	r0, r7
 80020e8:	f7ff f87e 	bl	80011e8 <MCI_StartWithPolarizationMotor>
    pHandle->txBuffer[pHandle->txLength] = MCPResponse;
 80020ec:	89e3      	ldrh	r3, [r4, #14]
 80020ee:	e79d      	b.n	800202c <MCP_ReceivedPacket+0x94>
        MCPResponse = MC_ProfilerCommand(pHandle->rxLength, pHandle->rxBuffer, txSyncFreeSpace, &pHandle->txLength,
 80020f0:	68a3      	ldr	r3, [r4, #8]
 80020f2:	9300      	str	r3, [sp, #0]
 80020f4:	4631      	mov	r1, r6
 80020f6:	f104 030e 	add.w	r3, r4, #14
 80020fa:	f7fe ffdd 	bl	80010b8 <MC_ProfilerCommand>
    pHandle->txBuffer[pHandle->txLength] = MCPResponse;
 80020fe:	89e3      	ldrh	r3, [r4, #14]
        break;
 8002100:	e794      	b.n	800202c <MCP_ReceivedPacket+0x94>
          MCPResponse = (MCI_StartWithPolarizationMotor(pMCI) == true) ? MCP_CMD_OK : MCP_CMD_NOK;
 8002102:	4638      	mov	r0, r7
 8002104:	f7ff f870 	bl	80011e8 <MCI_StartWithPolarizationMotor>
 8002108:	f080 0001 	eor.w	r0, r0, #1
    pHandle->txBuffer[pHandle->txLength] = MCPResponse;
 800210c:	89e3      	ldrh	r3, [r4, #14]
          MCPResponse = (MCI_StartWithPolarizationMotor(pMCI) == true) ? MCP_CMD_OK : MCP_CMD_NOK;
 800210e:	b2c0      	uxtb	r0, r0
 8002110:	e78c      	b.n	800202c <MCP_ReceivedPacket+0x94>
        if ((userCommand < MCP_USER_CALLBACK_MAX) && (MCP_UserCallBack[userCommand] != NULL))
 8002112:	4b0b      	ldr	r3, [pc, #44]	@ (8002140 <MCP_ReceivedPacket+0x1a8>)
 8002114:	f853 502c 	ldr.w	r5, [r3, ip, lsl #2]
 8002118:	b15d      	cbz	r5, 8002132 <MCP_ReceivedPacket+0x19a>
          MCPResponse = MCP_UserCallBack[userCommand](pHandle->rxLength, pHandle->rxBuffer, txSyncFreeSpace,
 800211a:	68a3      	ldr	r3, [r4, #8]
 800211c:	9300      	str	r3, [sp, #0]
 800211e:	4631      	mov	r1, r6
 8002120:	f104 030e 	add.w	r3, r4, #14
 8002124:	47a8      	blx	r5
    pHandle->txBuffer[pHandle->txLength] = MCPResponse;
 8002126:	89e3      	ldrh	r3, [r4, #14]
          MCPResponse = MCP_UserCallBack[userCommand](pHandle->rxLength, pHandle->rxBuffer, txSyncFreeSpace,
 8002128:	e780      	b.n	800202c <MCP_ReceivedPacket+0x94>
          MCI_StopRamp(pMCI);
 800212a:	4638      	mov	r0, r7
 800212c:	f7ff f8b8 	bl	80012a0 <MCI_StopRamp>
 8002130:	e7aa      	b.n	8002088 <MCP_ReceivedPacket+0xf0>
 8002132:	462b      	mov	r3, r5
 8002134:	e796      	b.n	8002064 <MCP_ReceivedPacket+0xcc>
 8002136:	bf00      	nop
 8002138:	20000728 	.word	0x20000728
 800213c:	40020800 	.word	0x40020800
 8002140:	2000079c 	.word	0x2000079c

08002144 <MX_MotorControl_Init>:
 *
 * CubeMX calls this function after all peripherals initializations and
 * before the NVIC is configured
 */
__weak void MX_MotorControl_Init(void)
{
 8002144:	b508      	push	{r3, lr}
  /* Reconfigure the SysTick interrupt to fire every 500 us. */
  (void)HAL_SYSTICK_Config(HAL_RCC_GetHCLKFreq() / SYS_TICK_FREQUENCY);
 8002146:	f002 fbad 	bl	80048a4 <HAL_RCC_GetHCLKFreq>
 800214a:	4b0a      	ldr	r3, [pc, #40]	@ (8002174 <MX_MotorControl_Init+0x30>)
 800214c:	fba3 3000 	umull	r3, r0, r3, r0
 8002150:	09c0      	lsrs	r0, r0, #7
 8002152:	f002 f903 	bl	800435c <HAL_SYSTICK_Config>
  HAL_NVIC_SetPriority(SysTick_IRQn, uwTickPrio, 0U);
 8002156:	4b08      	ldr	r3, [pc, #32]	@ (8002178 <MX_MotorControl_Init+0x34>)
 8002158:	2200      	movs	r2, #0
 800215a:	6819      	ldr	r1, [r3, #0]
 800215c:	f04f 30ff 	mov.w	r0, #4294967295
 8002160:	f002 f8b2 	bl	80042c8 <HAL_NVIC_SetPriority>

  /* Initialize the Motor Control Subsystem */
  MCboot(pMCI);
 8002164:	4805      	ldr	r0, [pc, #20]	@ (800217c <MX_MotorControl_Init+0x38>)
 8002166:	f7ff fa55 	bl	8001614 <MCboot>
  mc_lock_pins();
}
 800216a:	e8bd 4008 	ldmia.w	sp!, {r3, lr}
  mc_lock_pins();
 800216e:	f7ff bde9 	b.w	8001d44 <mc_lock_pins>
 8002172:	bf00      	nop
 8002174:	10624dd3 	.word	0x10624dd3
 8002178:	20000528 	.word	0x20000528
 800217c:	20001928 	.word	0x20001928

08002180 <PWMC_GetPhaseCurrents>:
    /* Nothing to do */
  }
  else
  {
#endif
    pHandle->pFctGetPhaseCurrents(pHandle, Iab);
 8002180:	6803      	ldr	r3, [r0, #0]
 8002182:	4718      	bx	r3

08002184 <PWMC_SetPhaseVoltage>:
  * @param  Valfa_beta: Voltage Components expressed in the @f$(\alpha, \beta)@f$ reference frame.
  * @retval #MC_NO_ERROR if no error occurred or #MC_DURATION if the duty cycles were
  *         set too late for being taken into account in the next PWM cycle.
  */
__weak uint16_t PWMC_SetPhaseVoltage(PWMC_Handle_t *pHandle, alphabeta_t Valfa_beta)
{
 8002184:	b530      	push	{r4, r5, lr}
    int32_t wTimePhA;
    int32_t wTimePhB;
    int32_t wTimePhC;

    wUAlpha = Valfa_beta.alpha * (int32_t)pHandle->hT_Sqrt3;
    wUBeta = -(Valfa_beta.beta * ((int32_t)pHandle->PWMperiod)) * 2;
 8002186:	f8b0 4072 	ldrh.w	r4, [r0, #114]	@ 0x72
    wUAlpha = Valfa_beta.alpha * (int32_t)pHandle->hT_Sqrt3;
 800218a:	f8b0 204e 	ldrh.w	r2, [r0, #78]	@ 0x4e
    wUBeta = -(Valfa_beta.beta * ((int32_t)pHandle->PWMperiod)) * 2;
 800218e:	ea4f 4c21 	mov.w	ip, r1, asr #16
    wUAlpha = Valfa_beta.alpha * (int32_t)pHandle->hT_Sqrt3;
 8002192:	b20b      	sxth	r3, r1
    wUBeta = -(Valfa_beta.beta * ((int32_t)pHandle->PWMperiod)) * 2;
 8002194:	fb04 fc0c 	mul.w	ip, r4, ip
 8002198:	ebcc 7ccc 	rsb	ip, ip, ip, lsl #31
    wUAlpha = Valfa_beta.alpha * (int32_t)pHandle->hT_Sqrt3;
 800219c:	fb02 f303 	mul.w	r3, r2, r3

    wX = wUBeta;
    wY = (wUBeta + wUAlpha) / 2;
 80021a0:	eb03 024c 	add.w	r2, r3, ip, lsl #1
    wZ = (wUBeta - wUAlpha) / 2;
 80021a4:	ebc3 034c 	rsb	r3, r3, ip, lsl #1
    wY = (wUBeta + wUAlpha) / 2;
 80021a8:	eb02 71d2 	add.w	r1, r2, r2, lsr #31
    wZ = (wUBeta - wUAlpha) / 2;
 80021ac:	eb03 7ed3 	add.w	lr, r3, r3, lsr #31

    /* Sector calculation from wX, wY, wZ */
    if (wY < 0)
 80021b0:	1c55      	adds	r5, r2, #1
{
 80021b2:	b083      	sub	sp, #12
    {
      if (wZ < 0)
      {
        pHandle->Sector = SECTOR_5;
        wTimePhA = (((int32_t)pHandle->PWMperiod) / 4) + ((wY - wZ) / (int32_t)262144);
 80021b4:	ea4f 0494 	mov.w	r4, r4, lsr #2
    wUBeta = -(Valfa_beta.beta * ((int32_t)pHandle->PWMperiod)) * 2;
 80021b8:	ea4f 0c4c 	mov.w	ip, ip, lsl #1
    wY = (wUBeta + wUAlpha) / 2;
 80021bc:	ea4f 0161 	mov.w	r1, r1, asr #1
    wZ = (wUBeta - wUAlpha) / 2;
 80021c0:	ea4f 0e6e 	mov.w	lr, lr, asr #1
    if (wY < 0)
 80021c4:	f2c0 8094 	blt.w	80022f0 <PWMC_SetPhaseVoltage+0x16c>
        }
        }
    }
    else /* wY > 0 */
    {
      if (wZ >= 0)
 80021c8:	1c5d      	adds	r5, r3, #1
 80021ca:	db64      	blt.n	8002296 <PWMC_SetPhaseVoltage+0x112>
      {
        pHandle->Sector = SECTOR_2;
        wTimePhA = (((int32_t)pHandle->PWMperiod) / 4) + ((wY - wZ) / (int32_t)262144);
 80021cc:	ebb1 010e 	subs.w	r1, r1, lr
 80021d0:	bf44      	itt	mi
 80021d2:	f501 317f 	addmi.w	r1, r1, #261120	@ 0x3fc00
 80021d6:	f201 31ff 	addwmi	r1, r1, #1023	@ 0x3ff
        wTimePhB = wTimePhA + (wZ / 131072);
 80021da:	2b00      	cmp	r3, #0
 80021dc:	bfbc      	itt	lt
 80021de:	f503 337f 	addlt.w	r3, r3, #261120	@ 0x3fc00
 80021e2:	f203 33ff 	addwlt	r3, r3, #1023	@ 0x3ff
        wTimePhC = wTimePhA - (wY / 131072);
 80021e6:	2a00      	cmp	r2, #0
        wTimePhA = (((int32_t)pHandle->PWMperiod) / 4) + ((wY - wZ) / (int32_t)262144);
 80021e8:	eb04 41a1 	add.w	r1, r4, r1, asr #18
        wTimePhC = wTimePhA - (wY / 131072);
 80021ec:	bfb8      	it	lt
 80021ee:	f502 327f 	addlt.w	r2, r2, #261120	@ 0x3fc00

        if(true == pHandle->SingleShuntTopology)
 80021f2:	f890 4087 	ldrb.w	r4, [r0, #135]	@ 0x87
        pHandle->Sector = SECTOR_2;
 80021f6:	f04f 0501 	mov.w	r5, #1
        wTimePhC = wTimePhA - (wY / 131072);
 80021fa:	bfb8      	it	lt
 80021fc:	f202 32ff 	addwlt	r2, r2, #1023	@ 0x3ff
        pHandle->Sector = SECTOR_2;
 8002200:	f880 507c 	strb.w	r5, [r0, #124]	@ 0x7c
        wTimePhB = wTimePhA + (wZ / 131072);
 8002204:	eb01 43a3 	add.w	r3, r1, r3, asr #18
        wTimePhC = wTimePhA - (wY / 131072);
 8002208:	eba1 42a2 	sub.w	r2, r1, r2, asr #18
        if(true == pHandle->SingleShuntTopology)
 800220c:	2c00      	cmp	r4, #0
 800220e:	f040 8097 	bne.w	8002340 <PWMC_SetPhaseVoltage+0x1bc>
          pHandle->midDuty = 0U;
          pHandle->highDuty = 1U;
        }
        else
        {
        pHandle->lowDuty = (uint16_t)wTimePhB;
 8002212:	fa1f fe83 	uxth.w	lr, r3
        pHandle->midDuty = (uint16_t)wTimePhA;
 8002216:	fa1f fc81 	uxth.w	ip, r1
        pHandle->highDuty = (uint16_t)wTimePhC;
 800221a:	b294      	uxth	r4, r2
            pHandle->highDuty = 2U;
 800221c:	f8a0 405c 	strh.w	r4, [r0, #92]	@ 0x5c

    pHandle->CntPhA = (uint16_t)(MAX(wTimePhA, 0));
    pHandle->CntPhB = (uint16_t)(MAX(wTimePhB, 0));
    pHandle->CntPhC = (uint16_t)(MAX(wTimePhC, 0));

    if (1U == pHandle->DTTest)
 8002220:	f8b0 4070 	ldrh.w	r4, [r0, #112]	@ 0x70
            pHandle->lowDuty = 0U;
 8002224:	f8a0 e058 	strh.w	lr, [r0, #88]	@ 0x58
    pHandle->CntPhA = (uint16_t)(MAX(wTimePhA, 0));
 8002228:	ea21 71e1 	bic.w	r1, r1, r1, asr #31
    pHandle->CntPhB = (uint16_t)(MAX(wTimePhB, 0));
 800222c:	ea23 73e3 	bic.w	r3, r3, r3, asr #31
    pHandle->CntPhC = (uint16_t)(MAX(wTimePhC, 0));
 8002230:	ea22 72e2 	bic.w	r2, r2, r2, asr #31
 8002234:	b289      	uxth	r1, r1
 8002236:	b29b      	uxth	r3, r3
 8002238:	b292      	uxth	r2, r2
    if (1U == pHandle->DTTest)
 800223a:	2c01      	cmp	r4, #1
            pHandle->midDuty = 1U;
 800223c:	f8a0 c05a 	strh.w	ip, [r0, #90]	@ 0x5a
    pHandle->CntPhA = (uint16_t)(MAX(wTimePhA, 0));
 8002240:	f8a0 1050 	strh.w	r1, [r0, #80]	@ 0x50
    pHandle->CntPhB = (uint16_t)(MAX(wTimePhB, 0));
 8002244:	f8a0 3052 	strh.w	r3, [r0, #82]	@ 0x52
    pHandle->CntPhC = (uint16_t)(MAX(wTimePhC, 0));
 8002248:	f8a0 2054 	strh.w	r2, [r0, #84]	@ 0x54
    if (1U == pHandle->DTTest)
 800224c:	d11e      	bne.n	800228c <PWMC_SetPhaseVoltage+0x108>
    {
      /* Dead time compensation */
      if (pHandle->Ia > 0)
 800224e:	f9b0 5062 	ldrsh.w	r5, [r0, #98]	@ 0x62
      {
        pHandle->CntPhA += pHandle->DTCompCnt;
 8002252:	f8b0 4074 	ldrh.w	r4, [r0, #116]	@ 0x74
      if (pHandle->Ia > 0)
 8002256:	2d00      	cmp	r5, #0
        pHandle->CntPhA += pHandle->DTCompCnt;
 8002258:	bfcc      	ite	gt
 800225a:	1909      	addgt	r1, r1, r4
      }
      else
      {
        pHandle->CntPhA -= pHandle->DTCompCnt;
 800225c:	1b09      	suble	r1, r1, r4
 800225e:	b289      	uxth	r1, r1
 8002260:	f8a0 1050 	strh.w	r1, [r0, #80]	@ 0x50
      }

      if (pHandle->Ib > 0)
 8002264:	f9b0 1064 	ldrsh.w	r1, [r0, #100]	@ 0x64
 8002268:	2900      	cmp	r1, #0
      else
      {
        pHandle->CntPhB -= pHandle->DTCompCnt;
      }

      if (pHandle->Ic > 0)
 800226a:	f9b0 1066 	ldrsh.w	r1, [r0, #102]	@ 0x66
        pHandle->CntPhB += pHandle->DTCompCnt;
 800226e:	bfcc      	ite	gt
 8002270:	191b      	addgt	r3, r3, r4
        pHandle->CntPhB -= pHandle->DTCompCnt;
 8002272:	1b1b      	suble	r3, r3, r4
      if (pHandle->Ic > 0)
 8002274:	2900      	cmp	r1, #0
        pHandle->CntPhB -= pHandle->DTCompCnt;
 8002276:	b29b      	uxth	r3, r3
      {
        pHandle->CntPhC += pHandle->DTCompCnt;
 8002278:	bfcc      	ite	gt
 800227a:	18a4      	addgt	r4, r4, r2
      }
      else
      {
        pHandle->CntPhC -= pHandle->DTCompCnt;
 800227c:	1b12      	suble	r2, r2, r4
 800227e:	f8a0 3052 	strh.w	r3, [r0, #82]	@ 0x52
        pHandle->CntPhC += pHandle->DTCompCnt;
 8002282:	bfcc      	ite	gt
 8002284:	f8a0 4054 	strhgt.w	r4, [r0, #84]	@ 0x54
        pHandle->CntPhC -= pHandle->DTCompCnt;
 8002288:	f8a0 2054 	strhle.w	r2, [r0, #84]	@ 0x54
      }
    }
    returnValue = pHandle->pFctSetADCSampPointSectX(pHandle);
 800228c:	6943      	ldr	r3, [r0, #20]
#ifdef NULL_PTR_CHECK_PWR_CUR_FDB
  }
#endif
  return (returnValue);
}
 800228e:	b003      	add	sp, #12
 8002290:	e8bd 4030 	ldmia.w	sp!, {r4, r5, lr}
    returnValue = pHandle->pFctSetADCSampPointSectX(pHandle);
 8002294:	4718      	bx	r3
        if ( wX <= 0 )
 8002296:	f1bc 0f00 	cmp.w	ip, #0
 800229a:	dd7f      	ble.n	800239c <PWMC_SetPhaseVoltage+0x218>
          wTimePhB = wTimePhA + (wZ / 131072);
 800229c:	2b00      	cmp	r3, #0
 800229e:	bfb8      	it	lt
 80022a0:	f503 337f 	addlt.w	r3, r3, #261120	@ 0x3fc00
          wTimePhA = (((int32_t)pHandle->PWMperiod) / 4)+ ((wX - wZ) / (int32_t)262144);
 80022a4:	ebac 0e0e 	sub.w	lr, ip, lr
          wTimePhB = wTimePhA + (wZ / 131072);
 80022a8:	bfb8      	it	lt
 80022aa:	f203 33ff 	addwlt	r3, r3, #1023	@ 0x3ff
          wTimePhC = wTimePhB - (wX / 131072);
 80022ae:	f1bc 0f00 	cmp.w	ip, #0
          wTimePhA = (((int32_t)pHandle->PWMperiod) / 4)+ ((wX - wZ) / (int32_t)262144);
 80022b2:	eb04 41ae 	add.w	r1, r4, lr, asr #18
          wTimePhC = wTimePhB - (wX / 131072);
 80022b6:	bfb8      	it	lt
 80022b8:	f50c 3cff 	addlt.w	ip, ip, #130560	@ 0x1fe00
          if((pHandle->DPWM_Mode == true) || (pHandle->SingleShuntTopology == true))
 80022bc:	f890 407f 	ldrb.w	r4, [r0, #127]	@ 0x7f
          pHandle->Sector = SECTOR_1;
 80022c0:	f04f 0200 	mov.w	r2, #0
          wTimePhB = wTimePhA + (wZ / 131072);
 80022c4:	eb01 43a3 	add.w	r3, r1, r3, asr #18
          wTimePhC = wTimePhB - (wX / 131072);
 80022c8:	bfb8      	it	lt
 80022ca:	f20c 1cff 	addwlt	ip, ip, #511	@ 0x1ff
          pHandle->Sector = SECTOR_1;
 80022ce:	f880 207c 	strb.w	r2, [r0, #124]	@ 0x7c
          wTimePhC = wTimePhB - (wX / 131072);
 80022d2:	eba3 426c 	sub.w	r2, r3, ip, asr #17
          if((pHandle->DPWM_Mode == true) || (pHandle->SingleShuntTopology == true))
 80022d6:	2c00      	cmp	r4, #0
 80022d8:	f040 80b5 	bne.w	8002446 <PWMC_SetPhaseVoltage+0x2c2>
 80022dc:	f890 5087 	ldrb.w	r5, [r0, #135]	@ 0x87
 80022e0:	2d00      	cmp	r5, #0
 80022e2:	f000 80c2 	beq.w	800246a <PWMC_SetPhaseVoltage+0x2e6>
 80022e6:	f04f 0e02 	mov.w	lr, #2
 80022ea:	f04f 0c01 	mov.w	ip, #1
 80022ee:	e795      	b.n	800221c <PWMC_SetPhaseVoltage+0x98>
      if (wZ < 0)
 80022f0:	f1b3 3fff 	cmp.w	r3, #4294967295
        if(true == pHandle->SingleShuntTopology)
 80022f4:	f890 5087 	ldrb.w	r5, [r0, #135]	@ 0x87
      if (wZ < 0)
 80022f8:	db74      	blt.n	80023e4 <PWMC_SetPhaseVoltage+0x260>
        if (wX <= 0)
 80022fa:	f1bc 0f00 	cmp.w	ip, #0
 80022fe:	dd25      	ble.n	800234c <PWMC_SetPhaseVoltage+0x1c8>
          wTimePhA = (((int32_t )pHandle->PWMperiod) / 4)+ ((wY - wX) / (int32_t)262144);
 8002300:	ebb1 010c 	subs.w	r1, r1, ip
 8002304:	bf44      	itt	mi
 8002306:	f501 317f 	addmi.w	r1, r1, #261120	@ 0x3fc00
 800230a:	f201 31ff 	addwmi	r1, r1, #1023	@ 0x3ff
          wTimePhC = wTimePhA - (wY / 131072);
 800230e:	2a00      	cmp	r2, #0
 8002310:	bfb8      	it	lt
 8002312:	f502 327f 	addlt.w	r2, r2, #261120	@ 0x3fc00
          wTimePhA = (((int32_t )pHandle->PWMperiod) / 4)+ ((wY - wX) / (int32_t)262144);
 8002316:	eb04 41a1 	add.w	r1, r4, r1, asr #18
          wTimePhC = wTimePhA - (wY / 131072);
 800231a:	bfb8      	it	lt
 800231c:	f202 32ff 	addwlt	r2, r2, #1023	@ 0x3ff
          pHandle->Sector = SECTOR_3;
 8002320:	2302      	movs	r3, #2
          wTimePhC = wTimePhA - (wY / 131072);
 8002322:	eba1 42a2 	sub.w	r2, r1, r2, asr #18
          pHandle->Sector = SECTOR_3;
 8002326:	f880 307c 	strb.w	r3, [r0, #124]	@ 0x7c
          wTimePhB = wTimePhC + (wX / 131072);
 800232a:	eb02 436c 	add.w	r3, r2, ip, asr #17
          if(true == pHandle->SingleShuntTopology)
 800232e:	2d00      	cmp	r5, #0
 8002330:	f040 8083 	bne.w	800243a <PWMC_SetPhaseVoltage+0x2b6>
          pHandle->lowDuty = (uint16_t)wTimePhB;
 8002334:	fa1f fe83 	uxth.w	lr, r3
          pHandle->midDuty = (uint16_t)wTimePhC;
 8002338:	fa1f fc82 	uxth.w	ip, r2
          pHandle->highDuty = (uint16_t)wTimePhA;
 800233c:	b28c      	uxth	r4, r1
 800233e:	e76d      	b.n	800221c <PWMC_SetPhaseVoltage+0x98>
 8002340:	f04f 0e02 	mov.w	lr, #2
 8002344:	f04f 0c00 	mov.w	ip, #0
 8002348:	2401      	movs	r4, #1
 800234a:	e767      	b.n	800221c <PWMC_SetPhaseVoltage+0x98>
          wTimePhA = (((int32_t)pHandle->PWMperiod) / 4) + ((wX - wZ) / (int32_t)262144);
 800234c:	ebbc 0e0e 	subs.w	lr, ip, lr
 8002350:	bf44      	itt	mi
 8002352:	f50e 3e7f 	addmi.w	lr, lr, #261120	@ 0x3fc00
 8002356:	f20e 3eff 	addwmi	lr, lr, #1023	@ 0x3ff
          wTimePhB = wTimePhA + (wZ / 131072);
 800235a:	2b00      	cmp	r3, #0
 800235c:	bfb8      	it	lt
 800235e:	f503 337f 	addlt.w	r3, r3, #261120	@ 0x3fc00
          pHandle->Sector = SECTOR_4;
 8002362:	f04f 0203 	mov.w	r2, #3
          wTimePhB = wTimePhA + (wZ / 131072);
 8002366:	bfb8      	it	lt
 8002368:	f203 33ff 	addwlt	r3, r3, #1023	@ 0x3ff
          pHandle->Sector = SECTOR_4;
 800236c:	f880 207c 	strb.w	r2, [r0, #124]	@ 0x7c
          wTimePhC = wTimePhB - (wX / 131072);
 8002370:	f1bc 0200 	subs.w	r2, ip, #0
 8002374:	bfb8      	it	lt
 8002376:	f502 32ff 	addlt.w	r2, r2, #130560	@ 0x1fe00
          wTimePhA = (((int32_t)pHandle->PWMperiod) / 4) + ((wX - wZ) / (int32_t)262144);
 800237a:	eb04 41ae 	add.w	r1, r4, lr, asr #18
          wTimePhB = wTimePhA + (wZ / 131072);
 800237e:	eb01 43a3 	add.w	r3, r1, r3, asr #18
          wTimePhC = wTimePhB - (wX / 131072);
 8002382:	bfb8      	it	lt
 8002384:	f202 12ff 	addwlt	r2, r2, #511	@ 0x1ff
 8002388:	eba3 4262 	sub.w	r2, r3, r2, asr #17
          if(true == pHandle->SingleShuntTopology)
 800238c:	2d00      	cmp	r5, #0
 800238e:	d066      	beq.n	800245e <PWMC_SetPhaseVoltage+0x2da>
 8002390:	f04f 0e00 	mov.w	lr, #0
 8002394:	f04f 0c01 	mov.w	ip, #1
 8002398:	2402      	movs	r4, #2
 800239a:	e73f      	b.n	800221c <PWMC_SetPhaseVoltage+0x98>
          wTimePhC = wTimePhA - (wY / 131072);
 800239c:	2a00      	cmp	r2, #0
 800239e:	bfb8      	it	lt
 80023a0:	f502 327f 	addlt.w	r2, r2, #261120	@ 0x3fc00
          pHandle->Sector = SECTOR_6;
 80023a4:	f04f 0305 	mov.w	r3, #5
          wTimePhC = wTimePhA - (wY / 131072);
 80023a8:	bfb8      	it	lt
 80023aa:	f202 32ff 	addwlt	r2, r2, #1023	@ 0x3ff
          wTimePhA = (((int32_t )pHandle->PWMperiod) / 4) + ((wY - wX) / (int32_t)262144);
 80023ae:	eba1 010c 	sub.w	r1, r1, ip
          pHandle->Sector = SECTOR_6;
 80023b2:	f880 307c 	strb.w	r3, [r0, #124]	@ 0x7c
          wTimePhB = wTimePhC + (wX / 131072);
 80023b6:	f1bc 0300 	subs.w	r3, ip, #0
          wTimePhA = (((int32_t )pHandle->PWMperiod) / 4) + ((wY - wX) / (int32_t)262144);
 80023ba:	eb04 41a1 	add.w	r1, r4, r1, asr #18
          wTimePhB = wTimePhC + (wX / 131072);
 80023be:	bfb8      	it	lt
 80023c0:	f503 33ff 	addlt.w	r3, r3, #130560	@ 0x1fe00
          if(true == pHandle->SingleShuntTopology)
 80023c4:	f890 4087 	ldrb.w	r4, [r0, #135]	@ 0x87
          wTimePhC = wTimePhA - (wY / 131072);
 80023c8:	eba1 42a2 	sub.w	r2, r1, r2, asr #18
          wTimePhB = wTimePhC + (wX / 131072);
 80023cc:	bfb8      	it	lt
 80023ce:	f203 13ff 	addwlt	r3, r3, #511	@ 0x1ff
 80023d2:	eb02 4363 	add.w	r3, r2, r3, asr #17
          if(true == pHandle->SingleShuntTopology)
 80023d6:	b3e4      	cbz	r4, 8002452 <PWMC_SetPhaseVoltage+0x2ce>
 80023d8:	f04f 0e01 	mov.w	lr, #1
 80023dc:	f04f 0c02 	mov.w	ip, #2
 80023e0:	2400      	movs	r4, #0
 80023e2:	e71b      	b.n	800221c <PWMC_SetPhaseVoltage+0x98>
        wTimePhA = (((int32_t)pHandle->PWMperiod) / 4) + ((wY - wZ) / (int32_t)262144);
 80023e4:	ebb1 010e 	subs.w	r1, r1, lr
 80023e8:	bf44      	itt	mi
 80023ea:	f501 317f 	addmi.w	r1, r1, #261120	@ 0x3fc00
 80023ee:	f201 31ff 	addwmi	r1, r1, #1023	@ 0x3ff
        wTimePhB = wTimePhA + (wZ / 131072);
 80023f2:	2b00      	cmp	r3, #0
 80023f4:	bfbc      	itt	lt
 80023f6:	f503 337f 	addlt.w	r3, r3, #261120	@ 0x3fc00
 80023fa:	f203 33ff 	addwlt	r3, r3, #1023	@ 0x3ff
        wTimePhC = wTimePhA - (wY / 131072) ;
 80023fe:	2a00      	cmp	r2, #0
 8002400:	bfb8      	it	lt
 8002402:	f502 327f 	addlt.w	r2, r2, #261120	@ 0x3fc00
        wTimePhA = (((int32_t)pHandle->PWMperiod) / 4) + ((wY - wZ) / (int32_t)262144);
 8002406:	eb04 41a1 	add.w	r1, r4, r1, asr #18
        pHandle->Sector = SECTOR_5;
 800240a:	f04f 0c04 	mov.w	ip, #4
        wTimePhC = wTimePhA - (wY / 131072) ;
 800240e:	bfb8      	it	lt
 8002410:	f202 32ff 	addwlt	r2, r2, #1023	@ 0x3ff
        pHandle->Sector = SECTOR_5;
 8002414:	f880 c07c 	strb.w	ip, [r0, #124]	@ 0x7c
        wTimePhB = wTimePhA + (wZ / 131072);
 8002418:	eb01 43a3 	add.w	r3, r1, r3, asr #18
        wTimePhC = wTimePhA - (wY / 131072) ;
 800241c:	eba1 42a2 	sub.w	r2, r1, r2, asr #18
        if(true == pHandle->SingleShuntTopology)
 8002420:	b92d      	cbnz	r5, 800242e <PWMC_SetPhaseVoltage+0x2aa>
          pHandle->lowDuty = (uint16_t)wTimePhC;
 8002422:	fa1f fe82 	uxth.w	lr, r2
          pHandle->midDuty = (uint16_t)wTimePhA;
 8002426:	fa1f fc81 	uxth.w	ip, r1
          pHandle->highDuty = (uint16_t)wTimePhB;
 800242a:	b29c      	uxth	r4, r3
 800242c:	e6f6      	b.n	800221c <PWMC_SetPhaseVoltage+0x98>
 800242e:	f04f 0e01 	mov.w	lr, #1
 8002432:	f04f 0c00 	mov.w	ip, #0
 8002436:	2402      	movs	r4, #2
 8002438:	e6f0      	b.n	800221c <PWMC_SetPhaseVoltage+0x98>
 800243a:	f04f 0e00 	mov.w	lr, #0
 800243e:	f04f 0c02 	mov.w	ip, #2
 8002442:	2401      	movs	r4, #1
 8002444:	e6ea      	b.n	800221c <PWMC_SetPhaseVoltage+0x98>
 8002446:	f04f 0e02 	mov.w	lr, #2
 800244a:	f04f 0c01 	mov.w	ip, #1
 800244e:	2400      	movs	r4, #0
 8002450:	e6e4      	b.n	800221c <PWMC_SetPhaseVoltage+0x98>
            pHandle->lowDuty = (uint16_t)wTimePhA;
 8002452:	fa1f fe81 	uxth.w	lr, r1
            pHandle->midDuty = (uint16_t)wTimePhC;
 8002456:	fa1f fc82 	uxth.w	ip, r2
            pHandle->highDuty = (uint16_t)wTimePhB;
 800245a:	b29c      	uxth	r4, r3
 800245c:	e6de      	b.n	800221c <PWMC_SetPhaseVoltage+0x98>
          pHandle->lowDuty = (uint16_t)wTimePhC;
 800245e:	fa1f fe82 	uxth.w	lr, r2
          pHandle->midDuty = (uint16_t)wTimePhB;
 8002462:	fa1f fc83 	uxth.w	ip, r3
          pHandle->highDuty = (uint16_t)wTimePhA;
 8002466:	b28c      	uxth	r4, r1
 8002468:	e6d8      	b.n	800221c <PWMC_SetPhaseVoltage+0x98>
            pHandle->lowDuty = (uint16_t)wTimePhA;
 800246a:	fa1f fe81 	uxth.w	lr, r1
            pHandle->midDuty = (uint16_t)wTimePhB;
 800246e:	fa1f fc83 	uxth.w	ip, r3
            pHandle->highDuty = (uint16_t)wTimePhC;
 8002472:	b294      	uxth	r4, r2
 8002474:	e6d2      	b.n	800221c <PWMC_SetPhaseVoltage+0x98>
 8002476:	bf00      	nop

08002478 <PWMC_SwitchOffPWM>:
    /* Nothing to do */
  }
  else
  {
#endif
    pHandle->pFctSwitchOffPwm(pHandle);
 8002478:	6843      	ldr	r3, [r0, #4]
 800247a:	4718      	bx	r3

0800247c <PWMC_SwitchOnPWM>:
    /* Nothing to do */
  }
  else
  {
#endif
    pHandle->pFctSwitchOnPwm(pHandle);
 800247c:	6883      	ldr	r3, [r0, #8]
 800247e:	4718      	bx	r3

08002480 <PWMC_CurrentReadingCalibr>:
  *         #CRC_EXEC to execute the offset calibration.
  * @retval true if the current calibration has been completed, **false** if it is
  *         still ongoing.
  */
__weak bool PWMC_CurrentReadingCalibr(PWMC_Handle_t *pHandle, CRCAction_t action)
{
 8002480:	b510      	push	{r4, lr}
 8002482:	4604      	mov	r4, r0
    /* Nothing to do */
  }
  else
  {
#endif
    if (CRC_START == action)
 8002484:	b179      	cbz	r1, 80024a6 <PWMC_CurrentReadingCalibr+0x26>
    {
      PWMC_SwitchOffPWM(pHandle);
      pHandle->pFctCurrReadingCalib(pHandle);
      retVal = true;
    }
    else if (CRC_EXEC == action)
 8002486:	2901      	cmp	r1, #1
 8002488:	d001      	beq.n	800248e <PWMC_CurrentReadingCalibr+0xe>
  bool retVal = false;
 800248a:	2000      	movs	r0, #0
    }
#ifdef NULL_PTR_CHECK_PWR_CUR_FDB
  }
#endif
  return (retVal);
}
 800248c:	bd10      	pop	{r4, pc}
      if (pHandle->OffCalibrWaitTimeCounter > 0u)
 800248e:	f8b0 3060 	ldrh.w	r3, [r0, #96]	@ 0x60
 8002492:	b16b      	cbz	r3, 80024b0 <PWMC_CurrentReadingCalibr+0x30>
        pHandle->OffCalibrWaitTimeCounter--;
 8002494:	3b01      	subs	r3, #1
 8002496:	b29b      	uxth	r3, r3
 8002498:	f8a0 3060 	strh.w	r3, [r0, #96]	@ 0x60
        if (0U == pHandle->OffCalibrWaitTimeCounter)
 800249c:	2b00      	cmp	r3, #0
 800249e:	d1f4      	bne.n	800248a <PWMC_CurrentReadingCalibr+0xa>
          pHandle->pFctCurrReadingCalib(pHandle);
 80024a0:	68c3      	ldr	r3, [r0, #12]
 80024a2:	4798      	blx	r3
          retVal = true;
 80024a4:	e004      	b.n	80024b0 <PWMC_CurrentReadingCalibr+0x30>
      PWMC_SwitchOffPWM(pHandle);
 80024a6:	f7ff ffe7 	bl	8002478 <PWMC_SwitchOffPWM>
      pHandle->pFctCurrReadingCalib(pHandle);
 80024aa:	68e3      	ldr	r3, [r4, #12]
 80024ac:	4620      	mov	r0, r4
 80024ae:	4798      	blx	r3
      retVal = true;
 80024b0:	2001      	movs	r0, #1
}
 80024b2:	bd10      	pop	{r4, pc}

080024b4 <PWMC_OVP_Handler>:
    tempPointer = MC_NULL;
  }
  else
  {
#endif
    TIMx->BDTR |= LL_TIM_OSSI_ENABLE;
 80024b4:	6c4a      	ldr	r2, [r1, #68]	@ 0x44
{
 80024b6:	4603      	mov	r3, r0
    pHandle->OverVoltageFlag = true;
 80024b8:	f04f 0c01 	mov.w	ip, #1
    TIMx->BDTR |= LL_TIM_OSSI_ENABLE;
 80024bc:	f442 6280 	orr.w	r2, r2, #1024	@ 0x400
 80024c0:	644a      	str	r2, [r1, #68]	@ 0x44
    tempPointer = &(pHandle->Motor);
#ifdef NULL_PTR_CHECK_PWR_CUR_FDB
  }
#endif
  return (tempPointer);
}
 80024c2:	307a      	adds	r0, #122	@ 0x7a
    pHandle->OverVoltageFlag = true;
 80024c4:	f883 c083 	strb.w	ip, [r3, #131]	@ 0x83
    pHandle->BrakeActionLock = true;
 80024c8:	f883 c085 	strb.w	ip, [r3, #133]	@ 0x85
}
 80024cc:	4770      	bx	lr
 80024ce:	bf00      	nop

080024d0 <PWMC_IsFaultOccurred>:
  * @param  pHdl: Handler of the current instance of the PWM component.
  * @retval uint16_t Returns #MC_OVER_CURR if an overcurrent has been
  *                  detected since last method call, #MC_NO_FAULTS otherwise.
  */
__weak uint16_t PWMC_IsFaultOccurred(PWMC_Handle_t *pHandle)
{
 80024d0:	4603      	mov	r3, r0
  uint16_t retVal = MC_NO_FAULTS;

  if (true == pHandle->OverVoltageFlag)
 80024d2:	f890 0083 	ldrb.w	r0, [r0, #131]	@ 0x83
 80024d6:	b1a8      	cbz	r0, 8002504 <PWMC_IsFaultOccurred+0x34>
  {
    retVal = MC_OVER_VOLT;
    pHandle->OverVoltageFlag = false;
 80024d8:	2200      	movs	r2, #0
 80024da:	f883 2083 	strb.w	r2, [r3, #131]	@ 0x83
 80024de:	2142      	movs	r1, #66	@ 0x42
    retVal = MC_OVER_VOLT;
 80024e0:	2002      	movs	r0, #2
  else
  {
    /* Nothing to do */
  }

  if (true == pHandle->OverCurrentFlag)
 80024e2:	f893 2082 	ldrb.w	r2, [r3, #130]	@ 0x82
 80024e6:	b11a      	cbz	r2, 80024f0 <PWMC_IsFaultOccurred+0x20>
  {
    retVal |= MC_OVER_CURR;
    pHandle->OverCurrentFlag = false;
 80024e8:	2200      	movs	r2, #0
 80024ea:	f883 2082 	strb.w	r2, [r3, #130]	@ 0x82
    retVal |= MC_OVER_CURR;
 80024ee:	4608      	mov	r0, r1
  else
  {
    /* Nothing to do */
  }

  if (true == pHandle->driverProtectionFlag)
 80024f0:	f893 2084 	ldrb.w	r2, [r3, #132]	@ 0x84
 80024f4:	b12a      	cbz	r2, 8002502 <PWMC_IsFaultOccurred+0x32>
  {
    retVal |= MC_DP_FAULT;
 80024f6:	f440 6080 	orr.w	r0, r0, #1024	@ 0x400
    pHandle->driverProtectionFlag = false;
 80024fa:	2200      	movs	r2, #0
    retVal |= MC_DP_FAULT;
 80024fc:	b280      	uxth	r0, r0
    pHandle->driverProtectionFlag = false;
 80024fe:	f883 2084 	strb.w	r2, [r3, #132]	@ 0x84
  {
    /* Nothing to do */
  }

  return (retVal);
}
 8002502:	4770      	bx	lr
 8002504:	2140      	movs	r1, #64	@ 0x40
 8002506:	e7ec      	b.n	80024e2 <PWMC_IsFaultOccurred+0x12>

08002508 <RI_SetRegisterGlobal>:
#include "mcp_config.h"
#include "mcpa.h"
#include "mc_configuration_registers.h"

uint8_t RI_SetRegisterGlobal(uint16_t regID, uint8_t typeID, uint8_t *data, uint16_t *size, int16_t dataAvailable)
{
 8002508:	b410      	push	{r4}
  uint8_t retVal = MCP_CMD_OK;
  switch(typeID)
 800250a:	3908      	subs	r1, #8
{
 800250c:	f9bd c004 	ldrsh.w	ip, [sp, #4]
  switch(typeID)
 8002510:	2920      	cmp	r1, #32
 8002512:	d812      	bhi.n	800253a <RI_SetRegisterGlobal+0x32>
 8002514:	e8df f001 	tbb	[pc, r1]
 8002518:	11111117 	.word	0x11111117
 800251c:	11111111 	.word	0x11111111
 8002520:	11111121 	.word	0x11111121
 8002524:	11111111 	.word	0x11111111
 8002528:	11111133 	.word	0x11111133
 800252c:	11111111 	.word	0x11111111
 8002530:	1111113d 	.word	0x1111113d
 8002534:	11111111 	.word	0x11111111
 8002538:	51          	.byte	0x51
 8002539:	00          	.byte	0x00
    }

    default:
    {
      retVal = MCP_ERROR_BAD_DATA_TYPE;
      *size =0; /* From this point we are not able anymore to decode the RX buffer */
 800253a:	2200      	movs	r2, #0
 800253c:	801a      	strh	r2, [r3, #0]
      retVal = MCP_ERROR_BAD_DATA_TYPE;
 800253e:	2007      	movs	r0, #7
      break;
    }
  }
  return (retVal);
}
 8002540:	f85d 4b04 	ldr.w	r4, [sp], #4
 8002544:	4770      	bx	lr
          retVal = MCP_ERROR_RO_REG;
 8002546:	2848      	cmp	r0, #72	@ 0x48
      *size = 1;
 8002548:	f04f 0201 	mov.w	r2, #1
          retVal = MCP_ERROR_RO_REG;
 800254c:	bf14      	ite	ne
 800254e:	2005      	movne	r0, #5
 8002550:	2004      	moveq	r0, #4
}
 8002552:	f85d 4b04 	ldr.w	r4, [sp], #4
      *size = 1;
 8002556:	801a      	strh	r2, [r3, #0]
}
 8002558:	4770      	bx	lr
      switch (regID)
 800255a:	f5b0 6f65 	cmp.w	r0, #3664	@ 0xe50
 800255e:	d04e      	beq.n	80025fe <RI_SetRegisterGlobal+0xf6>
 8002560:	d93e      	bls.n	80025e0 <RI_SetRegisterGlobal+0xd8>
 8002562:	f5b0 6f69 	cmp.w	r0, #3728	@ 0xe90
 8002566:	d04a      	beq.n	80025fe <RI_SetRegisterGlobal+0xf6>
 8002568:	f641 3258 	movw	r2, #7000	@ 0x1b58
          retVal = MCP_ERROR_UNKNOWN_REG;
 800256c:	4290      	cmp	r0, r2
 800256e:	bf0c      	ite	eq
 8002570:	2004      	moveq	r0, #4
 8002572:	2005      	movne	r0, #5
      *size = 2;
 8002574:	2202      	movs	r2, #2
}
 8002576:	f85d 4b04 	ldr.w	r4, [sp], #4
      *size = 2;
 800257a:	801a      	strh	r2, [r3, #0]
}
 800257c:	4770      	bx	lr
          retVal = MCP_ERROR_RO_REG;
 800257e:	2818      	cmp	r0, #24
      *size = 4;
 8002580:	f04f 0204 	mov.w	r2, #4
          retVal = MCP_ERROR_RO_REG;
 8002584:	bf14      	ite	ne
 8002586:	2005      	movne	r0, #5
 8002588:	4610      	moveq	r0, r2
}
 800258a:	f85d 4b04 	ldr.w	r4, [sp], #4
      *size = 4;
 800258e:	801a      	strh	r2, [r3, #0]
}
 8002590:	4770      	bx	lr
uint8_t RI_MovString(const char_t *srcString, char_t *destString, uint16_t *size, int16_t maxSize)
{
  uint8_t retVal = MCP_CMD_OK;
  const char_t *tempsrcString = srcString;
  char_t *tempdestString = destString;
  *size= 1U ; /* /0 is the min String size */
 8002592:	2101      	movs	r1, #1
 8002594:	8019      	strh	r1, [r3, #0]

  while ((*tempsrcString != (char_t)0) && (*size < (uint16_t)maxSize))
 8002596:	f992 0000 	ldrsb.w	r0, [r2]
 800259a:	b348      	cbz	r0, 80025f0 <RI_SetRegisterGlobal+0xe8>
 800259c:	fa1f f08c 	uxth.w	r0, ip
 80025a0:	e003      	b.n	80025aa <RI_SetRegisterGlobal+0xa2>
  {
    *tempdestString = *tempsrcString;
    tempdestString++;
    tempsrcString++;
    *size = *size + 1U;
 80025a2:	8019      	strh	r1, [r3, #0]
  while ((*tempsrcString != (char_t)0) && (*size < (uint16_t)maxSize))
 80025a4:	f912 4f01 	ldrsb.w	r4, [r2, #1]!
 80025a8:	b314      	cbz	r4, 80025f0 <RI_SetRegisterGlobal+0xe8>
    *size = *size + 1U;
 80025aa:	f101 0c01 	add.w	ip, r1, #1
  while ((*tempsrcString != (char_t)0) && (*size < (uint16_t)maxSize))
 80025ae:	4281      	cmp	r1, r0
    *size = *size + 1U;
 80025b0:	fa1f f18c 	uxth.w	r1, ip
  while ((*tempsrcString != (char_t)0) && (*size < (uint16_t)maxSize))
 80025b4:	d3f5      	bcc.n	80025a2 <RI_SetRegisterGlobal+0x9a>
      retVal = MCP_ERROR_RO_REG;
 80025b6:	2004      	movs	r0, #4
 80025b8:	e7c2      	b.n	8002540 <RI_SetRegisterGlobal+0x38>
      *size = rawSize + 2U;
 80025ba:	8812      	ldrh	r2, [r2, #0]
 80025bc:	3202      	adds	r2, #2
 80025be:	b292      	uxth	r2, r2
      if (*size > (uint16_t)dataAvailable)
 80025c0:	fa1f fc8c 	uxth.w	ip, ip
 80025c4:	4562      	cmp	r2, ip
      *size = rawSize + 2U;
 80025c6:	801a      	strh	r2, [r3, #0]
      if (*size > (uint16_t)dataAvailable)
 80025c8:	d81b      	bhi.n	8002602 <RI_SetRegisterGlobal+0xfa>
        switch (regID)
 80025ca:	28a8      	cmp	r0, #168	@ 0xa8
 80025cc:	d0f3      	beq.n	80025b6 <RI_SetRegisterGlobal+0xae>
 80025ce:	d813      	bhi.n	80025f8 <RI_SetRegisterGlobal+0xf0>
 80025d0:	f020 0040 	bic.w	r0, r0, #64	@ 0x40
 80025d4:	2828      	cmp	r0, #40	@ 0x28
 80025d6:	d0ee      	beq.n	80025b6 <RI_SetRegisterGlobal+0xae>
 80025d8:	2005      	movs	r0, #5
}
 80025da:	f85d 4b04 	ldr.w	r4, [sp], #4
 80025de:	4770      	bx	lr
 80025e0:	f020 0040 	bic.w	r0, r0, #64	@ 0x40
          retVal = MCP_ERROR_UNKNOWN_REG;
 80025e4:	f5b0 6fb2 	cmp.w	r0, #1424	@ 0x590
 80025e8:	bf0c      	ite	eq
 80025ea:	2004      	moveq	r0, #4
 80025ec:	2005      	movne	r0, #5
 80025ee:	e7c1      	b.n	8002574 <RI_SetRegisterGlobal+0x6c>
  { /* Last string char must be 0 */
    retVal = MCP_ERROR_STRING_FORMAT;
  }
  else
  {
    *tempdestString = (int8_t)0;
 80025f0:	2300      	movs	r3, #0
 80025f2:	7013      	strb	r3, [r2, #0]
      retVal = MCP_ERROR_RO_REG;
 80025f4:	2004      	movs	r0, #4
 80025f6:	e7a3      	b.n	8002540 <RI_SetRegisterGlobal+0x38>
 80025f8:	28e8      	cmp	r0, #232	@ 0xe8
 80025fa:	d1ed      	bne.n	80025d8 <RI_SetRegisterGlobal+0xd0>
 80025fc:	e7db      	b.n	80025b6 <RI_SetRegisterGlobal+0xae>
  uint8_t retVal = MCP_CMD_OK;
 80025fe:	2000      	movs	r0, #0
 8002600:	e7b8      	b.n	8002574 <RI_SetRegisterGlobal+0x6c>
        *size = 0;
 8002602:	2200      	movs	r2, #0
 8002604:	801a      	strh	r2, [r3, #0]
        retVal = MCP_ERROR_BAD_RAW_FORMAT; /* This error stop the parsing of the CMD buffer */
 8002606:	200a      	movs	r0, #10
 8002608:	e79a      	b.n	8002540 <RI_SetRegisterGlobal+0x38>
 800260a:	bf00      	nop

0800260c <RI_SetRegisterMotor1>:
{
 800260c:	b530      	push	{r4, r5, lr}
 800260e:	b083      	sub	sp, #12
  switch(typeID)
 8002610:	3908      	subs	r1, #8
{
 8002612:	f9bd c018 	ldrsh.w	ip, [sp, #24]
 8002616:	4696      	mov	lr, r2
 8002618:	461c      	mov	r4, r3
  switch(typeID)
 800261a:	2920      	cmp	r1, #32
 800261c:	d812      	bhi.n	8002644 <RI_SetRegisterMotor1+0x38>
 800261e:	e8df f001 	tbb	[pc, r1]
 8002622:	1116      	.short	0x1116
 8002624:	11111111 	.word	0x11111111
 8002628:	11251111 	.word	0x11251111
 800262c:	11111111 	.word	0x11111111
 8002630:	114d1111 	.word	0x114d1111
 8002634:	11111111 	.word	0x11111111
 8002638:	115b1111 	.word	0x115b1111
 800263c:	11111111 	.word	0x11111111
 8002640:	1111      	.short	0x1111
 8002642:	72          	.byte	0x72
 8002643:	00          	.byte	0x00
      *size =0; /* From this point we are not able anymore to decode the RX buffer */
 8002644:	2300      	movs	r3, #0
 8002646:	8023      	strh	r3, [r4, #0]
      retVal = MCP_ERROR_BAD_DATA_TYPE;
 8002648:	2007      	movs	r0, #7
}
 800264a:	b003      	add	sp, #12
 800264c:	bd30      	pop	{r4, r5, pc}
      switch (regID)
 800264e:	2848      	cmp	r0, #72	@ 0x48
 8002650:	f000 818b 	beq.w	800296a <RI_SetRegisterMotor1+0x35e>
 8002654:	2888      	cmp	r0, #136	@ 0x88
 8002656:	f040 817f 	bne.w	8002958 <RI_SetRegisterMotor1+0x34c>
          uint8_t regdata8 = *data;
 800265a:	7813      	ldrb	r3, [r2, #0]
          if ((uint8_t)MCM_TORQUE_MODE == regdata8)
 800265c:	2b04      	cmp	r3, #4
 800265e:	f000 8194 	beq.w	800298a <RI_SetRegisterMotor1+0x37e>
          if ((uint8_t)MCM_SPEED_MODE == regdata8)
 8002662:	2b03      	cmp	r3, #3
 8002664:	f000 81ba 	beq.w	80029dc <RI_SetRegisterMotor1+0x3d0>
  uint8_t retVal = MCP_CMD_OK;
 8002668:	2000      	movs	r0, #0
 800266a:	e176      	b.n	800295a <RI_SetRegisterMotor1+0x34e>
      uint16_t regdata16 = *(uint16_t *)data; //cstat !MISRAC2012-Rule-11.3
 800266c:	f5b0 6f15 	cmp.w	r0, #2384	@ 0x950
 8002670:	8815      	ldrh	r5, [r2, #0]
      switch (regID)
 8002672:	f000 81ee 	beq.w	8002a52 <RI_SetRegisterMotor1+0x446>
 8002676:	f200 80b2 	bhi.w	80027de <RI_SetRegisterMotor1+0x1d2>
 800267a:	f5b0 7f04 	cmp.w	r0, #528	@ 0x210
 800267e:	f000 81e3 	beq.w	8002a48 <RI_SetRegisterMotor1+0x43c>
 8002682:	f240 809b 	bls.w	80027bc <RI_SetRegisterMotor1+0x1b0>
 8002686:	f5b0 7f44 	cmp.w	r0, #784	@ 0x310
 800268a:	f000 81ff 	beq.w	8002a8c <RI_SetRegisterMotor1+0x480>
 800268e:	d97f      	bls.n	8002790 <RI_SetRegisterMotor1+0x184>
 8002690:	f5b0 6f82 	cmp.w	r0, #1040	@ 0x410
 8002694:	f000 81e8 	beq.w	8002a68 <RI_SetRegisterMotor1+0x45c>
 8002698:	d955      	bls.n	8002746 <RI_SetRegisterMotor1+0x13a>
 800269a:	f5b0 6f01 	cmp.w	r0, #2064	@ 0x810
 800269e:	d050      	beq.n	8002742 <RI_SetRegisterMotor1+0x136>
 80026a0:	d96c      	bls.n	800277c <RI_SetRegisterMotor1+0x170>
 80026a2:	f5b0 6f0d 	cmp.w	r0, #2256	@ 0x8d0
 80026a6:	d04c      	beq.n	8002742 <RI_SetRegisterMotor1+0x136>
 80026a8:	d95f      	bls.n	800276a <RI_SetRegisterMotor1+0x15e>
          retVal = MCP_ERROR_UNKNOWN_REG;
 80026aa:	f5b0 6f11 	cmp.w	r0, #2320	@ 0x910
 80026ae:	bf0c      	ite	eq
 80026b0:	2004      	moveq	r0, #4
 80026b2:	2005      	movne	r0, #5
      *size = 2;
 80026b4:	2302      	movs	r3, #2
 80026b6:	8023      	strh	r3, [r4, #0]
}
 80026b8:	b003      	add	sp, #12
 80026ba:	bd30      	pop	{r4, r5, pc}
      switch (regID)
 80026bc:	2898      	cmp	r0, #152	@ 0x98
 80026be:	f000 8156 	beq.w	800296e <RI_SetRegisterMotor1+0x362>
 80026c2:	d871      	bhi.n	80027a8 <RI_SetRegisterMotor1+0x19c>
 80026c4:	f020 0040 	bic.w	r0, r0, #64	@ 0x40
 80026c8:	2818      	cmp	r0, #24
 80026ca:	bf0c      	ite	eq
 80026cc:	2004      	moveq	r0, #4
 80026ce:	2005      	movne	r0, #5
      *size = 4;
 80026d0:	2304      	movs	r3, #4
 80026d2:	8023      	strh	r3, [r4, #0]
}
 80026d4:	b003      	add	sp, #12
 80026d6:	bd30      	pop	{r4, r5, pc}
  *size= 1U ; /* /0 is the min String size */
 80026d8:	2001      	movs	r0, #1
 80026da:	8020      	strh	r0, [r4, #0]
  while ((*tempsrcString != (char_t)0) && (*size < (uint16_t)maxSize))
 80026dc:	f992 3000 	ldrsb.w	r3, [r2]
 80026e0:	2b00      	cmp	r3, #0
 80026e2:	f000 8135 	beq.w	8002950 <RI_SetRegisterMotor1+0x344>
 80026e6:	fa1f f38c 	uxth.w	r3, ip
 80026ea:	e005      	b.n	80026f8 <RI_SetRegisterMotor1+0xec>
    *size = *size + 1U;
 80026ec:	8020      	strh	r0, [r4, #0]
  while ((*tempsrcString != (char_t)0) && (*size < (uint16_t)maxSize))
 80026ee:	f91e 1f01 	ldrsb.w	r1, [lr, #1]!
 80026f2:	2900      	cmp	r1, #0
 80026f4:	f000 812c 	beq.w	8002950 <RI_SetRegisterMotor1+0x344>
    *size = *size + 1U;
 80026f8:	f100 0c01 	add.w	ip, r0, #1
  while ((*tempsrcString != (char_t)0) && (*size < (uint16_t)maxSize))
 80026fc:	4298      	cmp	r0, r3
    *size = *size + 1U;
 80026fe:	fa1f f08c 	uxth.w	r0, ip
  while ((*tempsrcString != (char_t)0) && (*size < (uint16_t)maxSize))
 8002702:	d3f3      	bcc.n	80026ec <RI_SetRegisterMotor1+0xe0>
 8002704:	e01b      	b.n	800273e <RI_SetRegisterMotor1+0x132>
      *size = rawSize + 2U;
 8002706:	8812      	ldrh	r2, [r2, #0]
 8002708:	3202      	adds	r2, #2
 800270a:	b292      	uxth	r2, r2
      if (*size > (uint16_t)dataAvailable)
 800270c:	fa1f f38c 	uxth.w	r3, ip
 8002710:	429a      	cmp	r2, r3
      *size = rawSize + 2U;
 8002712:	8022      	strh	r2, [r4, #0]
      if (*size > (uint16_t)dataAvailable)
 8002714:	f200 8125 	bhi.w	8002962 <RI_SetRegisterMotor1+0x356>
        switch (regID)
 8002718:	f5b0 7ff4 	cmp.w	r0, #488	@ 0x1e8
 800271c:	f000 8156 	beq.w	80029cc <RI_SetRegisterMotor1+0x3c0>
 8002720:	f200 8108 	bhi.w	8002934 <RI_SetRegisterMotor1+0x328>
 8002724:	f5b0 7fd4 	cmp.w	r0, #424	@ 0x1a8
 8002728:	f000 8142 	beq.w	80029b0 <RI_SetRegisterMotor1+0x3a4>
 800272c:	f200 80ff 	bhi.w	800292e <RI_SetRegisterMotor1+0x322>
 8002730:	28a8      	cmp	r0, #168	@ 0xa8
 8002732:	d004      	beq.n	800273e <RI_SetRegisterMotor1+0x132>
 8002734:	f240 80f6 	bls.w	8002924 <RI_SetRegisterMotor1+0x318>
 8002738:	28e8      	cmp	r0, #232	@ 0xe8
 800273a:	f040 80f8 	bne.w	800292e <RI_SetRegisterMotor1+0x322>
      retVal = MCP_ERROR_RO_REG;
 800273e:	2004      	movs	r0, #4
 8002740:	e783      	b.n	800264a <RI_SetRegisterMotor1+0x3e>
 8002742:	2004      	movs	r0, #4
 8002744:	e7b6      	b.n	80026b4 <RI_SetRegisterMotor1+0xa8>
 8002746:	f5b0 7f74 	cmp.w	r0, #976	@ 0x3d0
 800274a:	f040 80a8 	bne.w	800289e <RI_SetRegisterMotor1+0x292>
          STO_CR_GetObserverGains(&STO_CR_M1, &hC1,&hC2);
 800274e:	48ad      	ldr	r0, [pc, #692]	@ (8002a04 <RI_SetRegisterMotor1+0x3f8>)
 8002750:	aa01      	add	r2, sp, #4
 8002752:	f10d 0102 	add.w	r1, sp, #2
 8002756:	f004 fdd5 	bl	8007304 <STO_CR_GetObserverGains>
          STO_CR_SetObserverGains(&STO_CR_M1, (int16_t)regdata16, hC2);
 800275a:	f9bd 2004 	ldrsh.w	r2, [sp, #4]
 800275e:	48a9      	ldr	r0, [pc, #676]	@ (8002a04 <RI_SetRegisterMotor1+0x3f8>)
 8002760:	b229      	sxth	r1, r5
 8002762:	f004 fdd7 	bl	8007314 <STO_CR_SetObserverGains>
  uint8_t retVal = MCP_CMD_OK;
 8002766:	2000      	movs	r0, #0
 8002768:	e7a4      	b.n	80026b4 <RI_SetRegisterMotor1+0xa8>
 800276a:	f5b0 6f05 	cmp.w	r0, #2128	@ 0x850
 800276e:	d0e8      	beq.n	8002742 <RI_SetRegisterMotor1+0x136>
          retVal = MCP_ERROR_UNKNOWN_REG;
 8002770:	f5b0 6f09 	cmp.w	r0, #2192	@ 0x890
 8002774:	bf0c      	ite	eq
 8002776:	2004      	moveq	r0, #4
 8002778:	2005      	movne	r0, #5
 800277a:	e79b      	b.n	80026b4 <RI_SetRegisterMotor1+0xa8>
 800277c:	f5b0 6ff2 	cmp.w	r0, #1936	@ 0x790
 8002780:	d0df      	beq.n	8002742 <RI_SetRegisterMotor1+0x136>
 8002782:	d962      	bls.n	800284a <RI_SetRegisterMotor1+0x23e>
 8002784:	f5b0 6ffa 	cmp.w	r0, #2000	@ 0x7d0
 8002788:	bf0c      	ite	eq
 800278a:	2004      	moveq	r0, #4
 800278c:	2005      	movne	r0, #5
 800278e:	e791      	b.n	80026b4 <RI_SetRegisterMotor1+0xa8>
 8002790:	f5b0 7f24 	cmp.w	r0, #656	@ 0x290
 8002794:	f000 8175 	beq.w	8002a82 <RI_SetRegisterMotor1+0x476>
 8002798:	f5b0 7f34 	cmp.w	r0, #720	@ 0x2d0
 800279c:	d17f      	bne.n	800289e <RI_SetRegisterMotor1+0x292>
          PID_SetKI(&PIDIdHandle_M1, (int16_t)regdata16);
 800279e:	489a      	ldr	r0, [pc, #616]	@ (8002a08 <RI_SetRegisterMotor1+0x3fc>)
 80027a0:	b229      	sxth	r1, r5
 80027a2:	f003 fae1 	bl	8005d68 <PID_SetKI>
          break;
 80027a6:	e7de      	b.n	8002766 <RI_SetRegisterMotor1+0x15a>
 80027a8:	f5b0 7fac 	cmp.w	r0, #344	@ 0x158
 80027ac:	f000 80f6 	beq.w	800299c <RI_SetRegisterMotor1+0x390>
 80027b0:	f5b0 7fcc 	cmp.w	r0, #408	@ 0x198
 80027b4:	bf0c      	ite	eq
 80027b6:	2004      	moveq	r0, #4
 80027b8:	2005      	movne	r0, #5
 80027ba:	e789      	b.n	80026d0 <RI_SetRegisterMotor1+0xc4>
 80027bc:	f5b0 7f88 	cmp.w	r0, #272	@ 0x110
 80027c0:	f000 8169 	beq.w	8002a96 <RI_SetRegisterMotor1+0x48a>
 80027c4:	d929      	bls.n	800281a <RI_SetRegisterMotor1+0x20e>
 80027c6:	f5b0 7fc8 	cmp.w	r0, #400	@ 0x190
 80027ca:	f000 8133 	beq.w	8002a34 <RI_SetRegisterMotor1+0x428>
 80027ce:	f5b0 7fe8 	cmp.w	r0, #464	@ 0x1d0
 80027d2:	d164      	bne.n	800289e <RI_SetRegisterMotor1+0x292>
          PID_SetKI(&PIDIqHandle_M1, (int16_t)regdata16);
 80027d4:	488d      	ldr	r0, [pc, #564]	@ (8002a0c <RI_SetRegisterMotor1+0x400>)
 80027d6:	b229      	sxth	r1, r5
 80027d8:	f003 fac6 	bl	8005d68 <PID_SetKI>
          break;
 80027dc:	e7c3      	b.n	8002766 <RI_SetRegisterMotor1+0x15a>
 80027de:	f241 5310 	movw	r3, #5392	@ 0x1510
 80027e2:	4298      	cmp	r0, r3
 80027e4:	f000 8161 	beq.w	8002aaa <RI_SetRegisterMotor1+0x49e>
 80027e8:	d937      	bls.n	800285a <RI_SetRegisterMotor1+0x24e>
 80027ea:	f241 53d0 	movw	r3, #5584	@ 0x15d0
 80027ee:	4298      	cmp	r0, r3
 80027f0:	f000 8156 	beq.w	8002aa0 <RI_SetRegisterMotor1+0x494>
 80027f4:	d91b      	bls.n	800282e <RI_SetRegisterMotor1+0x222>
 80027f6:	f241 6350 	movw	r3, #5712	@ 0x1650
 80027fa:	4298      	cmp	r0, r3
 80027fc:	f000 8115 	beq.w	8002a2a <RI_SetRegisterMotor1+0x41e>
 8002800:	f641 3358 	movw	r3, #7000	@ 0x1b58
 8002804:	4298      	cmp	r0, r3
 8002806:	d09c      	beq.n	8002742 <RI_SetRegisterMotor1+0x136>
 8002808:	f241 6310 	movw	r3, #5648	@ 0x1610
 800280c:	4298      	cmp	r0, r3
 800280e:	d146      	bne.n	800289e <RI_SetRegisterMotor1+0x292>
          PID_SetKIDivisorPOW2(&PIDIqHandle_M1, regdata16);
 8002810:	487e      	ldr	r0, [pc, #504]	@ (8002a0c <RI_SetRegisterMotor1+0x400>)
 8002812:	4629      	mov	r1, r5
 8002814:	f003 fac2 	bl	8005d9c <PID_SetKIDivisorPOW2>
          break;
 8002818:	e7a5      	b.n	8002766 <RI_SetRegisterMotor1+0x15a>
 800281a:	2890      	cmp	r0, #144	@ 0x90
 800281c:	f000 8100 	beq.w	8002a20 <RI_SetRegisterMotor1+0x414>
 8002820:	28d0      	cmp	r0, #208	@ 0xd0
 8002822:	d13c      	bne.n	800289e <RI_SetRegisterMotor1+0x292>
          PID_SetKI(&PIDSpeedHandle_M1, (int16_t)regdata16);
 8002824:	487a      	ldr	r0, [pc, #488]	@ (8002a10 <RI_SetRegisterMotor1+0x404>)
 8002826:	b229      	sxth	r1, r5
 8002828:	f003 fa9e 	bl	8005d68 <PID_SetKI>
          break;
 800282c:	e79b      	b.n	8002766 <RI_SetRegisterMotor1+0x15a>
 800282e:	f241 5350 	movw	r3, #5456	@ 0x1550
 8002832:	4298      	cmp	r0, r3
 8002834:	f000 8103 	beq.w	8002a3e <RI_SetRegisterMotor1+0x432>
 8002838:	f241 5390 	movw	r3, #5520	@ 0x1590
 800283c:	4298      	cmp	r0, r3
 800283e:	d12e      	bne.n	800289e <RI_SetRegisterMotor1+0x292>
          PID_SetKDDivisorPOW2(&PIDIdHandle_M1, regdata16);
 8002840:	4871      	ldr	r0, [pc, #452]	@ (8002a08 <RI_SetRegisterMotor1+0x3fc>)
 8002842:	4629      	mov	r1, r5
 8002844:	f003 fac6 	bl	8005dd4 <PID_SetKDDivisorPOW2>
          break;
 8002848:	e78d      	b.n	8002766 <RI_SetRegisterMotor1+0x15a>
 800284a:	f020 0040 	bic.w	r0, r0, #64	@ 0x40
          retVal = MCP_ERROR_UNKNOWN_REG;
 800284e:	f5b0 6fb2 	cmp.w	r0, #1424	@ 0x590
 8002852:	bf0c      	ite	eq
 8002854:	2004      	moveq	r0, #4
 8002856:	2005      	movne	r0, #5
 8002858:	e72c      	b.n	80026b4 <RI_SetRegisterMotor1+0xa8>
 800285a:	f241 4350 	movw	r3, #5200	@ 0x1450
 800285e:	4298      	cmp	r0, r3
 8002860:	f000 80c5 	beq.w	80029ee <RI_SetRegisterMotor1+0x3e2>
 8002864:	d90d      	bls.n	8002882 <RI_SetRegisterMotor1+0x276>
 8002866:	f241 4390 	movw	r3, #5264	@ 0x1490
 800286a:	4298      	cmp	r0, r3
 800286c:	f000 80c4 	beq.w	80029f8 <RI_SetRegisterMotor1+0x3ec>
 8002870:	f241 43d0 	movw	r3, #5328	@ 0x14d0
 8002874:	4298      	cmp	r0, r3
 8002876:	d112      	bne.n	800289e <RI_SetRegisterMotor1+0x292>
          PID_SetKDDivisorPOW2(&PIDSpeedHandle_M1, regdata16);
 8002878:	4865      	ldr	r0, [pc, #404]	@ (8002a10 <RI_SetRegisterMotor1+0x404>)
 800287a:	4629      	mov	r1, r5
 800287c:	f003 faaa 	bl	8005dd4 <PID_SetKDDivisorPOW2>
          break;
 8002880:	e771      	b.n	8002766 <RI_SetRegisterMotor1+0x15a>
 8002882:	f5b0 6f4d 	cmp.w	r0, #3280	@ 0xcd0
 8002886:	f43f af5c 	beq.w	8002742 <RI_SetRegisterMotor1+0x136>
 800288a:	d919      	bls.n	80028c0 <RI_SetRegisterMotor1+0x2b4>
 800288c:	f5b0 6f65 	cmp.w	r0, #3664	@ 0xe50
 8002890:	f43f af69 	beq.w	8002766 <RI_SetRegisterMotor1+0x15a>
 8002894:	d905      	bls.n	80028a2 <RI_SetRegisterMotor1+0x296>
 8002896:	f5b0 6f69 	cmp.w	r0, #3728	@ 0xe90
 800289a:	f43f af64 	beq.w	8002766 <RI_SetRegisterMotor1+0x15a>
          retVal = MCP_ERROR_UNKNOWN_REG;
 800289e:	2005      	movs	r0, #5
 80028a0:	e708      	b.n	80026b4 <RI_SetRegisterMotor1+0xa8>
 80028a2:	f5b0 6f59 	cmp.w	r0, #3472	@ 0xd90
 80028a6:	f43f af4c 	beq.w	8002742 <RI_SetRegisterMotor1+0x136>
 80028aa:	d917      	bls.n	80028dc <RI_SetRegisterMotor1+0x2d0>
 80028ac:	f5b0 6f5d 	cmp.w	r0, #3536	@ 0xdd0
 80028b0:	f43f af47 	beq.w	8002742 <RI_SetRegisterMotor1+0x136>
 80028b4:	f5b0 6f61 	cmp.w	r0, #3600	@ 0xe10
 80028b8:	bf0c      	ite	eq
 80028ba:	2004      	moveq	r0, #4
 80028bc:	2005      	movne	r0, #5
 80028be:	e6f9      	b.n	80026b4 <RI_SetRegisterMotor1+0xa8>
 80028c0:	f5b0 6f19 	cmp.w	r0, #2448	@ 0x990
 80028c4:	d112      	bne.n	80028ec <RI_SetRegisterMotor1+0x2e0>
          currComp = MCI_GetIqdref(pMCIN);
 80028c6:	4853      	ldr	r0, [pc, #332]	@ (8002a14 <RI_SetRegisterMotor1+0x408>)
 80028c8:	f7fe fd24 	bl	8001314 <MCI_GetIqdref>
 80028cc:	9001      	str	r0, [sp, #4]
          currComp.d = (int16_t)regdata16;
 80028ce:	f8ad 5006 	strh.w	r5, [sp, #6]
          MCI_SetCurrentReferences(pMCIN,currComp);
 80028d2:	9901      	ldr	r1, [sp, #4]
 80028d4:	484f      	ldr	r0, [pc, #316]	@ (8002a14 <RI_SetRegisterMotor1+0x408>)
 80028d6:	f7fe fc19 	bl	800110c <MCI_SetCurrentReferences>
          break;
 80028da:	e744      	b.n	8002766 <RI_SetRegisterMotor1+0x15a>
 80028dc:	f020 0040 	bic.w	r0, r0, #64	@ 0x40
          retVal = MCP_ERROR_UNKNOWN_REG;
 80028e0:	f5b0 6f51 	cmp.w	r0, #3344	@ 0xd10
 80028e4:	bf0c      	ite	eq
 80028e6:	2004      	moveq	r0, #4
 80028e8:	2005      	movne	r0, #5
 80028ea:	e6e3      	b.n	80026b4 <RI_SetRegisterMotor1+0xa8>
 80028ec:	d3d7      	bcc.n	800289e <RI_SetRegisterMotor1+0x292>
 80028ee:	f5b0 6f29 	cmp.w	r0, #2704	@ 0xa90
 80028f2:	f43f af26 	beq.w	8002742 <RI_SetRegisterMotor1+0x136>
 80028f6:	d909      	bls.n	800290c <RI_SetRegisterMotor1+0x300>
 80028f8:	f5b0 6f2d 	cmp.w	r0, #2768	@ 0xad0
 80028fc:	f43f af21 	beq.w	8002742 <RI_SetRegisterMotor1+0x136>
 8002900:	f5b0 6f31 	cmp.w	r0, #2832	@ 0xb10
 8002904:	bf0c      	ite	eq
 8002906:	2004      	moveq	r0, #4
 8002908:	2005      	movne	r0, #5
 800290a:	e6d3      	b.n	80026b4 <RI_SetRegisterMotor1+0xa8>
 800290c:	f020 0340 	bic.w	r3, r0, #64	@ 0x40
 8002910:	f5b3 6f21 	cmp.w	r3, #2576	@ 0xa10
 8002914:	f43f af15 	beq.w	8002742 <RI_SetRegisterMotor1+0x136>
 8002918:	f5b0 6f1d 	cmp.w	r0, #2512	@ 0x9d0
 800291c:	bf0c      	ite	eq
 800291e:	2004      	moveq	r0, #4
 8002920:	2005      	movne	r0, #5
 8002922:	e6c7      	b.n	80026b4 <RI_SetRegisterMotor1+0xa8>
 8002924:	f020 0040 	bic.w	r0, r0, #64	@ 0x40
 8002928:	2828      	cmp	r0, #40	@ 0x28
 800292a:	f43f af08 	beq.w	800273e <RI_SetRegisterMotor1+0x132>
 800292e:	2005      	movs	r0, #5
}
 8002930:	b003      	add	sp, #12
 8002932:	bd30      	pop	{r4, r5, pc}
 8002934:	f5b0 7f5a 	cmp.w	r0, #872	@ 0x368
 8002938:	d032      	beq.n	80029a0 <RI_SetRegisterMotor1+0x394>
 800293a:	f5b0 6fa5 	cmp.w	r0, #1320	@ 0x528
 800293e:	d1f6      	bne.n	800292e <RI_SetRegisterMotor1+0x322>
            retVal =  MCPA_cfgLog (&MCPA_UART_A, rawData);
 8002940:	4835      	ldr	r0, [pc, #212]	@ (8002a18 <RI_SetRegisterMotor1+0x40c>)
 8002942:	f10e 0102 	add.w	r1, lr, #2
}
 8002946:	b003      	add	sp, #12
 8002948:	e8bd 4030 	ldmia.w	sp!, {r4, r5, lr}
            retVal =  MCPA_cfgLog (&MCPA_UART_A, rawData);
 800294c:	f003 b966 	b.w	8005c1c <MCPA_cfgLog>
    *tempdestString = (int8_t)0;
 8002950:	2300      	movs	r3, #0
 8002952:	f88e 3000 	strb.w	r3, [lr]
 8002956:	e6f2      	b.n	800273e <RI_SetRegisterMotor1+0x132>
 8002958:	2005      	movs	r0, #5
      *size = 1;
 800295a:	2301      	movs	r3, #1
 800295c:	8023      	strh	r3, [r4, #0]
}
 800295e:	b003      	add	sp, #12
 8002960:	bd30      	pop	{r4, r5, pc}
        *size = 0;
 8002962:	2300      	movs	r3, #0
 8002964:	8023      	strh	r3, [r4, #0]
        retVal = MCP_ERROR_BAD_RAW_FORMAT; /* This error stop the parsing of the CMD buffer */
 8002966:	200a      	movs	r0, #10
 8002968:	e66f      	b.n	800264a <RI_SetRegisterMotor1+0x3e>
            retVal = MCP_ERROR_RO_REG;
 800296a:	2004      	movs	r0, #4
 800296c:	e7f5      	b.n	800295a <RI_SetRegisterMotor1+0x34e>
          MCI_ExecSpeedRamp(pMCIN,((((int16_t)regdata32) * ((int16_t)SPEED_UNIT)) / (int16_t)U_RPM), 0);
 800296e:	f9b2 3000 	ldrsh.w	r3, [r2]
 8002972:	492a      	ldr	r1, [pc, #168]	@ (8002a1c <RI_SetRegisterMotor1+0x410>)
 8002974:	4827      	ldr	r0, [pc, #156]	@ (8002a14 <RI_SetRegisterMotor1+0x408>)
 8002976:	fb81 2103 	smull	r2, r1, r1, r3
 800297a:	eba1 71e3 	sub.w	r1, r1, r3, asr #31
 800297e:	2200      	movs	r2, #0
 8002980:	b209      	sxth	r1, r1
 8002982:	f7fe fbaf 	bl	80010e4 <MCI_ExecSpeedRamp>
  uint8_t retVal = MCP_CMD_OK;
 8002986:	2000      	movs	r0, #0
          break;
 8002988:	e6a2      	b.n	80026d0 <RI_SetRegisterMotor1+0xc4>
            MCI_ExecTorqueRamp(pMCIN, MCI_GetTeref(pMCIN), 0);
 800298a:	4822      	ldr	r0, [pc, #136]	@ (8002a14 <RI_SetRegisterMotor1+0x408>)
 800298c:	f7fe fcec 	bl	8001368 <MCI_GetTeref>
 8002990:	2200      	movs	r2, #0
 8002992:	4601      	mov	r1, r0
 8002994:	481f      	ldr	r0, [pc, #124]	@ (8002a14 <RI_SetRegisterMotor1+0x408>)
 8002996:	f7fe fbaf 	bl	80010f8 <MCI_ExecTorqueRamp>
          if ((uint8_t)MCM_SPEED_MODE == regdata8)
 800299a:	e665      	b.n	8002668 <RI_SetRegisterMotor1+0x5c>
          retVal = MCP_ERROR_RO_REG;
 800299c:	2004      	movs	r0, #4
 800299e:	e697      	b.n	80026d0 <RI_SetRegisterMotor1+0xc4>
            currComp.q = *((int16_t *) rawData); //cstat !MISRAC2012-Rule-11.3
 80029a0:	f8de 1002 	ldr.w	r1, [lr, #2]
            MCI_SetCurrentReferences(pMCIN, currComp);
 80029a4:	481b      	ldr	r0, [pc, #108]	@ (8002a14 <RI_SetRegisterMotor1+0x408>)
            currComp.q = *((int16_t *) rawData); //cstat !MISRAC2012-Rule-11.3
 80029a6:	9101      	str	r1, [sp, #4]
            MCI_SetCurrentReferences(pMCIN, currComp);
 80029a8:	f7fe fbb0 	bl	800110c <MCI_SetCurrentReferences>
  uint8_t retVal = MCP_CMD_OK;
 80029ac:	2000      	movs	r0, #0
 80029ae:	e64c      	b.n	800264a <RI_SetRegisterMotor1+0x3e>
            MCI_ExecSpeedRamp(pMCIN, (int16_t)((rpm * SPEED_UNIT) / U_RPM), duration);
 80029b0:	f8de 1002 	ldr.w	r1, [lr, #2]
 80029b4:	4b19      	ldr	r3, [pc, #100]	@ (8002a1c <RI_SetRegisterMotor1+0x410>)
 80029b6:	f8be 2006 	ldrh.w	r2, [lr, #6]
 80029ba:	fb83 0301 	smull	r0, r3, r3, r1
 80029be:	eba3 71e1 	sub.w	r1, r3, r1, asr #31
 80029c2:	4814      	ldr	r0, [pc, #80]	@ (8002a14 <RI_SetRegisterMotor1+0x408>)
 80029c4:	b209      	sxth	r1, r1
 80029c6:	f7fe fb8d 	bl	80010e4 <MCI_ExecSpeedRamp>
            break;
 80029ca:	e7ef      	b.n	80029ac <RI_SetRegisterMotor1+0x3a0>
            MCI_ExecTorqueRamp(pMCIN, (int16_t)torque, duration);
 80029cc:	f8be 2006 	ldrh.w	r2, [lr, #6]
 80029d0:	f9be 1002 	ldrsh.w	r1, [lr, #2]
 80029d4:	480f      	ldr	r0, [pc, #60]	@ (8002a14 <RI_SetRegisterMotor1+0x408>)
 80029d6:	f7fe fb8f 	bl	80010f8 <MCI_ExecTorqueRamp>
            break;
 80029da:	e7e7      	b.n	80029ac <RI_SetRegisterMotor1+0x3a0>
            MCI_ExecSpeedRamp(pMCIN, MCI_GetMecSpeedRefUnit(pMCIN), 0);
 80029dc:	480d      	ldr	r0, [pc, #52]	@ (8002a14 <RI_SetRegisterMotor1+0x408>)
 80029de:	f7fe fc6b 	bl	80012b8 <MCI_GetMecSpeedRefUnit>
 80029e2:	2200      	movs	r2, #0
 80029e4:	4601      	mov	r1, r0
 80029e6:	480b      	ldr	r0, [pc, #44]	@ (8002a14 <RI_SetRegisterMotor1+0x408>)
 80029e8:	f7fe fb7c 	bl	80010e4 <MCI_ExecSpeedRamp>
 80029ec:	e63c      	b.n	8002668 <RI_SetRegisterMotor1+0x5c>
          PID_SetKPDivisorPOW2(&PIDSpeedHandle_M1, regdata16);
 80029ee:	4808      	ldr	r0, [pc, #32]	@ (8002a10 <RI_SetRegisterMotor1+0x404>)
 80029f0:	4629      	mov	r1, r5
 80029f2:	f003 f9c7 	bl	8005d84 <PID_SetKPDivisorPOW2>
          break;
 80029f6:	e6b6      	b.n	8002766 <RI_SetRegisterMotor1+0x15a>
          PID_SetKIDivisorPOW2(&PIDSpeedHandle_M1, regdata16);
 80029f8:	4805      	ldr	r0, [pc, #20]	@ (8002a10 <RI_SetRegisterMotor1+0x404>)
 80029fa:	4629      	mov	r1, r5
 80029fc:	f003 f9ce 	bl	8005d9c <PID_SetKIDivisorPOW2>
          break;
 8002a00:	e6b1      	b.n	8002766 <RI_SetRegisterMotor1+0x15a>
 8002a02:	bf00      	nop
 8002a04:	20000110 	.word	0x20000110
 8002a08:	200003a4 	.word	0x200003a4
 8002a0c:	200003d0 	.word	0x200003d0
 8002a10:	200003fc 	.word	0x200003fc
 8002a14:	20000728 	.word	0x20000728
 8002a18:	20000458 	.word	0x20000458
 8002a1c:	2aaaaaab 	.word	0x2aaaaaab
          PID_SetKP(&PIDSpeedHandle_M1, (int16_t)regdata16);
 8002a20:	4824      	ldr	r0, [pc, #144]	@ (8002ab4 <RI_SetRegisterMotor1+0x4a8>)
 8002a22:	b229      	sxth	r1, r5
 8002a24:	f003 f99e 	bl	8005d64 <PID_SetKP>
          break;
 8002a28:	e69d      	b.n	8002766 <RI_SetRegisterMotor1+0x15a>
          PID_SetKDDivisorPOW2(&PIDIqHandle_M1, regdata16);
 8002a2a:	4823      	ldr	r0, [pc, #140]	@ (8002ab8 <RI_SetRegisterMotor1+0x4ac>)
 8002a2c:	4629      	mov	r1, r5
 8002a2e:	f003 f9d1 	bl	8005dd4 <PID_SetKDDivisorPOW2>
          break;
 8002a32:	e698      	b.n	8002766 <RI_SetRegisterMotor1+0x15a>
          PID_SetKP(&PIDIqHandle_M1, (int16_t)regdata16);
 8002a34:	4820      	ldr	r0, [pc, #128]	@ (8002ab8 <RI_SetRegisterMotor1+0x4ac>)
 8002a36:	b229      	sxth	r1, r5
 8002a38:	f003 f994 	bl	8005d64 <PID_SetKP>
          break;
 8002a3c:	e693      	b.n	8002766 <RI_SetRegisterMotor1+0x15a>
          PID_SetKIDivisorPOW2(&PIDIdHandle_M1, regdata16);
 8002a3e:	481f      	ldr	r0, [pc, #124]	@ (8002abc <RI_SetRegisterMotor1+0x4b0>)
 8002a40:	4629      	mov	r1, r5
 8002a42:	f003 f9ab 	bl	8005d9c <PID_SetKIDivisorPOW2>
          break;
 8002a46:	e68e      	b.n	8002766 <RI_SetRegisterMotor1+0x15a>
          PID_SetKD(&PIDIqHandle_M1, (int16_t)regdata16);
 8002a48:	481b      	ldr	r0, [pc, #108]	@ (8002ab8 <RI_SetRegisterMotor1+0x4ac>)
 8002a4a:	b229      	sxth	r1, r5
 8002a4c:	f003 f9ba 	bl	8005dc4 <PID_SetKD>
          break;
 8002a50:	e689      	b.n	8002766 <RI_SetRegisterMotor1+0x15a>
          currComp = MCI_GetIqdref(pMCIN);
 8002a52:	481b      	ldr	r0, [pc, #108]	@ (8002ac0 <RI_SetRegisterMotor1+0x4b4>)
 8002a54:	f7fe fc5e 	bl	8001314 <MCI_GetIqdref>
 8002a58:	9001      	str	r0, [sp, #4]
          currComp.q = (int16_t)regdata16;
 8002a5a:	f8ad 5004 	strh.w	r5, [sp, #4]
          MCI_SetCurrentReferences(pMCIN,currComp);
 8002a5e:	9901      	ldr	r1, [sp, #4]
 8002a60:	4817      	ldr	r0, [pc, #92]	@ (8002ac0 <RI_SetRegisterMotor1+0x4b4>)
 8002a62:	f7fe fb53 	bl	800110c <MCI_SetCurrentReferences>
          break;
 8002a66:	e67e      	b.n	8002766 <RI_SetRegisterMotor1+0x15a>
          STO_CR_GetObserverGains(&STO_CR_M1, &hC1, &hC2);
 8002a68:	aa01      	add	r2, sp, #4
 8002a6a:	f10d 0102 	add.w	r1, sp, #2
 8002a6e:	4815      	ldr	r0, [pc, #84]	@ (8002ac4 <RI_SetRegisterMotor1+0x4b8>)
 8002a70:	f004 fc48 	bl	8007304 <STO_CR_GetObserverGains>
          STO_CR_SetObserverGains(&STO_CR_M1, hC1, (int16_t)regdata16);
 8002a74:	f9bd 1002 	ldrsh.w	r1, [sp, #2]
 8002a78:	4812      	ldr	r0, [pc, #72]	@ (8002ac4 <RI_SetRegisterMotor1+0x4b8>)
 8002a7a:	b22a      	sxth	r2, r5
 8002a7c:	f004 fc4a 	bl	8007314 <STO_CR_SetObserverGains>
          break;
 8002a80:	e671      	b.n	8002766 <RI_SetRegisterMotor1+0x15a>
          PID_SetKP(&PIDIdHandle_M1, (int16_t)regdata16);
 8002a82:	480e      	ldr	r0, [pc, #56]	@ (8002abc <RI_SetRegisterMotor1+0x4b0>)
 8002a84:	b229      	sxth	r1, r5
 8002a86:	f003 f96d 	bl	8005d64 <PID_SetKP>
          break;
 8002a8a:	e66c      	b.n	8002766 <RI_SetRegisterMotor1+0x15a>
          PID_SetKD(&PIDIdHandle_M1, (int16_t)regdata16);
 8002a8c:	480b      	ldr	r0, [pc, #44]	@ (8002abc <RI_SetRegisterMotor1+0x4b0>)
 8002a8e:	b229      	sxth	r1, r5
 8002a90:	f003 f998 	bl	8005dc4 <PID_SetKD>
          break;
 8002a94:	e667      	b.n	8002766 <RI_SetRegisterMotor1+0x15a>
          PID_SetKD(&PIDSpeedHandle_M1, (int16_t)regdata16);
 8002a96:	4807      	ldr	r0, [pc, #28]	@ (8002ab4 <RI_SetRegisterMotor1+0x4a8>)
 8002a98:	b229      	sxth	r1, r5
 8002a9a:	f003 f993 	bl	8005dc4 <PID_SetKD>
          break;
 8002a9e:	e662      	b.n	8002766 <RI_SetRegisterMotor1+0x15a>
          PID_SetKPDivisorPOW2(&PIDIqHandle_M1, regdata16);
 8002aa0:	4805      	ldr	r0, [pc, #20]	@ (8002ab8 <RI_SetRegisterMotor1+0x4ac>)
 8002aa2:	4629      	mov	r1, r5
 8002aa4:	f003 f96e 	bl	8005d84 <PID_SetKPDivisorPOW2>
          break;
 8002aa8:	e65d      	b.n	8002766 <RI_SetRegisterMotor1+0x15a>
          PID_SetKPDivisorPOW2(&PIDIdHandle_M1, regdata16);
 8002aaa:	4804      	ldr	r0, [pc, #16]	@ (8002abc <RI_SetRegisterMotor1+0x4b0>)
 8002aac:	4629      	mov	r1, r5
 8002aae:	f003 f969 	bl	8005d84 <PID_SetKPDivisorPOW2>
          break;
 8002ab2:	e658      	b.n	8002766 <RI_SetRegisterMotor1+0x15a>
 8002ab4:	200003fc 	.word	0x200003fc
 8002ab8:	200003d0 	.word	0x200003d0
 8002abc:	200003a4 	.word	0x200003a4
 8002ac0:	20000728 	.word	0x20000728
 8002ac4:	20000110 	.word	0x20000110

08002ac8 <RI_GetRegisterGlobal>:
uint8_t RI_GetRegisterGlobal(uint16_t regID,uint8_t typeID,uint8_t * data,uint16_t *size,int16_t freeSpace){
 8002ac8:	b510      	push	{r4, lr}
    switch (typeID)
 8002aca:	f1a1 0c08 	sub.w	ip, r1, #8
uint8_t RI_GetRegisterGlobal(uint16_t regID,uint8_t typeID,uint8_t * data,uint16_t *size,int16_t freeSpace){
 8002ace:	f9bd e008 	ldrsh.w	lr, [sp, #8]
    switch (typeID)
 8002ad2:	f1bc 0f20 	cmp.w	ip, #32
 8002ad6:	d812      	bhi.n	8002afe <RI_GetRegisterGlobal+0x36>
 8002ad8:	e8df f00c 	tbb	[pc, ip]
 8002adc:	1111111b 	.word	0x1111111b
 8002ae0:	11111111 	.word	0x11111111
 8002ae4:	11111127 	.word	0x11111127
 8002ae8:	11111111 	.word	0x11111111
 8002aec:	11111122 	.word	0x11111122
 8002af0:	11111111 	.word	0x11111111
 8002af4:	11111135 	.word	0x11111135
 8002af8:	11111111 	.word	0x11111111
 8002afc:	13          	.byte	0x13
 8002afd:	00          	.byte	0x00
 8002afe:	2007      	movs	r0, #7
}
 8002b00:	bd10      	pop	{r4, pc}
        switch (regID)
 8002b02:	2828      	cmp	r0, #40	@ 0x28
 8002b04:	d044      	beq.n	8002b90 <RI_GetRegisterGlobal+0xc8>
        *size = (*rawSize) + 2U;
 8002b06:	8812      	ldrh	r2, [r2, #0]
 8002b08:	3202      	adds	r2, #2
            retVal = MCP_ERROR_UNKNOWN_REG;
 8002b0a:	2005      	movs	r0, #5
        *size = (*rawSize) + 2U;
 8002b0c:	b292      	uxth	r2, r2
 8002b0e:	801a      	strh	r2, [r3, #0]
}
 8002b10:	bd10      	pop	{r4, pc}
        if (freeSpace > 0)
 8002b12:	f1be 0f00 	cmp.w	lr, #0
 8002b16:	dd39      	ble.n	8002b8c <RI_GetRegisterGlobal+0xc4>
 8002b18:	2201      	movs	r2, #1
            *size= 0 ; /* */
 8002b1a:	801a      	strh	r2, [r3, #0]
              retVal = MCP_ERROR_UNKNOWN_REG;
 8002b1c:	2005      	movs	r0, #5
}
 8002b1e:	bd10      	pop	{r4, pc}
        if (freeSpace >= 4)
 8002b20:	f1be 0f03 	cmp.w	lr, #3
 8002b24:	dd2a      	ble.n	8002b7c <RI_GetRegisterGlobal+0xb4>
 8002b26:	2204      	movs	r2, #4
 8002b28:	e7f7      	b.n	8002b1a <RI_GetRegisterGlobal+0x52>
        if (freeSpace >= 2)
 8002b2a:	f1be 0f01 	cmp.w	lr, #1
 8002b2e:	dd25      	ble.n	8002b7c <RI_GetRegisterGlobal+0xb4>
          switch (regID)
 8002b30:	f5b0 6f65 	cmp.w	r0, #3664	@ 0xe50
 8002b34:	d05a      	beq.n	8002bec <RI_GetRegisterGlobal+0x124>
 8002b36:	f5b0 6f69 	cmp.w	r0, #3728	@ 0xe90
 8002b3a:	bf0c      	ite	eq
 8002b3c:	2000      	moveq	r0, #0
 8002b3e:	2005      	movne	r0, #5
          *size = 2;
 8002b40:	2202      	movs	r2, #2
 8002b42:	801a      	strh	r2, [r3, #0]
}
 8002b44:	bd10      	pop	{r4, pc}
        switch (regID)
 8002b46:	2820      	cmp	r0, #32
 8002b48:	d02c      	beq.n	8002ba4 <RI_GetRegisterGlobal+0xdc>
 8002b4a:	2860      	cmp	r0, #96	@ 0x60
 8002b4c:	d118      	bne.n	8002b80 <RI_GetRegisterGlobal+0xb8>
  while ((*tempsrcString != (char_t)0) && (*size < (uint16_t)maxSize))
 8002b4e:	4c28      	ldr	r4, [pc, #160]	@ (8002bf0 <RI_GetRegisterGlobal+0x128>)
 8002b50:	f994 0000 	ldrsb.w	r0, [r4]
  *size= 1U ; /* /0 is the min String size */
 8002b54:	2101      	movs	r1, #1
 8002b56:	8019      	strh	r1, [r3, #0]
  while ((*tempsrcString != (char_t)0) && (*size < (uint16_t)maxSize))
 8002b58:	b1a0      	cbz	r0, 8002b84 <RI_GetRegisterGlobal+0xbc>
 8002b5a:	fa1f fe8e 	uxth.w	lr, lr
  const char_t *tempsrcString = srcString;
 8002b5e:	46a4      	mov	ip, r4
 8002b60:	e008      	b.n	8002b74 <RI_GetRegisterGlobal+0xac>
    *tempdestString = *tempsrcString;
 8002b62:	f802 0b01 	strb.w	r0, [r2], #1
    *size = *size + 1U;
 8002b66:	8819      	ldrh	r1, [r3, #0]
 8002b68:	3101      	adds	r1, #1
 8002b6a:	b289      	uxth	r1, r1
 8002b6c:	8019      	strh	r1, [r3, #0]
  while ((*tempsrcString != (char_t)0) && (*size < (uint16_t)maxSize))
 8002b6e:	f91c 0f01 	ldrsb.w	r0, [ip, #1]!
 8002b72:	b138      	cbz	r0, 8002b84 <RI_GetRegisterGlobal+0xbc>
 8002b74:	4571      	cmp	r1, lr
 8002b76:	d3f4      	bcc.n	8002b62 <RI_GetRegisterGlobal+0x9a>
    retVal = MCP_ERROR_STRING_FORMAT;
 8002b78:	2006      	movs	r0, #6
}
 8002b7a:	bd10      	pop	{r4, pc}
          retVal = MCP_ERROR_NO_TXSYNC_SPACE;
 8002b7c:	2008      	movs	r0, #8
}
 8002b7e:	bd10      	pop	{r4, pc}
 8002b80:	2200      	movs	r2, #0
 8002b82:	e7ca      	b.n	8002b1a <RI_GetRegisterGlobal+0x52>
    *tempdestString = (int8_t)0;
 8002b84:	2300      	movs	r3, #0
 8002b86:	7013      	strb	r3, [r2, #0]
  uint8_t retVal = MCP_CMD_OK;
 8002b88:	2000      	movs	r0, #0
}
 8002b8a:	bd10      	pop	{r4, pc}
          retVal = MCP_ERROR_NO_TXSYNC_SPACE;
 8002b8c:	4608      	mov	r0, r1
}
 8002b8e:	bd10      	pop	{r4, pc}
            if (((*rawSize) + 2U) > (uint16_t)freeSpace)
 8002b90:	fa1f fe8e 	uxth.w	lr, lr
            *rawSize = (uint16_t)sizeof(GlobalConfig_reg_t);
 8002b94:	210a      	movs	r1, #10
            if (((*rawSize) + 2U) > (uint16_t)freeSpace)
 8002b96:	f1be 0f0b 	cmp.w	lr, #11
            *rawSize = (uint16_t)sizeof(GlobalConfig_reg_t);
 8002b9a:	8011      	strh	r1, [r2, #0]
            if (((*rawSize) + 2U) > (uint16_t)freeSpace)
 8002b9c:	d81a      	bhi.n	8002bd4 <RI_GetRegisterGlobal+0x10c>
 8002b9e:	220c      	movs	r2, #12
              retVal = MCP_ERROR_NO_TXSYNC_SPACE;
 8002ba0:	2008      	movs	r0, #8
 8002ba2:	e7b4      	b.n	8002b0e <RI_GetRegisterGlobal+0x46>
  while ((*tempsrcString != (char_t)0) && (*size < (uint16_t)maxSize))
 8002ba4:	4c13      	ldr	r4, [pc, #76]	@ (8002bf4 <RI_GetRegisterGlobal+0x12c>)
 8002ba6:	f994 0000 	ldrsb.w	r0, [r4]
  *size= 1U ; /* /0 is the min String size */
 8002baa:	2101      	movs	r1, #1
 8002bac:	8019      	strh	r1, [r3, #0]
  while ((*tempsrcString != (char_t)0) && (*size < (uint16_t)maxSize))
 8002bae:	2800      	cmp	r0, #0
 8002bb0:	d0e8      	beq.n	8002b84 <RI_GetRegisterGlobal+0xbc>
 8002bb2:	fa1f fe8e 	uxth.w	lr, lr
  const char_t *tempsrcString = srcString;
 8002bb6:	46a4      	mov	ip, r4
 8002bb8:	e009      	b.n	8002bce <RI_GetRegisterGlobal+0x106>
    *tempdestString = *tempsrcString;
 8002bba:	f802 0b01 	strb.w	r0, [r2], #1
    *size = *size + 1U;
 8002bbe:	8819      	ldrh	r1, [r3, #0]
 8002bc0:	3101      	adds	r1, #1
 8002bc2:	b289      	uxth	r1, r1
 8002bc4:	8019      	strh	r1, [r3, #0]
  while ((*tempsrcString != (char_t)0) && (*size < (uint16_t)maxSize))
 8002bc6:	f91c 0f01 	ldrsb.w	r0, [ip, #1]!
 8002bca:	2800      	cmp	r0, #0
 8002bcc:	d0da      	beq.n	8002b84 <RI_GetRegisterGlobal+0xbc>
 8002bce:	458e      	cmp	lr, r1
 8002bd0:	d8f3      	bhi.n	8002bba <RI_GetRegisterGlobal+0xf2>
 8002bd2:	e7d1      	b.n	8002b78 <RI_GetRegisterGlobal+0xb0>
              (void)memcpy(rawData, &globalConfig_reg, sizeof(GlobalConfig_reg_t));
 8002bd4:	4908      	ldr	r1, [pc, #32]	@ (8002bf8 <RI_GetRegisterGlobal+0x130>)
 8002bd6:	6848      	ldr	r0, [r1, #4]
 8002bd8:	680c      	ldr	r4, [r1, #0]
 8002bda:	8909      	ldrh	r1, [r1, #8]
 8002bdc:	f8c2 0006 	str.w	r0, [r2, #6]
 8002be0:	f8c2 4002 	str.w	r4, [r2, #2]
 8002be4:	8151      	strh	r1, [r2, #10]
    uint8_t retVal = MCP_CMD_OK;
 8002be6:	2000      	movs	r0, #0
              (void)memcpy(rawData, &globalConfig_reg, sizeof(GlobalConfig_reg_t));
 8002be8:	220c      	movs	r2, #12
 8002bea:	e790      	b.n	8002b0e <RI_GetRegisterGlobal+0x46>
    uint8_t retVal = MCP_CMD_OK;
 8002bec:	2000      	movs	r0, #0
 8002bee:	e7a7      	b.n	8002b40 <RI_GetRegisterGlobal+0x78>
 8002bf0:	08007680 	.word	0x08007680
 8002bf4:	08007658 	.word	0x08007658
 8002bf8:	0800764c 	.word	0x0800764c

08002bfc <RI_GetRegisterMotor1>:
  uint8_t RI_GetRegisterMotor1(uint16_t regID,uint8_t typeID,uint8_t * data,uint16_t *size,int16_t freeSpace) {
 8002bfc:	b530      	push	{r4, r5, lr}
 8002bfe:	b095      	sub	sp, #84	@ 0x54
 8002c00:	461d      	mov	r5, r3
    switch (typeID)
 8002c02:	f1a1 0308 	sub.w	r3, r1, #8
  uint8_t RI_GetRegisterMotor1(uint16_t regID,uint8_t typeID,uint8_t * data,uint16_t *size,int16_t freeSpace) {
 8002c06:	f9bd c060 	ldrsh.w	ip, [sp, #96]	@ 0x60
 8002c0a:	4614      	mov	r4, r2
    switch (typeID)
 8002c0c:	2b20      	cmp	r3, #32
 8002c0e:	d812      	bhi.n	8002c36 <RI_GetRegisterMotor1+0x3a>
 8002c10:	e8df f003 	tbb	[pc, r3]
 8002c14:	1111112d 	.word	0x1111112d
 8002c18:	11111111 	.word	0x11111111
 8002c1c:	11111140 	.word	0x11111140
 8002c20:	11111111 	.word	0x11111111
 8002c24:	11111165 	.word	0x11111165
 8002c28:	11111111 	.word	0x11111111
 8002c2c:	11111181 	.word	0x11111181
 8002c30:	11111111 	.word	0x11111111
 8002c34:	14          	.byte	0x14
 8002c35:	00          	.byte	0x00
 8002c36:	2007      	movs	r0, #7
  }
 8002c38:	b015      	add	sp, #84	@ 0x54
 8002c3a:	bd30      	pop	{r4, r5, pc}
        rawData++;
 8002c3c:	f5b0 7f94 	cmp.w	r0, #296	@ 0x128
 8002c40:	f104 0302 	add.w	r3, r4, #2
        switch (regID)
 8002c44:	f000 828f 	beq.w	8003166 <RI_GetRegisterMotor1+0x56a>
 8002c48:	d87d      	bhi.n	8002d46 <RI_GetRegisterMotor1+0x14a>
 8002c4a:	28a8      	cmp	r0, #168	@ 0xa8
 8002c4c:	f000 8281 	beq.w	8003152 <RI_GetRegisterMotor1+0x556>
 8002c50:	28e8      	cmp	r0, #232	@ 0xe8
 8002c52:	d16a      	bne.n	8002d2a <RI_GetRegisterMotor1+0x12e>
            if (((*rawSize) + 2U) > (uint16_t)freeSpace)
 8002c54:	fa1f fc8c 	uxth.w	ip, ip
            *rawSize = (uint16_t)sizeof(FOCFwConfig_reg_t);
 8002c58:	220e      	movs	r2, #14
            if (((*rawSize) + 2U) > (uint16_t)freeSpace)
 8002c5a:	f1bc 0f0f 	cmp.w	ip, #15
            *rawSize = (uint16_t)sizeof(FOCFwConfig_reg_t);
 8002c5e:	8022      	strh	r2, [r4, #0]
            if (((*rawSize) + 2U) > (uint16_t)freeSpace)
 8002c60:	f200 8235 	bhi.w	80030ce <RI_GetRegisterMotor1+0x4d2>
 8002c64:	2310      	movs	r3, #16
              retVal = MCP_ERROR_NO_TXSYNC_SPACE;
 8002c66:	2008      	movs	r0, #8
        *size = (*rawSize) + 2U;
 8002c68:	802b      	strh	r3, [r5, #0]
  }
 8002c6a:	b015      	add	sp, #84	@ 0x54
 8002c6c:	bd30      	pop	{r4, r5, pc}
        if (freeSpace > 0)
 8002c6e:	f1bc 0f00 	cmp.w	ip, #0
 8002c72:	f340 8255 	ble.w	8003120 <RI_GetRegisterMotor1+0x524>
          switch (regID)
 8002c76:	2848      	cmp	r0, #72	@ 0x48
 8002c78:	f000 8254 	beq.w	8003124 <RI_GetRegisterMotor1+0x528>
 8002c7c:	2888      	cmp	r0, #136	@ 0x88
 8002c7e:	f040 81ef 	bne.w	8003060 <RI_GetRegisterMotor1+0x464>
              *data = (uint8_t)MCI_GetControlMode(pMCIN);
 8002c82:	48ac      	ldr	r0, [pc, #688]	@ (8002f34 <RI_GetRegisterMotor1+0x338>)
 8002c84:	f7fe fafe 	bl	8001284 <MCI_GetControlMode>
 8002c88:	7020      	strb	r0, [r4, #0]
    uint8_t retVal = MCP_CMD_OK;
 8002c8a:	2000      	movs	r0, #0
          *size = 1;
 8002c8c:	2301      	movs	r3, #1
 8002c8e:	802b      	strh	r3, [r5, #0]
  }
 8002c90:	b015      	add	sp, #84	@ 0x54
 8002c92:	bd30      	pop	{r4, r5, pc}
        if (freeSpace >= 2)
 8002c94:	f1bc 0f01 	cmp.w	ip, #1
 8002c98:	f340 81df 	ble.w	800305a <RI_GetRegisterMotor1+0x45e>
          switch (regID)
 8002c9c:	f5b0 6f1d 	cmp.w	r0, #2512	@ 0x9d0
 8002ca0:	f000 82d9 	beq.w	8003256 <RI_GetRegisterMotor1+0x65a>
 8002ca4:	f200 8095 	bhi.w	8002dd2 <RI_GetRegisterMotor1+0x1d6>
 8002ca8:	f5b0 6f82 	cmp.w	r0, #1040	@ 0x410
 8002cac:	f000 82ca 	beq.w	8003244 <RI_GetRegisterMotor1+0x648>
 8002cb0:	f240 80ac 	bls.w	8002e0c <RI_GetRegisterMotor1+0x210>
 8002cb4:	f5b0 6f09 	cmp.w	r0, #2192	@ 0x890
 8002cb8:	f000 82a7 	beq.w	800320a <RI_GetRegisterMotor1+0x60e>
 8002cbc:	d97a      	bls.n	8002db4 <RI_GetRegisterMotor1+0x1b8>
 8002cbe:	f5b0 6f15 	cmp.w	r0, #2384	@ 0x950
 8002cc2:	f000 829d 	beq.w	8003200 <RI_GetRegisterMotor1+0x604>
 8002cc6:	d96d      	bls.n	8002da4 <RI_GetRegisterMotor1+0x1a8>
 8002cc8:	f5b0 6f19 	cmp.w	r0, #2448	@ 0x990
 8002ccc:	f040 8230 	bne.w	8003130 <RI_GetRegisterMotor1+0x534>
              *regdata16 = MCI_GetIqdref(pMCIN).d;
 8002cd0:	4898      	ldr	r0, [pc, #608]	@ (8002f34 <RI_GetRegisterMotor1+0x338>)
 8002cd2:	f7fe fb1f 	bl	8001314 <MCI_GetIqdref>
 8002cd6:	f3c0 430f 	ubfx	r3, r0, #16, #16
 8002cda:	8023      	strh	r3, [r4, #0]
              break;
 8002cdc:	e197      	b.n	800300e <RI_GetRegisterMotor1+0x412>
        if (freeSpace >= 4)
 8002cde:	f1bc 0f03 	cmp.w	ip, #3
 8002ce2:	f340 81ba 	ble.w	800305a <RI_GetRegisterMotor1+0x45e>
          switch (regID)
 8002ce6:	f5b0 7fac 	cmp.w	r0, #344	@ 0x158
 8002cea:	f000 825c 	beq.w	80031a6 <RI_GetRegisterMotor1+0x5aa>
 8002cee:	f200 81a3 	bhi.w	8003038 <RI_GetRegisterMotor1+0x43c>
 8002cf2:	2858      	cmp	r0, #88	@ 0x58
 8002cf4:	f000 824f 	beq.w	8003196 <RI_GetRegisterMotor1+0x59a>
 8002cf8:	2898      	cmp	r0, #152	@ 0x98
 8002cfa:	f040 8196 	bne.w	800302a <RI_GetRegisterMotor1+0x42e>
              *regdata32 = (((int32_t)MCI_GetMecSpeedRefUnit(pMCIN) * U_RPM) / SPEED_UNIT);
 8002cfe:	488d      	ldr	r0, [pc, #564]	@ (8002f34 <RI_GetRegisterMotor1+0x338>)
 8002d00:	f7fe fada 	bl	80012b8 <MCI_GetMecSpeedRefUnit>
 8002d04:	eb00 0040 	add.w	r0, r0, r0, lsl #1
 8002d08:	0040      	lsls	r0, r0, #1
 8002d0a:	6020      	str	r0, [r4, #0]
    uint8_t retVal = MCP_CMD_OK;
 8002d0c:	2000      	movs	r0, #0
          *size = 4;
 8002d0e:	2304      	movs	r3, #4
 8002d10:	802b      	strh	r3, [r5, #0]
  }
 8002d12:	b015      	add	sp, #84	@ 0x54
 8002d14:	bd30      	pop	{r4, r5, pc}
        switch (regID)
 8002d16:	28a0      	cmp	r0, #160	@ 0xa0
 8002d18:	f000 81c1 	beq.w	800309e <RI_GetRegisterMotor1+0x4a2>
 8002d1c:	28e0      	cmp	r0, #224	@ 0xe0
 8002d1e:	f000 81a1 	beq.w	8003064 <RI_GetRegisterMotor1+0x468>
            *size= 0 ; /* */
 8002d22:	2300      	movs	r3, #0
 8002d24:	802b      	strh	r3, [r5, #0]
            retVal = MCP_ERROR_UNKNOWN_REG;
 8002d26:	2005      	movs	r0, #5
            break;
 8002d28:	e786      	b.n	8002c38 <RI_GetRegisterMotor1+0x3c>
 8002d2a:	2868      	cmp	r0, #104	@ 0x68
 8002d2c:	f040 822e 	bne.w	800318c <RI_GetRegisterMotor1+0x590>
            if (((*rawSize) + 2U) > (uint16_t)freeSpace)
 8002d30:	fa1f fc8c 	uxth.w	ip, ip
            *rawSize = (uint16_t)sizeof(MotorConfig_reg_t);
 8002d34:	223c      	movs	r2, #60	@ 0x3c
            if (((*rawSize) + 2U) > (uint16_t)freeSpace)
 8002d36:	f1bc 0f3d 	cmp.w	ip, #61	@ 0x3d
            *rawSize = (uint16_t)sizeof(MotorConfig_reg_t);
 8002d3a:	8022      	strh	r2, [r4, #0]
            if (((*rawSize) + 2U) > (uint16_t)freeSpace)
 8002d3c:	f200 81d4 	bhi.w	80030e8 <RI_GetRegisterMotor1+0x4ec>
 8002d40:	233e      	movs	r3, #62	@ 0x3e
              retVal = MCP_ERROR_NO_TXSYNC_SPACE;
 8002d42:	2008      	movs	r0, #8
 8002d44:	e790      	b.n	8002c68 <RI_GetRegisterMotor1+0x6c>
 8002d46:	f5b0 7ff4 	cmp.w	r0, #488	@ 0x1e8
 8002d4a:	f000 81f3 	beq.w	8003134 <RI_GetRegisterMotor1+0x538>
 8002d4e:	f5b0 7f5a 	cmp.w	r0, #872	@ 0x368
 8002d52:	d112      	bne.n	8002d7a <RI_GetRegisterMotor1+0x17e>
            *rawSize = 4;
 8002d54:	2304      	movs	r3, #4
 8002d56:	8023      	strh	r3, [r4, #0]
            *iqref = (uint16_t)MCI_GetIqdref(pMCIN).q;
 8002d58:	4876      	ldr	r0, [pc, #472]	@ (8002f34 <RI_GetRegisterMotor1+0x338>)
 8002d5a:	f7fe fadb 	bl	8001314 <MCI_GetIqdref>
 8002d5e:	4603      	mov	r3, r0
 8002d60:	8063      	strh	r3, [r4, #2]
            *idref = (uint16_t)MCI_GetIqdref(pMCIN).d;
 8002d62:	4874      	ldr	r0, [pc, #464]	@ (8002f34 <RI_GetRegisterMotor1+0x338>)
            *iqref = (uint16_t)MCI_GetIqdref(pMCIN).q;
 8002d64:	9312      	str	r3, [sp, #72]	@ 0x48
            *idref = (uint16_t)MCI_GetIqdref(pMCIN).d;
 8002d66:	f7fe fad5 	bl	8001314 <MCI_GetIqdref>
        *size = (*rawSize) + 2U;
 8002d6a:	8823      	ldrh	r3, [r4, #0]
            *idref = (uint16_t)MCI_GetIqdref(pMCIN).d;
 8002d6c:	f3c0 400f 	ubfx	r0, r0, #16, #16
        *size = (*rawSize) + 2U;
 8002d70:	3302      	adds	r3, #2
            *idref = (uint16_t)MCI_GetIqdref(pMCIN).d;
 8002d72:	80a0      	strh	r0, [r4, #4]
        *size = (*rawSize) + 2U;
 8002d74:	b29b      	uxth	r3, r3
    uint8_t retVal = MCP_CMD_OK;
 8002d76:	2000      	movs	r0, #0
            break;
 8002d78:	e776      	b.n	8002c68 <RI_GetRegisterMotor1+0x6c>
 8002d7a:	f5b0 7fd4 	cmp.w	r0, #424	@ 0x1a8
 8002d7e:	f040 8205 	bne.w	800318c <RI_GetRegisterMotor1+0x590>
            *rpm = (((int32_t)MCI_GetLastRampFinalSpeed(pMCIN) * U_RPM) / (int32_t)SPEED_UNIT);
 8002d82:	486c      	ldr	r0, [pc, #432]	@ (8002f34 <RI_GetRegisterMotor1+0x338>)
 8002d84:	f7fe fa82 	bl	800128c <MCI_GetLastRampFinalSpeed>
 8002d88:	eb00 0040 	add.w	r0, r0, r0, lsl #1
 8002d8c:	0043      	lsls	r3, r0, #1
 8002d8e:	f8c4 3002 	str.w	r3, [r4, #2]
            *duration = MCI_GetLastRampFinalDuration(pMCIN);
 8002d92:	4868      	ldr	r0, [pc, #416]	@ (8002f34 <RI_GetRegisterMotor1+0x338>)
 8002d94:	f7fe fa82 	bl	800129c <MCI_GetLastRampFinalDuration>
            *rawSize = 6;
 8002d98:	2306      	movs	r3, #6
            *duration = MCI_GetLastRampFinalDuration(pMCIN);
 8002d9a:	80e0      	strh	r0, [r4, #6]
            *rawSize = 6;
 8002d9c:	8023      	strh	r3, [r4, #0]
    uint8_t retVal = MCP_CMD_OK;
 8002d9e:	2000      	movs	r0, #0
            break;
 8002da0:	2308      	movs	r3, #8
 8002da2:	e761      	b.n	8002c68 <RI_GetRegisterMotor1+0x6c>
 8002da4:	f5b0 6f0d 	cmp.w	r0, #2256	@ 0x8d0
 8002da8:	d147      	bne.n	8002e3a <RI_GetRegisterMotor1+0x23e>
              *regdata16 = MCI_GetIqd(pMCIN).q;
 8002daa:	4862      	ldr	r0, [pc, #392]	@ (8002f34 <RI_GetRegisterMotor1+0x338>)
 8002dac:	f7fe faa4 	bl	80012f8 <MCI_GetIqd>
 8002db0:	8020      	strh	r0, [r4, #0]
              break;
 8002db2:	e12c      	b.n	800300e <RI_GetRegisterMotor1+0x412>
 8002db4:	f5b0 6ffa 	cmp.w	r0, #2000	@ 0x7d0
 8002db8:	f000 820f 	beq.w	80031da <RI_GetRegisterMotor1+0x5de>
 8002dbc:	d97f      	bls.n	8002ebe <RI_GetRegisterMotor1+0x2c2>
 8002dbe:	f5b0 6f01 	cmp.w	r0, #2064	@ 0x810
 8002dc2:	d173      	bne.n	8002eac <RI_GetRegisterMotor1+0x2b0>
              *regdata16 = MCI_GetIab(pMCIN).b;
 8002dc4:	485b      	ldr	r0, [pc, #364]	@ (8002f34 <RI_GetRegisterMotor1+0x338>)
 8002dc6:	f7fe fa7b 	bl	80012c0 <MCI_GetIab>
 8002dca:	f3c0 430f 	ubfx	r3, r0, #16, #16
 8002dce:	8023      	strh	r3, [r4, #0]
              break;
 8002dd0:	e11d      	b.n	800300e <RI_GetRegisterMotor1+0x412>
 8002dd2:	f5b0 6f61 	cmp.w	r0, #3600	@ 0xe10
 8002dd6:	f000 8266 	beq.w	80032a6 <RI_GetRegisterMotor1+0x6aa>
 8002dda:	f240 80b9 	bls.w	8002f50 <RI_GetRegisterMotor1+0x354>
 8002dde:	f241 5310 	movw	r3, #5392	@ 0x1510
 8002de2:	4298      	cmp	r0, r3
 8002de4:	f000 825a 	beq.w	800329c <RI_GetRegisterMotor1+0x6a0>
 8002de8:	f240 8095 	bls.w	8002f16 <RI_GetRegisterMotor1+0x31a>
 8002dec:	f241 53d0 	movw	r3, #5584	@ 0x15d0
 8002df0:	4298      	cmp	r0, r3
 8002df2:	f000 824e 	beq.w	8003292 <RI_GetRegisterMotor1+0x696>
 8002df6:	f240 8085 	bls.w	8002f04 <RI_GetRegisterMotor1+0x308>
 8002dfa:	f241 6310 	movw	r3, #5648	@ 0x1610
 8002dfe:	4298      	cmp	r0, r3
 8002e00:	d176      	bne.n	8002ef0 <RI_GetRegisterMotor1+0x2f4>
              *regdataU16 = PID_GetKIDivisorPOW2(&PIDIqHandle_M1);
 8002e02:	484d      	ldr	r0, [pc, #308]	@ (8002f38 <RI_GetRegisterMotor1+0x33c>)
 8002e04:	f002 ffc4 	bl	8005d90 <PID_GetKIDivisorPOW2>
 8002e08:	8020      	strh	r0, [r4, #0]
              break;
 8002e0a:	e100      	b.n	800300e <RI_GetRegisterMotor1+0x412>
 8002e0c:	f5b0 7f04 	cmp.w	r0, #528	@ 0x210
 8002e10:	f000 823a 	beq.w	8003288 <RI_GetRegisterMotor1+0x68c>
 8002e14:	d924      	bls.n	8002e60 <RI_GetRegisterMotor1+0x264>
 8002e16:	f5b0 7f44 	cmp.w	r0, #784	@ 0x310
 8002e1a:	f000 8230 	beq.w	800327e <RI_GetRegisterMotor1+0x682>
 8002e1e:	d917      	bls.n	8002e50 <RI_GetRegisterMotor1+0x254>
 8002e20:	f5b0 7f74 	cmp.w	r0, #976	@ 0x3d0
 8002e24:	f040 8184 	bne.w	8003130 <RI_GetRegisterMotor1+0x534>
              STO_CR_GetObserverGains(&STO_CR_M1, &hC1, &hC2);
 8002e28:	4844      	ldr	r0, [pc, #272]	@ (8002f3c <RI_GetRegisterMotor1+0x340>)
 8002e2a:	aa13      	add	r2, sp, #76	@ 0x4c
 8002e2c:	a912      	add	r1, sp, #72	@ 0x48
 8002e2e:	f004 fa69 	bl	8007304 <STO_CR_GetObserverGains>
              *regdata16 = hC1;
 8002e32:	f8bd 3048 	ldrh.w	r3, [sp, #72]	@ 0x48
 8002e36:	8023      	strh	r3, [r4, #0]
              break;
 8002e38:	e0e9      	b.n	800300e <RI_GetRegisterMotor1+0x412>
 8002e3a:	f5b0 6f11 	cmp.w	r0, #2320	@ 0x910
 8002e3e:	f040 8177 	bne.w	8003130 <RI_GetRegisterMotor1+0x534>
              *regdata16 = MCI_GetIqd(pMCIN).d;
 8002e42:	483c      	ldr	r0, [pc, #240]	@ (8002f34 <RI_GetRegisterMotor1+0x338>)
 8002e44:	f7fe fa58 	bl	80012f8 <MCI_GetIqd>
 8002e48:	f3c0 430f 	ubfx	r3, r0, #16, #16
 8002e4c:	8023      	strh	r3, [r4, #0]
              break;
 8002e4e:	e0de      	b.n	800300e <RI_GetRegisterMotor1+0x412>
 8002e50:	f5b0 7f24 	cmp.w	r0, #656	@ 0x290
 8002e54:	d111      	bne.n	8002e7a <RI_GetRegisterMotor1+0x27e>
              *regdata16 = PID_GetKP(&PIDIdHandle_M1);
 8002e56:	483a      	ldr	r0, [pc, #232]	@ (8002f40 <RI_GetRegisterMotor1+0x344>)
 8002e58:	f002 ff88 	bl	8005d6c <PID_GetKP>
 8002e5c:	8020      	strh	r0, [r4, #0]
              break;
 8002e5e:	e0d6      	b.n	800300e <RI_GetRegisterMotor1+0x412>
 8002e60:	f5b0 7f88 	cmp.w	r0, #272	@ 0x110
 8002e64:	f000 8206 	beq.w	8003274 <RI_GetRegisterMotor1+0x678>
 8002e68:	d919      	bls.n	8002e9e <RI_GetRegisterMotor1+0x2a2>
 8002e6a:	f5b0 7fc8 	cmp.w	r0, #400	@ 0x190
 8002e6e:	d10d      	bne.n	8002e8c <RI_GetRegisterMotor1+0x290>
              *regdata16 = PID_GetKP(&PIDIqHandle_M1);
 8002e70:	4831      	ldr	r0, [pc, #196]	@ (8002f38 <RI_GetRegisterMotor1+0x33c>)
 8002e72:	f002 ff7b 	bl	8005d6c <PID_GetKP>
 8002e76:	8020      	strh	r0, [r4, #0]
              break;
 8002e78:	e0c9      	b.n	800300e <RI_GetRegisterMotor1+0x412>
 8002e7a:	f5b0 7f34 	cmp.w	r0, #720	@ 0x2d0
 8002e7e:	f040 8157 	bne.w	8003130 <RI_GetRegisterMotor1+0x534>
              *regdata16 = PID_GetKI(&PIDIdHandle_M1);
 8002e82:	482f      	ldr	r0, [pc, #188]	@ (8002f40 <RI_GetRegisterMotor1+0x344>)
 8002e84:	f002 ff76 	bl	8005d74 <PID_GetKI>
 8002e88:	8020      	strh	r0, [r4, #0]
              break;
 8002e8a:	e0c0      	b.n	800300e <RI_GetRegisterMotor1+0x412>
 8002e8c:	f5b0 7fe8 	cmp.w	r0, #464	@ 0x1d0
 8002e90:	f040 814e 	bne.w	8003130 <RI_GetRegisterMotor1+0x534>
              *regdata16 = PID_GetKI(&PIDIqHandle_M1);
 8002e94:	4828      	ldr	r0, [pc, #160]	@ (8002f38 <RI_GetRegisterMotor1+0x33c>)
 8002e96:	f002 ff6d 	bl	8005d74 <PID_GetKI>
 8002e9a:	8020      	strh	r0, [r4, #0]
              break;
 8002e9c:	e0b7      	b.n	800300e <RI_GetRegisterMotor1+0x412>
 8002e9e:	2890      	cmp	r0, #144	@ 0x90
 8002ea0:	d115      	bne.n	8002ece <RI_GetRegisterMotor1+0x2d2>
              *regdata16 = PID_GetKP(&PIDSpeedHandle_M1);
 8002ea2:	4828      	ldr	r0, [pc, #160]	@ (8002f44 <RI_GetRegisterMotor1+0x348>)
 8002ea4:	f002 ff62 	bl	8005d6c <PID_GetKP>
 8002ea8:	8020      	strh	r0, [r4, #0]
              break;
 8002eaa:	e0b0      	b.n	800300e <RI_GetRegisterMotor1+0x412>
 8002eac:	f5b0 6f05 	cmp.w	r0, #2128	@ 0x850
 8002eb0:	f040 813e 	bne.w	8003130 <RI_GetRegisterMotor1+0x534>
              *regdata16 = MCI_GetIalphabeta(pMCIN).alpha;
 8002eb4:	481f      	ldr	r0, [pc, #124]	@ (8002f34 <RI_GetRegisterMotor1+0x338>)
 8002eb6:	f7fe fa11 	bl	80012dc <MCI_GetIalphabeta>
 8002eba:	8020      	strh	r0, [r4, #0]
              break;
 8002ebc:	e0a7      	b.n	800300e <RI_GetRegisterMotor1+0x412>
 8002ebe:	f5b0 6fb2 	cmp.w	r0, #1424	@ 0x590
 8002ec2:	d10c      	bne.n	8002ede <RI_GetRegisterMotor1+0x2e2>
              *regdataU16 = VBS_GetAvBusVoltage_V(BusVoltageSensor);
 8002ec4:	4820      	ldr	r0, [pc, #128]	@ (8002f48 <RI_GetRegisterMotor1+0x34c>)
 8002ec6:	f002 fbed 	bl	80056a4 <VBS_GetAvBusVoltage_V>
 8002eca:	8020      	strh	r0, [r4, #0]
              break;
 8002ecc:	e09f      	b.n	800300e <RI_GetRegisterMotor1+0x412>
 8002ece:	28d0      	cmp	r0, #208	@ 0xd0
 8002ed0:	f040 812e 	bne.w	8003130 <RI_GetRegisterMotor1+0x534>
              *regdata16 = PID_GetKI(&PIDSpeedHandle_M1);
 8002ed4:	481b      	ldr	r0, [pc, #108]	@ (8002f44 <RI_GetRegisterMotor1+0x348>)
 8002ed6:	f002 ff4d 	bl	8005d74 <PID_GetKI>
 8002eda:	8020      	strh	r0, [r4, #0]
              break;
 8002edc:	e097      	b.n	800300e <RI_GetRegisterMotor1+0x412>
 8002ede:	f5b0 6fba 	cmp.w	r0, #1488	@ 0x5d0
 8002ee2:	f040 8125 	bne.w	8003130 <RI_GetRegisterMotor1+0x534>
              *regdata16 = NTC_GetAvTemp_C(&TempSensor_M1);
 8002ee6:	4819      	ldr	r0, [pc, #100]	@ (8002f4c <RI_GetRegisterMotor1+0x350>)
 8002ee8:	f002 ff22 	bl	8005d30 <NTC_GetAvTemp_C>
 8002eec:	8020      	strh	r0, [r4, #0]
              break;
 8002eee:	e08e      	b.n	800300e <RI_GetRegisterMotor1+0x412>
 8002ef0:	f241 6350 	movw	r3, #5712	@ 0x1650
 8002ef4:	4298      	cmp	r0, r3
 8002ef6:	f040 811b 	bne.w	8003130 <RI_GetRegisterMotor1+0x534>
              *regdataU16 = PID_GetKDDivisorPOW2(&PIDIqHandle_M1);
 8002efa:	480f      	ldr	r0, [pc, #60]	@ (8002f38 <RI_GetRegisterMotor1+0x33c>)
 8002efc:	f002 ff68 	bl	8005dd0 <PID_GetKDDivisorPOW2>
 8002f00:	8020      	strh	r0, [r4, #0]
              break;
 8002f02:	e084      	b.n	800300e <RI_GetRegisterMotor1+0x412>
 8002f04:	f241 5350 	movw	r3, #5456	@ 0x1550
 8002f08:	4298      	cmp	r0, r3
 8002f0a:	d134      	bne.n	8002f76 <RI_GetRegisterMotor1+0x37a>
              *regdataU16 = PID_GetKIDivisorPOW2(&PIDIdHandle_M1);
 8002f0c:	480c      	ldr	r0, [pc, #48]	@ (8002f40 <RI_GetRegisterMotor1+0x344>)
 8002f0e:	f002 ff3f 	bl	8005d90 <PID_GetKIDivisorPOW2>
 8002f12:	8020      	strh	r0, [r4, #0]
              break;
 8002f14:	e07b      	b.n	800300e <RI_GetRegisterMotor1+0x412>
 8002f16:	f241 4350 	movw	r3, #5200	@ 0x1450
 8002f1a:	4298      	cmp	r0, r3
 8002f1c:	f000 81a5 	beq.w	800326a <RI_GetRegisterMotor1+0x66e>
 8002f20:	d96e      	bls.n	8003000 <RI_GetRegisterMotor1+0x404>
 8002f22:	f241 4390 	movw	r3, #5264	@ 0x1490
 8002f26:	4298      	cmp	r0, r3
 8002f28:	d160      	bne.n	8002fec <RI_GetRegisterMotor1+0x3f0>
              *regdataU16 = (uint16_t)PID_GetKIDivisorPOW2(&PIDSpeedHandle_M1);
 8002f2a:	4806      	ldr	r0, [pc, #24]	@ (8002f44 <RI_GetRegisterMotor1+0x348>)
 8002f2c:	f002 ff30 	bl	8005d90 <PID_GetKIDivisorPOW2>
 8002f30:	8020      	strh	r0, [r4, #0]
              break;
 8002f32:	e06c      	b.n	800300e <RI_GetRegisterMotor1+0x412>
 8002f34:	20000728 	.word	0x20000728
 8002f38:	200003d0 	.word	0x200003d0
 8002f3c:	20000110 	.word	0x20000110
 8002f40:	200003a4 	.word	0x200003a4
 8002f44:	200003fc 	.word	0x200003fc
 8002f48:	2000002c 	.word	0x2000002c
 8002f4c:	20000058 	.word	0x20000058
 8002f50:	f5b0 6f4d 	cmp.w	r0, #3280	@ 0xcd0
 8002f54:	f000 8184 	beq.w	8003260 <RI_GetRegisterMotor1+0x664>
 8002f58:	d91f      	bls.n	8002f9a <RI_GetRegisterMotor1+0x39e>
 8002f5a:	f5b0 6f59 	cmp.w	r0, #3472	@ 0xd90
 8002f5e:	f000 8148 	beq.w	80031f2 <RI_GetRegisterMotor1+0x5f6>
 8002f62:	d912      	bls.n	8002f8a <RI_GetRegisterMotor1+0x38e>
 8002f64:	f5b0 6f5d 	cmp.w	r0, #3536	@ 0xdd0
 8002f68:	f040 80e2 	bne.w	8003130 <RI_GetRegisterMotor1+0x534>
              *regdata16 = STO_CR_GetEstimatedBemf(&STO_CR_M1).alpha;
 8002f6c:	48aa      	ldr	r0, [pc, #680]	@ (8003218 <RI_GetRegisterMotor1+0x61c>)
 8002f6e:	f004 f9ab 	bl	80072c8 <STO_CR_GetEstimatedBemf>
 8002f72:	8020      	strh	r0, [r4, #0]
              break;
 8002f74:	e04b      	b.n	800300e <RI_GetRegisterMotor1+0x412>
 8002f76:	f241 5390 	movw	r3, #5520	@ 0x1590
 8002f7a:	4298      	cmp	r0, r3
 8002f7c:	f040 80d8 	bne.w	8003130 <RI_GetRegisterMotor1+0x534>
              *regdataU16 = PID_GetKDDivisorPOW2(&PIDIdHandle_M1);
 8002f80:	48a6      	ldr	r0, [pc, #664]	@ (800321c <RI_GetRegisterMotor1+0x620>)
 8002f82:	f002 ff25 	bl	8005dd0 <PID_GetKDDivisorPOW2>
 8002f86:	8020      	strh	r0, [r4, #0]
              break;
 8002f88:	e041      	b.n	800300e <RI_GetRegisterMotor1+0x412>
 8002f8a:	f5b0 6f51 	cmp.w	r0, #3344	@ 0xd10
 8002f8e:	d111      	bne.n	8002fb4 <RI_GetRegisterMotor1+0x3b8>
              *regdata16 = SPD_GetS16Speed((SpeednPosFdbk_Handle_t*) &STO_CR_M1);
 8002f90:	48a1      	ldr	r0, [pc, #644]	@ (8003218 <RI_GetRegisterMotor1+0x61c>)
 8002f92:	f003 fdd3 	bl	8006b3c <SPD_GetS16Speed>
 8002f96:	8020      	strh	r0, [r4, #0]
              break;
 8002f98:	e039      	b.n	800300e <RI_GetRegisterMotor1+0x412>
 8002f9a:	f5b0 6f29 	cmp.w	r0, #2704	@ 0xa90
 8002f9e:	f000 8121 	beq.w	80031e4 <RI_GetRegisterMotor1+0x5e8>
 8002fa2:	d919      	bls.n	8002fd8 <RI_GetRegisterMotor1+0x3dc>
 8002fa4:	f5b0 6f2d 	cmp.w	r0, #2768	@ 0xad0
 8002fa8:	d10d      	bne.n	8002fc6 <RI_GetRegisterMotor1+0x3ca>
              *regdata16 = SPD_GetElAngle ((SpeednPosFdbk_Handle_t*) &ENCODER_M1); //cstat !MISRAC2012-Rule-11.3
 8002faa:	489d      	ldr	r0, [pc, #628]	@ (8003220 <RI_GetRegisterMotor1+0x624>)
 8002fac:	f003 fd84 	bl	8006ab8 <SPD_GetElAngle>
 8002fb0:	8020      	strh	r0, [r4, #0]
              break;
 8002fb2:	e02c      	b.n	800300e <RI_GetRegisterMotor1+0x412>
 8002fb4:	f5b0 6f55 	cmp.w	r0, #3408	@ 0xd50
 8002fb8:	f040 80ba 	bne.w	8003130 <RI_GetRegisterMotor1+0x534>
              *regdata16 = STO_CR_GetEstimatedCurrent(&STO_CR_M1).alpha;
 8002fbc:	4896      	ldr	r0, [pc, #600]	@ (8003218 <RI_GetRegisterMotor1+0x61c>)
 8002fbe:	f004 f98f 	bl	80072e0 <STO_CR_GetEstimatedCurrent>
 8002fc2:	8020      	strh	r0, [r4, #0]
              break;
 8002fc4:	e023      	b.n	800300e <RI_GetRegisterMotor1+0x412>
 8002fc6:	f5b0 6f31 	cmp.w	r0, #2832	@ 0xb10
 8002fca:	f040 80b1 	bne.w	8003130 <RI_GetRegisterMotor1+0x534>
              *regdata16 = SPD_GetS16Speed ((SpeednPosFdbk_Handle_t*) &ENCODER_M1); //cstat !MISRAC2012-Rule-11.3
 8002fce:	4894      	ldr	r0, [pc, #592]	@ (8003220 <RI_GetRegisterMotor1+0x624>)
 8002fd0:	f003 fdb4 	bl	8006b3c <SPD_GetS16Speed>
 8002fd4:	8020      	strh	r0, [r4, #0]
              break;
 8002fd6:	e01a      	b.n	800300e <RI_GetRegisterMotor1+0x412>
 8002fd8:	f5b0 6f21 	cmp.w	r0, #2576	@ 0xa10
 8002fdc:	d11c      	bne.n	8003018 <RI_GetRegisterMotor1+0x41c>
              *regdata16 = MCI_GetVqd(pMCIN).d;
 8002fde:	4891      	ldr	r0, [pc, #580]	@ (8003224 <RI_GetRegisterMotor1+0x628>)
 8002fe0:	f7fe f9a6 	bl	8001330 <MCI_GetVqd>
 8002fe4:	f3c0 430f 	ubfx	r3, r0, #16, #16
 8002fe8:	8023      	strh	r3, [r4, #0]
              break;
 8002fea:	e010      	b.n	800300e <RI_GetRegisterMotor1+0x412>
 8002fec:	f241 43d0 	movw	r3, #5328	@ 0x14d0
 8002ff0:	4298      	cmp	r0, r3
 8002ff2:	f040 809d 	bne.w	8003130 <RI_GetRegisterMotor1+0x534>
              *regdataU16 = PID_GetKDDivisorPOW2(&PIDSpeedHandle_M1);
 8002ff6:	488c      	ldr	r0, [pc, #560]	@ (8003228 <RI_GetRegisterMotor1+0x62c>)
 8002ff8:	f002 feea 	bl	8005dd0 <PID_GetKDDivisorPOW2>
 8002ffc:	8020      	strh	r0, [r4, #0]
              break;
 8002ffe:	e006      	b.n	800300e <RI_GetRegisterMotor1+0x412>
 8003000:	f5b0 6f65 	cmp.w	r0, #3664	@ 0xe50
 8003004:	d003      	beq.n	800300e <RI_GetRegisterMotor1+0x412>
 8003006:	f5b0 6f69 	cmp.w	r0, #3728	@ 0xe90
 800300a:	f040 8091 	bne.w	8003130 <RI_GetRegisterMotor1+0x534>
    uint8_t retVal = MCP_CMD_OK;
 800300e:	2000      	movs	r0, #0
          *size = 2;
 8003010:	2302      	movs	r3, #2
 8003012:	802b      	strh	r3, [r5, #0]
  }
 8003014:	b015      	add	sp, #84	@ 0x54
 8003016:	bd30      	pop	{r4, r5, pc}
 8003018:	f5b0 6f25 	cmp.w	r0, #2640	@ 0xa50
 800301c:	f040 8088 	bne.w	8003130 <RI_GetRegisterMotor1+0x534>
              *regdata16 = MCI_GetValphabeta(pMCIN).alpha;
 8003020:	4880      	ldr	r0, [pc, #512]	@ (8003224 <RI_GetRegisterMotor1+0x628>)
 8003022:	f7fe f993 	bl	800134c <MCI_GetValphabeta>
 8003026:	8020      	strh	r0, [r4, #0]
              break;
 8003028:	e7f1      	b.n	800300e <RI_GetRegisterMotor1+0x412>
 800302a:	2818      	cmp	r0, #24
 800302c:	d17e      	bne.n	800312c <RI_GetRegisterMotor1+0x530>
              *regdataU32 = MCI_GetFaultState(pMCIN);
 800302e:	487d      	ldr	r0, [pc, #500]	@ (8003224 <RI_GetRegisterMotor1+0x628>)
 8003030:	f7fe f922 	bl	8001278 <MCI_GetFaultState>
 8003034:	6020      	str	r0, [r4, #0]
              break;
 8003036:	e669      	b.n	8002d0c <RI_GetRegisterMotor1+0x110>
 8003038:	f5b0 7fcc 	cmp.w	r0, #408	@ 0x198
 800303c:	f000 80b8 	beq.w	80031b0 <RI_GetRegisterMotor1+0x5b4>
 8003040:	f641 3358 	movw	r3, #7000	@ 0x1b58
 8003044:	4298      	cmp	r0, r3
 8003046:	d171      	bne.n	800312c <RI_GetRegisterMotor1+0x530>
              ReadVal.Float_Val = PQD_GetAvrgElMotorPowerW(pMPM[M1]);
 8003048:	4b78      	ldr	r3, [pc, #480]	@ (800322c <RI_GetRegisterMotor1+0x630>)
 800304a:	6818      	ldr	r0, [r3, #0]
 800304c:	f002 ff28 	bl	8005ea0 <PQD_GetAvrgElMotorPowerW>
 8003050:	ed8d 0a01 	vstr	s0, [sp, #4]
              *regdataU32 = ReadVal.U32_Val; //cstat !UNION-type-punning
 8003054:	9b01      	ldr	r3, [sp, #4]
 8003056:	6023      	str	r3, [r4, #0]
              break;
 8003058:	e658      	b.n	8002d0c <RI_GetRegisterMotor1+0x110>
          retVal = MCP_ERROR_NO_TXSYNC_SPACE;
 800305a:	2008      	movs	r0, #8
  }
 800305c:	b015      	add	sp, #84	@ 0x54
 800305e:	bd30      	pop	{r4, r5, pc}
 8003060:	2005      	movs	r0, #5
 8003062:	e613      	b.n	8002c8c <RI_GetRegisterMotor1+0x90>
            retVal = RI_MovString (MotorConfig_reg[motorID]->name ,charData, size, freeSpace);
 8003064:	4b72      	ldr	r3, [pc, #456]	@ (8003230 <RI_GetRegisterMotor1+0x634>)
 8003066:	681a      	ldr	r2, [r3, #0]
  *size= 1U ; /* /0 is the min String size */
 8003068:	2301      	movs	r3, #1
 800306a:	802b      	strh	r3, [r5, #0]
            retVal = RI_MovString (MotorConfig_reg[motorID]->name ,charData, size, freeSpace);
 800306c:	f102 0124 	add.w	r1, r2, #36	@ 0x24
  while ((*tempsrcString != (char_t)0) && (*size < (uint16_t)maxSize))
 8003070:	f992 2024 	ldrsb.w	r2, [r2, #36]	@ 0x24
 8003074:	b17a      	cbz	r2, 8003096 <RI_GetRegisterMotor1+0x49a>
 8003076:	fa1f fc8c 	uxth.w	ip, ip
 800307a:	e008      	b.n	800308e <RI_GetRegisterMotor1+0x492>
    *tempdestString = *tempsrcString;
 800307c:	f804 2b01 	strb.w	r2, [r4], #1
    *size = *size + 1U;
 8003080:	882b      	ldrh	r3, [r5, #0]
 8003082:	3301      	adds	r3, #1
 8003084:	b29b      	uxth	r3, r3
 8003086:	802b      	strh	r3, [r5, #0]
  while ((*tempsrcString != (char_t)0) && (*size < (uint16_t)maxSize))
 8003088:	f911 2f01 	ldrsb.w	r2, [r1, #1]!
 800308c:	b11a      	cbz	r2, 8003096 <RI_GetRegisterMotor1+0x49a>
 800308e:	459c      	cmp	ip, r3
 8003090:	d8f4      	bhi.n	800307c <RI_GetRegisterMotor1+0x480>
    retVal = MCP_ERROR_STRING_FORMAT;
 8003092:	2006      	movs	r0, #6
 8003094:	e5d0      	b.n	8002c38 <RI_GetRegisterMotor1+0x3c>
    *tempdestString = (int8_t)0;
 8003096:	2300      	movs	r3, #0
 8003098:	7023      	strb	r3, [r4, #0]
  uint8_t retVal = MCP_CMD_OK;
 800309a:	2000      	movs	r0, #0
 800309c:	e5cc      	b.n	8002c38 <RI_GetRegisterMotor1+0x3c>
            retVal = RI_MovString (PWR_BOARD_NAME[motorID], charData, size, freeSpace);
 800309e:	4a65      	ldr	r2, [pc, #404]	@ (8003234 <RI_GetRegisterMotor1+0x638>)
  *size= 1U ; /* /0 is the min String size */
 80030a0:	2301      	movs	r3, #1
            retVal = RI_MovString (PWR_BOARD_NAME[motorID], charData, size, freeSpace);
 80030a2:	6811      	ldr	r1, [r2, #0]
  *size= 1U ; /* /0 is the min String size */
 80030a4:	802b      	strh	r3, [r5, #0]
  while ((*tempsrcString != (char_t)0) && (*size < (uint16_t)maxSize))
 80030a6:	f991 2000 	ldrsb.w	r2, [r1]
 80030aa:	2a00      	cmp	r2, #0
 80030ac:	d0f3      	beq.n	8003096 <RI_GetRegisterMotor1+0x49a>
 80030ae:	fa1f fc8c 	uxth.w	ip, ip
 80030b2:	e009      	b.n	80030c8 <RI_GetRegisterMotor1+0x4cc>
    *tempdestString = *tempsrcString;
 80030b4:	f804 2b01 	strb.w	r2, [r4], #1
    *size = *size + 1U;
 80030b8:	882b      	ldrh	r3, [r5, #0]
 80030ba:	3301      	adds	r3, #1
 80030bc:	b29b      	uxth	r3, r3
 80030be:	802b      	strh	r3, [r5, #0]
  while ((*tempsrcString != (char_t)0) && (*size < (uint16_t)maxSize))
 80030c0:	f911 2f01 	ldrsb.w	r2, [r1, #1]!
 80030c4:	2a00      	cmp	r2, #0
 80030c6:	d0e6      	beq.n	8003096 <RI_GetRegisterMotor1+0x49a>
 80030c8:	459c      	cmp	ip, r3
 80030ca:	d8f3      	bhi.n	80030b4 <RI_GetRegisterMotor1+0x4b8>
 80030cc:	e7e1      	b.n	8003092 <RI_GetRegisterMotor1+0x496>
              FOCFwConfig_reg_t const *pFOCConfig_reg = FOCConfig_reg[motorID];
 80030ce:	4a5a      	ldr	r2, [pc, #360]	@ (8003238 <RI_GetRegisterMotor1+0x63c>)
              (void)memcpy(rawData, (const uint8_t *)pFOCConfig_reg, sizeof(FOCFwConfig_reg_t));
 80030d0:	6812      	ldr	r2, [r2, #0]
 80030d2:	6810      	ldr	r0, [r2, #0]
 80030d4:	6851      	ldr	r1, [r2, #4]
 80030d6:	6894      	ldr	r4, [r2, #8]
 80030d8:	609c      	str	r4, [r3, #8]
 80030da:	6018      	str	r0, [r3, #0]
 80030dc:	6059      	str	r1, [r3, #4]
 80030de:	8992      	ldrh	r2, [r2, #12]
 80030e0:	819a      	strh	r2, [r3, #12]
    uint8_t retVal = MCP_CMD_OK;
 80030e2:	2000      	movs	r0, #0
              (void)memcpy(rawData, (const uint8_t *)pFOCConfig_reg, sizeof(FOCFwConfig_reg_t));
 80030e4:	2310      	movs	r3, #16
 80030e6:	e5bf      	b.n	8002c68 <RI_GetRegisterMotor1+0x6c>
              MotorConfig_reg_t const *pMotorConfig_reg = MotorConfig_reg[motorID];
 80030e8:	4a51      	ldr	r2, [pc, #324]	@ (8003230 <RI_GetRegisterMotor1+0x634>)
              (void)memcpy(rawData, (const uint8_t *)pMotorConfig_reg, sizeof(MotorConfig_reg_t));
 80030ea:	6812      	ldr	r2, [r2, #0]
 80030ec:	f102 0e30 	add.w	lr, r2, #48	@ 0x30
 80030f0:	6814      	ldr	r4, [r2, #0]
 80030f2:	6850      	ldr	r0, [r2, #4]
 80030f4:	6891      	ldr	r1, [r2, #8]
 80030f6:	f8d2 c00c 	ldr.w	ip, [r2, #12]
 80030fa:	f8c3 c00c 	str.w	ip, [r3, #12]
 80030fe:	3210      	adds	r2, #16
 8003100:	4572      	cmp	r2, lr
 8003102:	601c      	str	r4, [r3, #0]
 8003104:	6058      	str	r0, [r3, #4]
 8003106:	6099      	str	r1, [r3, #8]
 8003108:	f103 0310 	add.w	r3, r3, #16
 800310c:	d1f0      	bne.n	80030f0 <RI_GetRegisterMotor1+0x4f4>
 800310e:	6810      	ldr	r0, [r2, #0]
 8003110:	6851      	ldr	r1, [r2, #4]
 8003112:	6892      	ldr	r2, [r2, #8]
 8003114:	609a      	str	r2, [r3, #8]
 8003116:	6018      	str	r0, [r3, #0]
 8003118:	6059      	str	r1, [r3, #4]
    uint8_t retVal = MCP_CMD_OK;
 800311a:	2000      	movs	r0, #0
              (void)memcpy(rawData, (const uint8_t *)pMotorConfig_reg, sizeof(MotorConfig_reg_t));
 800311c:	233e      	movs	r3, #62	@ 0x3e
 800311e:	e5a3      	b.n	8002c68 <RI_GetRegisterMotor1+0x6c>
          retVal = MCP_ERROR_NO_TXSYNC_SPACE;
 8003120:	4608      	mov	r0, r1
 8003122:	e589      	b.n	8002c38 <RI_GetRegisterMotor1+0x3c>
              *data = (uint8_t)MCI_GetSTMState(pMCIN);
 8003124:	483f      	ldr	r0, [pc, #252]	@ (8003224 <RI_GetRegisterMotor1+0x628>)
 8003126:	f7fe f843 	bl	80011b0 <MCI_GetSTMState>
              break;
 800312a:	e5ad      	b.n	8002c88 <RI_GetRegisterMotor1+0x8c>
 800312c:	2005      	movs	r0, #5
 800312e:	e5ee      	b.n	8002d0e <RI_GetRegisterMotor1+0x112>
 8003130:	2005      	movs	r0, #5
 8003132:	e76d      	b.n	8003010 <RI_GetRegisterMotor1+0x414>
            *rawSize = 4;
 8003134:	2304      	movs	r3, #4
 8003136:	8023      	strh	r3, [r4, #0]
            *torque = MCI_GetLastRampFinalTorque(pMCIN);
 8003138:	483a      	ldr	r0, [pc, #232]	@ (8003224 <RI_GetRegisterMotor1+0x628>)
 800313a:	f7fe f8ab 	bl	8001294 <MCI_GetLastRampFinalTorque>
 800313e:	8060      	strh	r0, [r4, #2]
            *duration = MCI_GetLastRampFinalDuration(pMCIN) ;
 8003140:	4838      	ldr	r0, [pc, #224]	@ (8003224 <RI_GetRegisterMotor1+0x628>)
 8003142:	f7fe f8ab 	bl	800129c <MCI_GetLastRampFinalDuration>
        *size = (*rawSize) + 2U;
 8003146:	8823      	ldrh	r3, [r4, #0]
            *duration = MCI_GetLastRampFinalDuration(pMCIN) ;
 8003148:	80a0      	strh	r0, [r4, #4]
        *size = (*rawSize) + 2U;
 800314a:	3302      	adds	r3, #2
 800314c:	b29b      	uxth	r3, r3
    uint8_t retVal = MCP_CMD_OK;
 800314e:	2000      	movs	r0, #0
            break;
 8003150:	e58a      	b.n	8002c68 <RI_GetRegisterMotor1+0x6c>
            if (((*rawSize) + 2U) > (uint16_t)freeSpace)
 8003152:	fa1f fc8c 	uxth.w	ip, ip
            *rawSize = (uint16_t)sizeof(ApplicationConfig_reg_t);
 8003156:	2210      	movs	r2, #16
            if (((*rawSize) + 2U) > (uint16_t)freeSpace)
 8003158:	f1bc 0f11 	cmp.w	ip, #17
            *rawSize = (uint16_t)sizeof(ApplicationConfig_reg_t);
 800315c:	8022      	strh	r2, [r4, #0]
            if (((*rawSize) + 2U) > (uint16_t)freeSpace)
 800315e:	d82f      	bhi.n	80031c0 <RI_GetRegisterMotor1+0x5c4>
 8003160:	2312      	movs	r3, #18
              retVal = MCP_ERROR_NO_TXSYNC_SPACE;
 8003162:	2008      	movs	r0, #8
 8003164:	e580      	b.n	8002c68 <RI_GetRegisterMotor1+0x6c>
            if ((*rawSize) +2U > (uint16_t)freeSpace)
 8003166:	fa1f fc8c 	uxth.w	ip, ip
            *rawSize = 12;
 800316a:	220c      	movs	r2, #12
            if ((*rawSize) +2U > (uint16_t)freeSpace)
 800316c:	f1bc 0f0d 	cmp.w	ip, #13
            *rawSize = 12;
 8003170:	8022      	strh	r2, [r4, #0]
            if ((*rawSize) +2U > (uint16_t)freeSpace)
 8003172:	d922      	bls.n	80031ba <RI_GetRegisterMotor1+0x5be>
              memcpy(rawData, &scaleParams_M1, sizeof(ScaleParams_t) );
 8003174:	4a31      	ldr	r2, [pc, #196]	@ (800323c <RI_GetRegisterMotor1+0x640>)
 8003176:	6850      	ldr	r0, [r2, #4]
 8003178:	6814      	ldr	r4, [r2, #0]
 800317a:	6891      	ldr	r1, [r2, #8]
 800317c:	68d2      	ldr	r2, [r2, #12]
 800317e:	60da      	str	r2, [r3, #12]
 8003180:	6058      	str	r0, [r3, #4]
 8003182:	601c      	str	r4, [r3, #0]
 8003184:	6099      	str	r1, [r3, #8]
    uint8_t retVal = MCP_CMD_OK;
 8003186:	2000      	movs	r0, #0
              memcpy(rawData, &scaleParams_M1, sizeof(ScaleParams_t) );
 8003188:	230e      	movs	r3, #14
 800318a:	e56d      	b.n	8002c68 <RI_GetRegisterMotor1+0x6c>
        *size = (*rawSize) + 2U;
 800318c:	8823      	ldrh	r3, [r4, #0]
 800318e:	3302      	adds	r3, #2
            retVal = MCP_ERROR_UNKNOWN_REG;
 8003190:	2005      	movs	r0, #5
        *size = (*rawSize) + 2U;
 8003192:	b29b      	uxth	r3, r3
 8003194:	e568      	b.n	8002c68 <RI_GetRegisterMotor1+0x6c>
              *regdata32 = (((int32_t)MCI_GetAvrgMecSpeedUnit(pMCIN) * U_RPM) / SPEED_UNIT);
 8003196:	4823      	ldr	r0, [pc, #140]	@ (8003224 <RI_GetRegisterMotor1+0x628>)
 8003198:	f7fe f886 	bl	80012a8 <MCI_GetAvrgMecSpeedUnit>
 800319c:	eb00 0040 	add.w	r0, r0, r0, lsl #1
 80031a0:	0040      	lsls	r0, r0, #1
 80031a2:	6020      	str	r0, [r4, #0]
              break;
 80031a4:	e5b2      	b.n	8002d0c <RI_GetRegisterMotor1+0x110>
              *regdata32 = STO_CR_GetEstimatedBemfLevel(&STO_CR_M1);
 80031a6:	481c      	ldr	r0, [pc, #112]	@ (8003218 <RI_GetRegisterMotor1+0x61c>)
 80031a8:	f004 f8f6 	bl	8007398 <STO_CR_GetEstimatedBemfLevel>
 80031ac:	6020      	str	r0, [r4, #0]
              break;
 80031ae:	e5ad      	b.n	8002d0c <RI_GetRegisterMotor1+0x110>
              *regdata32 = STO_CR_GetObservedBemfLevel(&STO_CR_M1);
 80031b0:	4819      	ldr	r0, [pc, #100]	@ (8003218 <RI_GetRegisterMotor1+0x61c>)
 80031b2:	f004 f8f5 	bl	80073a0 <STO_CR_GetObservedBemfLevel>
 80031b6:	6020      	str	r0, [r4, #0]
              break;
 80031b8:	e5a8      	b.n	8002d0c <RI_GetRegisterMotor1+0x110>
 80031ba:	230e      	movs	r3, #14
              retVal = MCP_ERROR_NO_TXSYNC_SPACE;
 80031bc:	2008      	movs	r0, #8
 80031be:	e553      	b.n	8002c68 <RI_GetRegisterMotor1+0x6c>
              ApplicationConfig_reg_t const *pApplicationConfig_reg = ApplicationConfig_reg[motorID];
 80031c0:	4a1f      	ldr	r2, [pc, #124]	@ (8003240 <RI_GetRegisterMotor1+0x644>)
              (void)memcpy(rawData, (const uint8_t *)pApplicationConfig_reg, sizeof(ApplicationConfig_reg_t));
 80031c2:	6812      	ldr	r2, [r2, #0]
 80031c4:	6850      	ldr	r0, [r2, #4]
 80031c6:	6814      	ldr	r4, [r2, #0]
 80031c8:	6891      	ldr	r1, [r2, #8]
 80031ca:	68d2      	ldr	r2, [r2, #12]
 80031cc:	60da      	str	r2, [r3, #12]
 80031ce:	6058      	str	r0, [r3, #4]
 80031d0:	601c      	str	r4, [r3, #0]
 80031d2:	6099      	str	r1, [r3, #8]
    uint8_t retVal = MCP_CMD_OK;
 80031d4:	2000      	movs	r0, #0
              (void)memcpy(rawData, (const uint8_t *)pApplicationConfig_reg, sizeof(ApplicationConfig_reg_t));
 80031d6:	2312      	movs	r3, #18
 80031d8:	e546      	b.n	8002c68 <RI_GetRegisterMotor1+0x6c>
              *regdata16 = MCI_GetIab(pMCIN).a;
 80031da:	4812      	ldr	r0, [pc, #72]	@ (8003224 <RI_GetRegisterMotor1+0x628>)
 80031dc:	f7fe f870 	bl	80012c0 <MCI_GetIab>
 80031e0:	8020      	strh	r0, [r4, #0]
              break;
 80031e2:	e714      	b.n	800300e <RI_GetRegisterMotor1+0x412>
              *regdata16 = MCI_GetValphabeta(pMCIN).beta;
 80031e4:	480f      	ldr	r0, [pc, #60]	@ (8003224 <RI_GetRegisterMotor1+0x628>)
 80031e6:	f7fe f8b1 	bl	800134c <MCI_GetValphabeta>
 80031ea:	f3c0 430f 	ubfx	r3, r0, #16, #16
 80031ee:	8023      	strh	r3, [r4, #0]
              break;
 80031f0:	e70d      	b.n	800300e <RI_GetRegisterMotor1+0x412>
              *regdata16 = STO_CR_GetEstimatedCurrent(&STO_CR_M1).beta;
 80031f2:	4809      	ldr	r0, [pc, #36]	@ (8003218 <RI_GetRegisterMotor1+0x61c>)
 80031f4:	f004 f874 	bl	80072e0 <STO_CR_GetEstimatedCurrent>
 80031f8:	f3c0 430f 	ubfx	r3, r0, #16, #16
 80031fc:	8023      	strh	r3, [r4, #0]
              break;
 80031fe:	e706      	b.n	800300e <RI_GetRegisterMotor1+0x412>
              *regdata16 = MCI_GetIqdref(pMCIN).q;
 8003200:	4808      	ldr	r0, [pc, #32]	@ (8003224 <RI_GetRegisterMotor1+0x628>)
 8003202:	f7fe f887 	bl	8001314 <MCI_GetIqdref>
 8003206:	8020      	strh	r0, [r4, #0]
              break;
 8003208:	e701      	b.n	800300e <RI_GetRegisterMotor1+0x412>
              *regdata16 = MCI_GetIalphabeta(pMCIN).beta;
 800320a:	4806      	ldr	r0, [pc, #24]	@ (8003224 <RI_GetRegisterMotor1+0x628>)
 800320c:	f7fe f866 	bl	80012dc <MCI_GetIalphabeta>
 8003210:	f3c0 430f 	ubfx	r3, r0, #16, #16
 8003214:	8023      	strh	r3, [r4, #0]
              break;
 8003216:	e6fa      	b.n	800300e <RI_GetRegisterMotor1+0x412>
 8003218:	20000110 	.word	0x20000110
 800321c:	200003a4 	.word	0x200003a4
 8003220:	20000090 	.word	0x20000090
 8003224:	20000728 	.word	0x20000728
 8003228:	200003fc 	.word	0x200003fc
 800322c:	20000000 	.word	0x20000000
 8003230:	2000043c 	.word	0x2000043c
 8003234:	20000444 	.word	0x20000444
 8003238:	20000440 	.word	0x20000440
 800323c:	20000448 	.word	0x20000448
 8003240:	20000438 	.word	0x20000438
              STO_CR_GetObserverGains(&STO_CR_M1, &hC1, &hC2);
 8003244:	481b      	ldr	r0, [pc, #108]	@ (80032b4 <RI_GetRegisterMotor1+0x6b8>)
 8003246:	aa13      	add	r2, sp, #76	@ 0x4c
 8003248:	a912      	add	r1, sp, #72	@ 0x48
 800324a:	f004 f85b 	bl	8007304 <STO_CR_GetObserverGains>
              *regdata16 = hC2;
 800324e:	f8bd 304c 	ldrh.w	r3, [sp, #76]	@ 0x4c
 8003252:	8023      	strh	r3, [r4, #0]
              break;
 8003254:	e6db      	b.n	800300e <RI_GetRegisterMotor1+0x412>
              *regdata16 = MCI_GetVqd(pMCIN).q;
 8003256:	4818      	ldr	r0, [pc, #96]	@ (80032b8 <RI_GetRegisterMotor1+0x6bc>)
 8003258:	f7fe f86a 	bl	8001330 <MCI_GetVqd>
 800325c:	8020      	strh	r0, [r4, #0]
              break;
 800325e:	e6d6      	b.n	800300e <RI_GetRegisterMotor1+0x412>
              *regdata16 = SPD_GetElAngle((SpeednPosFdbk_Handle_t *)&STO_CR_M1);
 8003260:	4814      	ldr	r0, [pc, #80]	@ (80032b4 <RI_GetRegisterMotor1+0x6b8>)
 8003262:	f003 fc29 	bl	8006ab8 <SPD_GetElAngle>
 8003266:	8020      	strh	r0, [r4, #0]
              break;
 8003268:	e6d1      	b.n	800300e <RI_GetRegisterMotor1+0x412>
              *regdataU16 = (uint16_t)PID_GetKPDivisorPOW2(&PIDSpeedHandle_M1);
 800326a:	4814      	ldr	r0, [pc, #80]	@ (80032bc <RI_GetRegisterMotor1+0x6c0>)
 800326c:	f002 fd88 	bl	8005d80 <PID_GetKPDivisorPOW2>
 8003270:	8020      	strh	r0, [r4, #0]
              break;
 8003272:	e6cc      	b.n	800300e <RI_GetRegisterMotor1+0x412>
              *regdata16 = PID_GetKD(&PIDSpeedHandle_M1);
 8003274:	4811      	ldr	r0, [pc, #68]	@ (80032bc <RI_GetRegisterMotor1+0x6c0>)
 8003276:	f002 fda7 	bl	8005dc8 <PID_GetKD>
 800327a:	8020      	strh	r0, [r4, #0]
              break;
 800327c:	e6c7      	b.n	800300e <RI_GetRegisterMotor1+0x412>
              *regdata16 = PID_GetKD(&PIDIdHandle_M1);
 800327e:	4810      	ldr	r0, [pc, #64]	@ (80032c0 <RI_GetRegisterMotor1+0x6c4>)
 8003280:	f002 fda2 	bl	8005dc8 <PID_GetKD>
 8003284:	8020      	strh	r0, [r4, #0]
              break;
 8003286:	e6c2      	b.n	800300e <RI_GetRegisterMotor1+0x412>
              *regdata16 = PID_GetKD(&PIDIqHandle_M1);
 8003288:	480e      	ldr	r0, [pc, #56]	@ (80032c4 <RI_GetRegisterMotor1+0x6c8>)
 800328a:	f002 fd9d 	bl	8005dc8 <PID_GetKD>
 800328e:	8020      	strh	r0, [r4, #0]
              break;
 8003290:	e6bd      	b.n	800300e <RI_GetRegisterMotor1+0x412>
              *regdataU16 = PID_GetKPDivisorPOW2(&PIDIqHandle_M1);
 8003292:	480c      	ldr	r0, [pc, #48]	@ (80032c4 <RI_GetRegisterMotor1+0x6c8>)
 8003294:	f002 fd74 	bl	8005d80 <PID_GetKPDivisorPOW2>
 8003298:	8020      	strh	r0, [r4, #0]
              break;
 800329a:	e6b8      	b.n	800300e <RI_GetRegisterMotor1+0x412>
              *regdataU16 = PID_GetKPDivisorPOW2(&PIDIdHandle_M1);
 800329c:	4808      	ldr	r0, [pc, #32]	@ (80032c0 <RI_GetRegisterMotor1+0x6c4>)
 800329e:	f002 fd6f 	bl	8005d80 <PID_GetKPDivisorPOW2>
 80032a2:	8020      	strh	r0, [r4, #0]
              break;
 80032a4:	e6b3      	b.n	800300e <RI_GetRegisterMotor1+0x412>
              *regdata16 = STO_CR_GetEstimatedBemf(&STO_CR_M1).beta;
 80032a6:	4803      	ldr	r0, [pc, #12]	@ (80032b4 <RI_GetRegisterMotor1+0x6b8>)
 80032a8:	f004 f80e 	bl	80072c8 <STO_CR_GetEstimatedBemf>
 80032ac:	f3c0 430f 	ubfx	r3, r0, #16, #16
 80032b0:	8023      	strh	r3, [r4, #0]
              break;
 80032b2:	e6ac      	b.n	800300e <RI_GetRegisterMotor1+0x412>
 80032b4:	20000110 	.word	0x20000110
 80032b8:	20000728 	.word	0x20000728
 80032bc:	200003fc 	.word	0x200003fc
 80032c0:	200003a4 	.word	0x200003a4
 80032c4:	200003d0 	.word	0x200003d0

080032c8 <RI_GetIDSize>:
  return (retVal);
}

uint8_t RI_GetIDSize(uint16_t dataID)
{
  uint8_t typeID = ((uint8_t)dataID) & TYPE_MASK;
 80032c8:	f000 0038 	and.w	r0, r0, #56	@ 0x38
 80032cc:	3808      	subs	r0, #8
 80032ce:	b2c0      	uxtb	r0, r0
 80032d0:	2810      	cmp	r0, #16
 80032d2:	bf9a      	itte	ls
 80032d4:	4b01      	ldrls	r3, [pc, #4]	@ (80032dc <RI_GetIDSize+0x14>)
 80032d6:	5c18      	ldrbls	r0, [r3, r0]
 80032d8:	2000      	movhi	r0, #0
      break;
    }
  }

  return (result);
}
 80032da:	4770      	bx	lr
 80032dc:	080078bc 	.word	0x080078bc

080032e0 <RI_GetPtrReg>:
  else
  {
#endif

    MCI_Handle_t *pMCIN = &Mci[0];
    uint16_t regID = dataID & REG_MASK;
 80032e0:	f020 0307 	bic.w	r3, r0, #7
    uint8_t typeID = ((uint8_t)dataID) & TYPE_MASK;
 80032e4:	f000 0038 	and.w	r0, r0, #56	@ 0x38

    switch (typeID)
 80032e8:	2810      	cmp	r0, #16
    uint16_t regID = dataID & REG_MASK;
 80032ea:	b29b      	uxth	r3, r3
    switch (typeID)
 80032ec:	d010      	beq.n	8003310 <RI_GetPtrReg+0x30>
 80032ee:	2818      	cmp	r0, #24
 80032f0:	d10a      	bne.n	8003308 <RI_GetPtrReg+0x28>
    {
      case TYPE_DATA_32BIT:
      {
        switch (regID)
 80032f2:	4851      	ldr	r0, [pc, #324]	@ (8003438 <RI_GetPtrReg+0x158>)
 80032f4:	4a51      	ldr	r2, [pc, #324]	@ (800343c <RI_GetPtrReg+0x15c>)
 80032f6:	f640 2c58 	movw	ip, #2648	@ 0xa58
 80032fa:	4563      	cmp	r3, ip
 80032fc:	bf16      	itet	ne
 80032fe:	4602      	movne	r2, r0
 8003300:	2000      	moveq	r0, #0
 8003302:	2005      	movne	r0, #5
			*dataPtr = *dataPtr = &((&ENCODER_M1)->_Super.wMecAngle);
			 break;
          }
		  default:
		  {
			*dataPtr = &nullData16;
 8003304:	600a      	str	r2, [r1, #0]
    }
#ifdef NULL_PTR_CHECK_REG_INT
  }
#endif
  return (retVal);
}
 8003306:	4770      	bx	lr
    switch (typeID)
 8003308:	4a4b      	ldr	r2, [pc, #300]	@ (8003438 <RI_GetPtrReg+0x158>)
			*dataPtr = &nullData16;
 800330a:	600a      	str	r2, [r1, #0]
			retVal = MCP_ERROR_UNKNOWN_REG;
 800330c:	2005      	movs	r0, #5
}
 800330e:	4770      	bx	lr
        switch (regID)
 8003310:	f5b3 6f21 	cmp.w	r3, #2576	@ 0xa10
 8003314:	d07b      	beq.n	800340e <RI_GetPtrReg+0x12e>
 8003316:	d811      	bhi.n	800333c <RI_GetPtrReg+0x5c>
 8003318:	f5b3 6f0d 	cmp.w	r3, #2256	@ 0x8d0
 800331c:	f000 8081 	beq.w	8003422 <RI_GetPtrReg+0x142>
 8003320:	d928      	bls.n	8003374 <RI_GetPtrReg+0x94>
 8003322:	f5b3 6f19 	cmp.w	r3, #2448	@ 0x990
 8003326:	f000 8081 	beq.w	800342c <RI_GetPtrReg+0x14c>
 800332a:	d943      	bls.n	80033b4 <RI_GetPtrReg+0xd4>
 800332c:	f5b3 6f1d 	cmp.w	r3, #2512	@ 0x9d0
 8003330:	d1ea      	bne.n	8003308 <RI_GetPtrReg+0x28>
            *dataPtr = &(pMCIN->pFOCVars->Vqd.q);
 8003332:	4b43      	ldr	r3, [pc, #268]	@ (8003440 <RI_GetPtrReg+0x160>)
 8003334:	685a      	ldr	r2, [r3, #4]
  uint8_t retVal = MCP_CMD_OK;
 8003336:	2000      	movs	r0, #0
            *dataPtr = &(pMCIN->pFOCVars->Vqd.q);
 8003338:	3216      	adds	r2, #22
            break;
 800333a:	e7e3      	b.n	8003304 <RI_GetPtrReg+0x24>
 800333c:	f5b3 6f4d 	cmp.w	r3, #3280	@ 0xcd0
 8003340:	d062      	beq.n	8003408 <RI_GetPtrReg+0x128>
 8003342:	d909      	bls.n	8003358 <RI_GetPtrReg+0x78>
 8003344:	f5b3 6f5d 	cmp.w	r3, #3536	@ 0xdd0
 8003348:	d04a      	beq.n	80033e0 <RI_GetPtrReg+0x100>
 800334a:	f5b3 6f61 	cmp.w	r3, #3600	@ 0xe10
 800334e:	d11d      	bne.n	800338c <RI_GetPtrReg+0xac>
 8003350:	4a3c      	ldr	r2, [pc, #240]	@ (8003444 <RI_GetPtrReg+0x164>)
			*dataPtr = &nullData16;
 8003352:	600a      	str	r2, [r1, #0]
  uint8_t retVal = MCP_CMD_OK;
 8003354:	2000      	movs	r0, #0
}
 8003356:	4770      	bx	lr
 8003358:	f5b3 6f2d 	cmp.w	r3, #2768	@ 0xad0
 800335c:	d043      	beq.n	80033e6 <RI_GetPtrReg+0x106>
 800335e:	d934      	bls.n	80033ca <RI_GetPtrReg+0xea>
 8003360:	4835      	ldr	r0, [pc, #212]	@ (8003438 <RI_GetPtrReg+0x158>)
 8003362:	4a39      	ldr	r2, [pc, #228]	@ (8003448 <RI_GetPtrReg+0x168>)
 8003364:	f5b3 6f31 	cmp.w	r3, #2832	@ 0xb10
 8003368:	bf16      	itet	ne
 800336a:	4602      	movne	r2, r0
 800336c:	2000      	moveq	r0, #0
 800336e:	2005      	movne	r0, #5
			*dataPtr = &nullData16;
 8003370:	600a      	str	r2, [r1, #0]
}
 8003372:	4770      	bx	lr
 8003374:	f5b3 6f05 	cmp.w	r3, #2128	@ 0x850
 8003378:	d04e      	beq.n	8003418 <RI_GetPtrReg+0x138>
 800337a:	d910      	bls.n	800339e <RI_GetPtrReg+0xbe>
 800337c:	f5b3 6f09 	cmp.w	r3, #2192	@ 0x890
 8003380:	d1c2      	bne.n	8003308 <RI_GetPtrReg+0x28>
            *dataPtr = &(pMCIN->pFOCVars->Ialphabeta.beta);
 8003382:	4b2f      	ldr	r3, [pc, #188]	@ (8003440 <RI_GetPtrReg+0x160>)
 8003384:	685a      	ldr	r2, [r3, #4]
  uint8_t retVal = MCP_CMD_OK;
 8003386:	2000      	movs	r0, #0
            *dataPtr = &(pMCIN->pFOCVars->Ialphabeta.beta);
 8003388:	3206      	adds	r2, #6
            break;
 800338a:	e7bb      	b.n	8003304 <RI_GetPtrReg+0x24>
 800338c:	482a      	ldr	r0, [pc, #168]	@ (8003438 <RI_GetPtrReg+0x158>)
 800338e:	4a2f      	ldr	r2, [pc, #188]	@ (800344c <RI_GetPtrReg+0x16c>)
 8003390:	f5b3 6f51 	cmp.w	r3, #3344	@ 0xd10
 8003394:	bf16      	itet	ne
 8003396:	4602      	movne	r2, r0
 8003398:	2000      	moveq	r0, #0
 800339a:	2005      	movne	r0, #5
 800339c:	e7b2      	b.n	8003304 <RI_GetPtrReg+0x24>
 800339e:	f5b3 6ffa 	cmp.w	r3, #2000	@ 0x7d0
 80033a2:	d028      	beq.n	80033f6 <RI_GetPtrReg+0x116>
 80033a4:	f5b3 6f01 	cmp.w	r3, #2064	@ 0x810
 80033a8:	d1ae      	bne.n	8003308 <RI_GetPtrReg+0x28>
            *dataPtr = &(pMCIN->pFOCVars->Iab.b);
 80033aa:	4b25      	ldr	r3, [pc, #148]	@ (8003440 <RI_GetPtrReg+0x160>)
 80033ac:	685a      	ldr	r2, [r3, #4]
  uint8_t retVal = MCP_CMD_OK;
 80033ae:	2000      	movs	r0, #0
            *dataPtr = &(pMCIN->pFOCVars->Iab.b);
 80033b0:	3202      	adds	r2, #2
            break;
 80033b2:	e7a7      	b.n	8003304 <RI_GetPtrReg+0x24>
 80033b4:	f5b3 6f11 	cmp.w	r3, #2320	@ 0x910
 80033b8:	d021      	beq.n	80033fe <RI_GetPtrReg+0x11e>
 80033ba:	f5b3 6f15 	cmp.w	r3, #2384	@ 0x950
 80033be:	d1a3      	bne.n	8003308 <RI_GetPtrReg+0x28>
            *dataPtr = &(pMCIN->pFOCVars->Iqdref.q);
 80033c0:	4b1f      	ldr	r3, [pc, #124]	@ (8003440 <RI_GetPtrReg+0x160>)
 80033c2:	685a      	ldr	r2, [r3, #4]
  uint8_t retVal = MCP_CMD_OK;
 80033c4:	2000      	movs	r0, #0
            *dataPtr = &(pMCIN->pFOCVars->Iqdref.q);
 80033c6:	3210      	adds	r2, #16
            break;
 80033c8:	e79c      	b.n	8003304 <RI_GetPtrReg+0x24>
 80033ca:	f5b3 6f25 	cmp.w	r3, #2640	@ 0xa50
 80033ce:	d00d      	beq.n	80033ec <RI_GetPtrReg+0x10c>
 80033d0:	f5b3 6f29 	cmp.w	r3, #2704	@ 0xa90
 80033d4:	d198      	bne.n	8003308 <RI_GetPtrReg+0x28>
            *dataPtr = &(pMCIN->pFOCVars->Valphabeta.beta);
 80033d6:	4b1a      	ldr	r3, [pc, #104]	@ (8003440 <RI_GetPtrReg+0x160>)
 80033d8:	685a      	ldr	r2, [r3, #4]
  uint8_t retVal = MCP_CMD_OK;
 80033da:	2000      	movs	r0, #0
            *dataPtr = &(pMCIN->pFOCVars->Valphabeta.beta);
 80033dc:	321c      	adds	r2, #28
            break;
 80033de:	e791      	b.n	8003304 <RI_GetPtrReg+0x24>
 80033e0:	4a1b      	ldr	r2, [pc, #108]	@ (8003450 <RI_GetPtrReg+0x170>)
  uint8_t retVal = MCP_CMD_OK;
 80033e2:	2000      	movs	r0, #0
 80033e4:	e78e      	b.n	8003304 <RI_GetPtrReg+0x24>
 80033e6:	4a1b      	ldr	r2, [pc, #108]	@ (8003454 <RI_GetPtrReg+0x174>)
 80033e8:	2000      	movs	r0, #0
 80033ea:	e78b      	b.n	8003304 <RI_GetPtrReg+0x24>
            *dataPtr = &(pMCIN->pFOCVars->Valphabeta.alpha);
 80033ec:	4b14      	ldr	r3, [pc, #80]	@ (8003440 <RI_GetPtrReg+0x160>)
 80033ee:	685a      	ldr	r2, [r3, #4]
  uint8_t retVal = MCP_CMD_OK;
 80033f0:	2000      	movs	r0, #0
            *dataPtr = &(pMCIN->pFOCVars->Valphabeta.alpha);
 80033f2:	321a      	adds	r2, #26
            break;
 80033f4:	e786      	b.n	8003304 <RI_GetPtrReg+0x24>
            *dataPtr = &(pMCIN->pFOCVars->Iab.a);
 80033f6:	4b12      	ldr	r3, [pc, #72]	@ (8003440 <RI_GetPtrReg+0x160>)
  uint8_t retVal = MCP_CMD_OK;
 80033f8:	2000      	movs	r0, #0
            *dataPtr = &(pMCIN->pFOCVars->Iab.a);
 80033fa:	685a      	ldr	r2, [r3, #4]
             break;
 80033fc:	e782      	b.n	8003304 <RI_GetPtrReg+0x24>
            *dataPtr = &(pMCIN->pFOCVars->Iqd.d);
 80033fe:	4b10      	ldr	r3, [pc, #64]	@ (8003440 <RI_GetPtrReg+0x160>)
 8003400:	685a      	ldr	r2, [r3, #4]
  uint8_t retVal = MCP_CMD_OK;
 8003402:	2000      	movs	r0, #0
            *dataPtr = &(pMCIN->pFOCVars->Iqd.d);
 8003404:	320e      	adds	r2, #14
            break;
 8003406:	e77d      	b.n	8003304 <RI_GetPtrReg+0x24>
 8003408:	4a13      	ldr	r2, [pc, #76]	@ (8003458 <RI_GetPtrReg+0x178>)
  uint8_t retVal = MCP_CMD_OK;
 800340a:	2000      	movs	r0, #0
 800340c:	e77a      	b.n	8003304 <RI_GetPtrReg+0x24>
            *dataPtr = &(pMCIN->pFOCVars->Vqd.d);
 800340e:	4b0c      	ldr	r3, [pc, #48]	@ (8003440 <RI_GetPtrReg+0x160>)
 8003410:	685a      	ldr	r2, [r3, #4]
  uint8_t retVal = MCP_CMD_OK;
 8003412:	2000      	movs	r0, #0
            *dataPtr = &(pMCIN->pFOCVars->Vqd.d);
 8003414:	3218      	adds	r2, #24
            break;
 8003416:	e775      	b.n	8003304 <RI_GetPtrReg+0x24>
            *dataPtr = &(pMCIN->pFOCVars->Ialphabeta.alpha);
 8003418:	4b09      	ldr	r3, [pc, #36]	@ (8003440 <RI_GetPtrReg+0x160>)
 800341a:	685a      	ldr	r2, [r3, #4]
  uint8_t retVal = MCP_CMD_OK;
 800341c:	2000      	movs	r0, #0
            *dataPtr = &(pMCIN->pFOCVars->Ialphabeta.alpha);
 800341e:	3204      	adds	r2, #4
            break;
 8003420:	e770      	b.n	8003304 <RI_GetPtrReg+0x24>
            *dataPtr = &(pMCIN->pFOCVars->Iqd.q);
 8003422:	4b07      	ldr	r3, [pc, #28]	@ (8003440 <RI_GetPtrReg+0x160>)
 8003424:	685a      	ldr	r2, [r3, #4]
  uint8_t retVal = MCP_CMD_OK;
 8003426:	2000      	movs	r0, #0
            *dataPtr = &(pMCIN->pFOCVars->Iqd.q);
 8003428:	320c      	adds	r2, #12
            break;
 800342a:	e76b      	b.n	8003304 <RI_GetPtrReg+0x24>
            *dataPtr = &(pMCIN->pFOCVars->Iqdref.d);
 800342c:	4b04      	ldr	r3, [pc, #16]	@ (8003440 <RI_GetPtrReg+0x160>)
 800342e:	685a      	ldr	r2, [r3, #4]
  uint8_t retVal = MCP_CMD_OK;
 8003430:	2000      	movs	r0, #0
            *dataPtr = &(pMCIN->pFOCVars->Iqdref.d);
 8003432:	3212      	adds	r2, #18
            break;
 8003434:	e766      	b.n	8003304 <RI_GetPtrReg+0x24>
 8003436:	bf00      	nop
 8003438:	2000192c 	.word	0x2000192c
 800343c:	20000098 	.word	0x20000098
 8003440:	20000728 	.word	0x20000728
 8003444:	20000156 	.word	0x20000156
 8003448:	2000009c 	.word	0x2000009c
 800344c:	2000011c 	.word	0x2000011c
 8003450:	20000154 	.word	0x20000154
 8003454:	20000094 	.word	0x20000094
 8003458:	20000114 	.word	0x20000114

0800345c <RCM_RegisterRegConv>:

    /* Parse the array to be sure that same
     * conversion does not already exist*/
    while (i < RCM_MAX_CONV)
    {
      if ((0 == RCM_handle_array [i]) && (handle > RCM_MAX_CONV))
 800345c:	4a6c      	ldr	r2, [pc, #432]	@ (8003610 <RCM_RegisterRegConv+0x1b4>)
 800345e:	6813      	ldr	r3, [r2, #0]
{
 8003460:	b530      	push	{r4, r5, lr}
      if ((0 == RCM_handle_array [i]) && (handle > RCM_MAX_CONV))
 8003462:	2b00      	cmp	r3, #0
 8003464:	d036      	beq.n	80034d4 <RCM_RegisterRegConv+0x78>
        /* Nothing to do */
      }
      /* Ticket 64042 : If RCM_handle_array [i] is null access to data member will cause Memory Fault */
      if (RCM_handle_array [i] != 0)
      {
        if ((RCM_handle_array [i]->channel == regConv->channel)
 8003466:	f890 c004 	ldrb.w	ip, [r0, #4]
 800346a:	7919      	ldrb	r1, [r3, #4]
 800346c:	458c      	cmp	ip, r1
 800346e:	d01e      	beq.n	80034ae <RCM_RegisterRegConv+0x52>
      if ((0 == RCM_handle_array [i]) && (handle > RCM_MAX_CONV))
 8003470:	6854      	ldr	r4, [r2, #4]
 8003472:	2c00      	cmp	r4, #0
 8003474:	f000 80ab 	beq.w	80035ce <RCM_RegisterRegConv+0x172>
        if ((RCM_handle_array [i]->channel == regConv->channel)
 8003478:	7921      	ldrb	r1, [r4, #4]
 800347a:	458c      	cmp	ip, r1
  uint8_t handle = 255U;
 800347c:	f04f 03ff 	mov.w	r3, #255	@ 0xff
        if ((RCM_handle_array [i]->channel == regConv->channel)
 8003480:	d031      	beq.n	80034e6 <RCM_RegisterRegConv+0x8a>
      if ((0 == RCM_handle_array [i]) && (handle > RCM_MAX_CONV))
 8003482:	6895      	ldr	r5, [r2, #8]
 8003484:	2d00      	cmp	r5, #0
 8003486:	f000 808f 	beq.w	80035a8 <RCM_RegisterRegConv+0x14c>
        if ((RCM_handle_array [i]->channel == regConv->channel)
 800348a:	7929      	ldrb	r1, [r5, #4]
 800348c:	4561      	cmp	r1, ip
 800348e:	d030      	beq.n	80034f2 <RCM_RegisterRegConv+0x96>
      if ((0 == RCM_handle_array [i]) && (handle > RCM_MAX_CONV))
 8003490:	68d4      	ldr	r4, [r2, #12]
 8003492:	2c00      	cmp	r4, #0
 8003494:	f000 8096 	beq.w	80035c4 <RCM_RegisterRegConv+0x168>
        if ((RCM_handle_array [i]->channel == regConv->channel)
 8003498:	7921      	ldrb	r1, [r4, #4]
 800349a:	4561      	cmp	r1, ip
 800349c:	f000 80a3 	beq.w	80035e6 <RCM_RegisterRegConv+0x18a>
      {
        /* Nothing to do */
      }
      i++;
    }
    if (handle < RCM_MAX_CONV)
 80034a0:	2b03      	cmp	r3, #3
 80034a2:	bf88      	it	hi
 80034a4:	23ff      	movhi	r3, #255	@ 0xff
 80034a6:	f240 80aa 	bls.w	80035fe <RCM_RegisterRegConv+0x1a2>
      /* Nothing to do handle is already set to error value : 255 */
    }
#ifdef NULL_PTR_CHECK_REG_CON_MNG
  }
#endif
  regConv->convHandle = handle;
 80034aa:	7303      	strb	r3, [r0, #12]
}
 80034ac:	bd30      	pop	{r4, r5, pc}
         && (RCM_handle_array [i]->regADC == regConv->regADC))
 80034ae:	6801      	ldr	r1, [r0, #0]
 80034b0:	681b      	ldr	r3, [r3, #0]
 80034b2:	4299      	cmp	r1, r3
 80034b4:	d023      	beq.n	80034fe <RCM_RegisterRegConv+0xa2>
      if ((0 == RCM_handle_array [i]) && (handle > RCM_MAX_CONV))
 80034b6:	6854      	ldr	r4, [r2, #4]
 80034b8:	2c00      	cmp	r4, #0
 80034ba:	d1dd      	bne.n	8003478 <RCM_RegisterRegConv+0x1c>
 80034bc:	6895      	ldr	r5, [r2, #8]
      i++;
 80034be:	2301      	movs	r3, #1
      if ((0 == RCM_handle_array [i]) && (handle > RCM_MAX_CONV))
 80034c0:	2d00      	cmp	r5, #0
 80034c2:	d1e2      	bne.n	800348a <RCM_RegisterRegConv+0x2e>
 80034c4:	68d4      	ldr	r4, [r2, #12]
 80034c6:	b1dc      	cbz	r4, 8003500 <RCM_RegisterRegConv+0xa4>
        if ((RCM_handle_array [i]->channel == regConv->channel)
 80034c8:	f894 c004 	ldrb.w	ip, [r4, #4]
 80034cc:	7905      	ldrb	r5, [r0, #4]
 80034ce:	45ac      	cmp	ip, r5
 80034d0:	d116      	bne.n	8003500 <RCM_RegisterRegConv+0xa4>
 80034d2:	e089      	b.n	80035e8 <RCM_RegisterRegConv+0x18c>
      if ((0 == RCM_handle_array [i]) && (handle > RCM_MAX_CONV))
 80034d4:	6854      	ldr	r4, [r2, #4]
 80034d6:	2c00      	cmp	r4, #0
 80034d8:	f000 808b 	beq.w	80035f2 <RCM_RegisterRegConv+0x196>
 80034dc:	f890 c004 	ldrb.w	ip, [r0, #4]
        if ((RCM_handle_array [i]->channel == regConv->channel)
 80034e0:	7921      	ldrb	r1, [r4, #4]
 80034e2:	458c      	cmp	ip, r1
 80034e4:	d1cd      	bne.n	8003482 <RCM_RegisterRegConv+0x26>
         && (RCM_handle_array [i]->regADC == regConv->regADC))
 80034e6:	6824      	ldr	r4, [r4, #0]
 80034e8:	6801      	ldr	r1, [r0, #0]
 80034ea:	42a1      	cmp	r1, r4
 80034ec:	d1c9      	bne.n	8003482 <RCM_RegisterRegConv+0x26>
      i++;
 80034ee:	2301      	movs	r3, #1
 80034f0:	e006      	b.n	8003500 <RCM_RegisterRegConv+0xa4>
         && (RCM_handle_array [i]->regADC == regConv->regADC))
 80034f2:	682c      	ldr	r4, [r5, #0]
 80034f4:	6801      	ldr	r1, [r0, #0]
 80034f6:	428c      	cmp	r4, r1
 80034f8:	d1ca      	bne.n	8003490 <RCM_RegisterRegConv+0x34>
      i++;
 80034fa:	2302      	movs	r3, #2
 80034fc:	e000      	b.n	8003500 <RCM_RegisterRegConv+0xa4>
    uint8_t i = 0;
 80034fe:	2300      	movs	r3, #0
      RCM_handle_array [handle] = regConv;
 8003500:	f842 0023 	str.w	r0, [r2, r3, lsl #2]
  * @param  ADCx ADC instance
  * @retval 0: ADC is disabled, 1: ADC is enabled.
  */
__STATIC_INLINE uint32_t LL_ADC_IsEnabled(ADC_TypeDef *ADCx)
{
  return (READ_BIT(ADCx->CR2, ADC_CR2_ADON) == (ADC_CR2_ADON));
 8003504:	688a      	ldr	r2, [r1, #8]
      RCM_CB_array [handle].cb = NULL; /* If a previous callback was attached, it is cleared */
 8003506:	4c43      	ldr	r4, [pc, #268]	@ (8003614 <RCM_RegisterRegConv+0x1b8>)
 8003508:	2500      	movs	r5, #0
      if (0U == LL_ADC_IsEnabled(regConv->regADC))
 800350a:	07d2      	lsls	r2, r2, #31
      RCM_CB_array [handle].cb = NULL; /* If a previous callback was attached, it is cleared */
 800350c:	f844 5033 	str.w	r5, [r4, r3, lsl #3]
      if (0U == LL_ADC_IsEnabled(regConv->regADC))
 8003510:	d411      	bmi.n	8003536 <RCM_RegisterRegConv+0xda>
  * @param  ADCx ADC instance
  * @retval None
  */
__STATIC_INLINE void LL_ADC_DisableIT_EOCS(ADC_TypeDef *ADCx)
{
  CLEAR_BIT(ADCx->CR1, LL_ADC_IT_EOCS);
 8003512:	684a      	ldr	r2, [r1, #4]
  WRITE_REG(ADCx->SR, ~LL_ADC_FLAG_EOCS);
 8003514:	f06f 0402 	mvn.w	r4, #2
  CLEAR_BIT(ADCx->CR1, LL_ADC_IT_EOCS);
 8003518:	f022 0220 	bic.w	r2, r2, #32
 800351c:	604a      	str	r2, [r1, #4]
  WRITE_REG(ADCx->SR, ~LL_ADC_FLAG_EOCS);
 800351e:	600c      	str	r4, [r1, #0]
{
  /* Note: on this STM32 series, there is no flag ADC group injected          */
  /*       end of unitary conversion.                                         */
  /*       Flag noted as "JEOC" is corresponding to flag "JEOS"               */
  /*       in other STM32 families).                                          */
  CLEAR_BIT(ADCx->CR1, LL_ADC_IT_JEOS);
 8003520:	684a      	ldr	r2, [r1, #4]
  WRITE_REG(ADCx->SR, ~LL_ADC_FLAG_JEOS);
 8003522:	f06f 0404 	mvn.w	r4, #4
  CLEAR_BIT(ADCx->CR1, LL_ADC_IT_JEOS);
 8003526:	f022 0280 	bic.w	r2, r2, #128	@ 0x80
 800352a:	604a      	str	r2, [r1, #4]
  WRITE_REG(ADCx->SR, ~LL_ADC_FLAG_JEOS);
 800352c:	600c      	str	r4, [r1, #0]
  SET_BIT(ADCx->CR2, ADC_CR2_ADON);
 800352e:	688a      	ldr	r2, [r1, #8]
 8003530:	f042 0201 	orr.w	r2, r2, #1
 8003534:	608a      	str	r2, [r1, #8]
  MODIFY_REG(ADCx->SQR1, ADC_SQR1_L, SequencerNbRanks);
 8003536:	6aca      	ldr	r2, [r1, #44]	@ 0x2c
 8003538:	f422 0270 	bic.w	r2, r2, #15728640	@ 0xf00000
 800353c:	62ca      	str	r2, [r1, #44]	@ 0x2c
      LL_ADC_SetChannelSamplingTime (regConv->regADC, __LL_ADC_DECIMAL_NB_TO_CHANNEL(regConv->channel),
 800353e:	7902      	ldrb	r2, [r0, #4]
 8003540:	2a09      	cmp	r2, #9
 8003542:	eb02 0442 	add.w	r4, r2, r2, lsl #1
 8003546:	d829      	bhi.n	800359c <RCM_RegisterRegConv+0x140>
 8003548:	ea42 5204 	orr.w	r2, r2, r4, lsl #20
 800354c:	f042 7200 	orr.w	r2, r2, #33554432	@ 0x2000000
 8003550:	f04f 7400 	mov.w	r4, #33554432	@ 0x2000000
   __ASM ("rbit %0, %1" : "=r" (result) : "r" (value) );
 8003554:	f04f 7c00 	mov.w	ip, #33554432	@ 0x2000000
 8003558:	fa9c fcac 	rbit	ip, ip
 800355c:	fabc fc8c 	clz	ip, ip
  MODIFY_REG(*preg,
 8003560:	6885      	ldr	r5, [r0, #8]
  __IO uint32_t *preg = __ADC_PTR_REG_OFFSET(ADCx->SMPR1, __ADC_MASK_SHIFT(Channel, ADC_CHANNEL_SMPRX_REGOFFSET_MASK));
 8003562:	fa24 f40c 	lsr.w	r4, r4, ip
 8003566:	310c      	adds	r1, #12
  MODIFY_REG(*preg,
 8003568:	f002 72f8 	and.w	r2, r2, #32505856	@ 0x1f00000
 800356c:	f04f 7cf8 	mov.w	ip, #32505856	@ 0x1f00000
 8003570:	fa9c fcac 	rbit	ip, ip
  return result;
 8003574:	fabc fc8c 	clz	ip, ip
 8003578:	fa22 f20c 	lsr.w	r2, r2, ip
 800357c:	fa05 fc02 	lsl.w	ip, r5, r2
 8003580:	f04f 0e07 	mov.w	lr, #7
 8003584:	f851 5024 	ldr.w	r5, [r1, r4, lsl #2]
 8003588:	fa0e f202 	lsl.w	r2, lr, r2
 800358c:	ea25 0202 	bic.w	r2, r5, r2
 8003590:	ea4c 0202 	orr.w	r2, ip, r2
 8003594:	f841 2024 	str.w	r2, [r1, r4, lsl #2]
  regConv->convHandle = handle;
 8003598:	7303      	strb	r3, [r0, #12]
}
 800359a:	bd30      	pop	{r4, r5, pc}
      LL_ADC_SetChannelSamplingTime (regConv->regADC, __LL_ADC_DECIMAL_NB_TO_CHANNEL(regConv->channel),
 800359c:	3c1e      	subs	r4, #30
 800359e:	ea42 5204 	orr.w	r2, r2, r4, lsl #20
  __IO uint32_t *preg = __ADC_PTR_REG_OFFSET(ADCx->SMPR1, __ADC_MASK_SHIFT(Channel, ADC_CHANNEL_SMPRX_REGOFFSET_MASK));
 80035a2:	f002 7400 	and.w	r4, r2, #33554432	@ 0x2000000
 80035a6:	e7d5      	b.n	8003554 <RCM_RegisterRegConv+0xf8>
      if ((0 == RCM_handle_array [i]) && (handle > RCM_MAX_CONV))
 80035a8:	2b04      	cmp	r3, #4
 80035aa:	d92a      	bls.n	8003602 <RCM_RegisterRegConv+0x1a6>
 80035ac:	68d3      	ldr	r3, [r2, #12]
 80035ae:	b353      	cbz	r3, 8003606 <RCM_RegisterRegConv+0x1aa>
        if ((RCM_handle_array [i]->channel == regConv->channel)
 80035b0:	7919      	ldrb	r1, [r3, #4]
 80035b2:	4561      	cmp	r1, ip
         && (RCM_handle_array [i]->regADC == regConv->regADC))
 80035b4:	6801      	ldr	r1, [r0, #0]
        if ((RCM_handle_array [i]->channel == regConv->channel)
 80035b6:	d1a0      	bne.n	80034fa <RCM_RegisterRegConv+0x9e>
         && (RCM_handle_array [i]->regADC == regConv->regADC))
 80035b8:	681b      	ldr	r3, [r3, #0]
      i++;
 80035ba:	4299      	cmp	r1, r3
 80035bc:	bf0c      	ite	eq
 80035be:	2303      	moveq	r3, #3
 80035c0:	2302      	movne	r3, #2
 80035c2:	e79d      	b.n	8003500 <RCM_RegisterRegConv+0xa4>
      if ((0 == RCM_handle_array [i]) && (handle > RCM_MAX_CONV))
 80035c4:	2b04      	cmp	r3, #4
 80035c6:	6801      	ldr	r1, [r0, #0]
 80035c8:	d99a      	bls.n	8003500 <RCM_RegisterRegConv+0xa4>
 80035ca:	2303      	movs	r3, #3
 80035cc:	e798      	b.n	8003500 <RCM_RegisterRegConv+0xa4>
 80035ce:	6895      	ldr	r5, [r2, #8]
      i++;
 80035d0:	2301      	movs	r3, #1
      if ((0 == RCM_handle_array [i]) && (handle > RCM_MAX_CONV))
 80035d2:	2d00      	cmp	r5, #0
 80035d4:	f47f af59 	bne.w	800348a <RCM_RegisterRegConv+0x2e>
 80035d8:	68d4      	ldr	r4, [r2, #12]
 80035da:	b184      	cbz	r4, 80035fe <RCM_RegisterRegConv+0x1a2>
        if ((RCM_handle_array [i]->channel == regConv->channel)
 80035dc:	7921      	ldrb	r1, [r4, #4]
 80035de:	4561      	cmp	r1, ip
 80035e0:	6801      	ldr	r1, [r0, #0]
 80035e2:	d18d      	bne.n	8003500 <RCM_RegisterRegConv+0xa4>
 80035e4:	e000      	b.n	80035e8 <RCM_RegisterRegConv+0x18c>
 80035e6:	6801      	ldr	r1, [r0, #0]
         && (RCM_handle_array [i]->regADC == regConv->regADC))
 80035e8:	6824      	ldr	r4, [r4, #0]
 80035ea:	428c      	cmp	r4, r1
 80035ec:	f47f af58 	bne.w	80034a0 <RCM_RegisterRegConv+0x44>
 80035f0:	e7eb      	b.n	80035ca <RCM_RegisterRegConv+0x16e>
      if ((0 == RCM_handle_array [i]) && (handle > RCM_MAX_CONV))
 80035f2:	6895      	ldr	r5, [r2, #8]
 80035f4:	b14d      	cbz	r5, 800360a <RCM_RegisterRegConv+0x1ae>
 80035f6:	f890 c004 	ldrb.w	ip, [r0, #4]
    uint8_t i = 0;
 80035fa:	4623      	mov	r3, r4
 80035fc:	e745      	b.n	800348a <RCM_RegisterRegConv+0x2e>
 80035fe:	6801      	ldr	r1, [r0, #0]
 8003600:	e77e      	b.n	8003500 <RCM_RegisterRegConv+0xa4>
      if ((0 == RCM_handle_array [i]) && (handle > RCM_MAX_CONV))
 8003602:	462b      	mov	r3, r5
 8003604:	e7e8      	b.n	80035d8 <RCM_RegisterRegConv+0x17c>
 8003606:	6801      	ldr	r1, [r0, #0]
 8003608:	e777      	b.n	80034fa <RCM_RegisterRegConv+0x9e>
 800360a:	6801      	ldr	r1, [r0, #0]
    uint8_t i = 0;
 800360c:	462b      	mov	r3, r5
 800360e:	e759      	b.n	80034c4 <RCM_RegisterRegConv+0x68>
 8003610:	20001958 	.word	0x20001958
 8003614:	20001938 	.word	0x20001938

08003618 <RCM_ExecRegularConv>:
 */
uint16_t RCM_ExecRegularConv (RegConv_t *regConv)
{
  uint16_t retVal;
  uint8_t handle = regConv->convHandle;
  LL_ADC_REG_SetSequencerRanks(RCM_handle_array[handle]->regADC,
 8003618:	4b1a      	ldr	r3, [pc, #104]	@ (8003684 <RCM_ExecRegularConv+0x6c>)
 800361a:	7b02      	ldrb	r2, [r0, #12]
 800361c:	f853 2022 	ldr.w	r2, [r3, r2, lsl #2]
                               LL_ADC_REG_RANK_1,
                               __LL_ADC_DECIMAL_NB_TO_CHANNEL(RCM_handle_array[handle]->channel));
 8003620:	7913      	ldrb	r3, [r2, #4]
  LL_ADC_REG_SetSequencerRanks(RCM_handle_array[handle]->regADC,
 8003622:	6812      	ldr	r2, [r2, #0]
                               __LL_ADC_DECIMAL_NB_TO_CHANNEL(RCM_handle_array[handle]->channel));
 8003624:	eb03 0143 	add.w	r1, r3, r3, lsl #1
  LL_ADC_REG_SetSequencerRanks(RCM_handle_array[handle]->regADC,
 8003628:	2b09      	cmp	r3, #9
                               __LL_ADC_DECIMAL_NB_TO_CHANNEL(RCM_handle_array[handle]->channel));
 800362a:	bf93      	iteet	ls
 800362c:	ea43 5301 	orrls.w	r3, r3, r1, lsl #20
 8003630:	391e      	subhi	r1, #30
  LL_ADC_REG_SetSequencerRanks(RCM_handle_array[handle]->regADC,
 8003632:	ea43 5301 	orrhi.w	r3, r3, r1, lsl #20
 8003636:	f043 7300 	orrls.w	r3, r3, #33554432	@ 0x2000000
   __ASM ("rbit %0, %1" : "=r" (result) : "r" (value) );
 800363a:	f44f 7140 	mov.w	r1, #768	@ 0x300
  __IO uint32_t *preg = __ADC_PTR_REG_OFFSET(ADCx->SQR1, __ADC_MASK_SHIFT(Rank, ADC_REG_SQRX_REGOFFSET_MASK));
 800363e:	f102 0c2c 	add.w	ip, r2, #44	@ 0x2c
 8003642:	fa91 f1a1 	rbit	r1, r1
  if (value == 0U)
 8003646:	b139      	cbz	r1, 8003658 <RCM_ExecRegularConv+0x40>
  return __builtin_clz(value);
 8003648:	fab1 f181 	clz	r1, r1
 800364c:	f44f 7000 	mov.w	r0, #512	@ 0x200
 8003650:	fa20 f101 	lsr.w	r1, r0, r1
 8003654:	eb0c 0c81 	add.w	ip, ip, r1, lsl #2
  MODIFY_REG(*preg,
 8003658:	f8dc 0000 	ldr.w	r0, [ip]

  (void)LL_ADC_REG_ReadConversionData12(RCM_handle_array[handle]->regADC);

  /* Bit banding access equivalent to LL_ADC_REG_StartConversionSWStart */
  BB_REG_BIT_SET(&RCM_handle_array[handle]->regADC->CR2, ADC_CR2_SWSTART_Pos);
 800365c:	0151      	lsls	r1, r2, #5
 800365e:	f020 001f 	bic.w	r0, r0, #31
 8003662:	f003 031f 	and.w	r3, r3, #31
 8003666:	4303      	orrs	r3, r0
 8003668:	f101 4184 	add.w	r1, r1, #1107296256	@ 0x42000000
 800366c:	f8cc 3000 	str.w	r3, [ip]
 8003670:	2301      	movs	r3, #1
  return (uint16_t)(READ_BIT(ADCx->DR, ADC_DR_DATA));
 8003672:	6cd0      	ldr	r0, [r2, #76]	@ 0x4c
 8003674:	f8c1 3178 	str.w	r3, [r1, #376]	@ 0x178
  return (READ_BIT(ADCx->SR, LL_ADC_FLAG_EOCS) == (LL_ADC_FLAG_EOCS));
 8003678:	6813      	ldr	r3, [r2, #0]
  /* Wait until end of regular conversion */
  while (LL_ADC_IsActiveFlag_EOCS(RCM_handle_array[handle]->regADC) == 0u)
 800367a:	079b      	lsls	r3, r3, #30
 800367c:	d5fc      	bpl.n	8003678 <RCM_ExecRegularConv+0x60>
  return (uint16_t)(READ_BIT(ADCx->DR, ADC_DR_DATA));
 800367e:	6cd0      	ldr	r0, [r2, #76]	@ 0x4c
  {
    /* Nothing to do */
  }
  retVal = LL_ADC_REG_ReadConversionData12(RCM_handle_array[handle]->regADC);
  return (retVal);
}
 8003680:	b280      	uxth	r0, r0
 8003682:	4770      	bx	lr
 8003684:	20001958 	.word	0x20001958

08003688 <RCM_ExecUserConv>:
 * NOTE: This function is not part of the public API and users should not call it.
 */
void RCM_ExecUserConv()
{
  uint8_t handle;
  if (RCM_UserConvHandle != NULL)
 8003688:	4b11      	ldr	r3, [pc, #68]	@ (80036d0 <RCM_ExecUserConv+0x48>)
{
 800368a:	e92d 41f0 	stmdb	sp!, {r4, r5, r6, r7, r8, lr}
  if (RCM_UserConvHandle != NULL)
 800368e:	681c      	ldr	r4, [r3, #0]
 8003690:	b124      	cbz	r4, 800369c <RCM_ExecUserConv+0x14>
  {
    handle = RCM_UserConvHandle->convHandle;
    if (RCM_USERCONV_REQUESTED == RCM_UserConvState)
 8003692:	4d10      	ldr	r5, [pc, #64]	@ (80036d4 <RCM_ExecUserConv+0x4c>)
    handle = RCM_UserConvHandle->convHandle;
 8003694:	7b26      	ldrb	r6, [r4, #12]
    if (RCM_USERCONV_REQUESTED == RCM_UserConvState)
 8003696:	782b      	ldrb	r3, [r5, #0]
 8003698:	2b01      	cmp	r3, #1
 800369a:	d001      	beq.n	80036a0 <RCM_ExecUserConv+0x18>
  }
  else
  {
     /* Nothing to do */
  }
}
 800369c:	e8bd 81f0 	ldmia.w	sp!, {r4, r5, r6, r7, r8, pc}
      RCM_UserConvValue = RCM_ExecRegularConv(RCM_UserConvHandle);
 80036a0:	4620      	mov	r0, r4
 80036a2:	f7ff ffb9 	bl	8003618 <RCM_ExecRegularConv>
 80036a6:	4b0c      	ldr	r3, [pc, #48]	@ (80036d8 <RCM_ExecUserConv+0x50>)
 80036a8:	8018      	strh	r0, [r3, #0]
      RCM_UserConvState = RCM_USERCONV_EOC;
 80036aa:	2302      	movs	r3, #2
 80036ac:	702b      	strb	r3, [r5, #0]
      if (RCM_CB_array[handle].cb != NULL)
 80036ae:	4b0b      	ldr	r3, [pc, #44]	@ (80036dc <RCM_ExecUserConv+0x54>)
 80036b0:	f853 7036 	ldr.w	r7, [r3, r6, lsl #3]
      RCM_UserConvValue = RCM_ExecRegularConv(RCM_UserConvHandle);
 80036b4:	4601      	mov	r1, r0
      if (RCM_CB_array[handle].cb != NULL)
 80036b6:	2f00      	cmp	r7, #0
 80036b8:	d0f0      	beq.n	800369c <RCM_ExecUserConv+0x14>
        RCM_CB_array[handle].cb(RCM_UserConvHandle, RCM_UserConvValue,
 80036ba:	eb03 03c6 	add.w	r3, r3, r6, lsl #3
 80036be:	4620      	mov	r0, r4
 80036c0:	685a      	ldr	r2, [r3, #4]
        RCM_UserConvState = RCM_USERCONV_IDLE;
 80036c2:	2300      	movs	r3, #0
 80036c4:	702b      	strb	r3, [r5, #0]
        RCM_CB_array[handle].cb(RCM_UserConvHandle, RCM_UserConvValue,
 80036c6:	463b      	mov	r3, r7
}
 80036c8:	e8bd 41f0 	ldmia.w	sp!, {r4, r5, r6, r7, r8, lr}
        RCM_CB_array[handle].cb(RCM_UserConvHandle, RCM_UserConvValue,
 80036cc:	4718      	bx	r3
 80036ce:	bf00      	nop
 80036d0:	20001930 	.word	0x20001930
 80036d4:	20001934 	.word	0x20001934
 80036d8:	20001936 	.word	0x20001936
 80036dc:	20001938 	.word	0x20001938

080036e0 <HAL_MspInit>:
void HAL_TIM_MspPostInit(TIM_HandleTypeDef *htim);
                    /**
  * Initializes the Global MSP.
  */
void HAL_MspInit(void)
{
 80036e0:	b082      	sub	sp, #8

  /* USER CODE BEGIN MspInit 0 */

  /* USER CODE END MspInit 0 */

  __HAL_RCC_SYSCFG_CLK_ENABLE();
 80036e2:	4b0d      	ldr	r3, [pc, #52]	@ (8003718 <HAL_MspInit+0x38>)
 80036e4:	2100      	movs	r1, #0
 80036e6:	9100      	str	r1, [sp, #0]
 80036e8:	6c5a      	ldr	r2, [r3, #68]	@ 0x44
 80036ea:	f442 4280 	orr.w	r2, r2, #16384	@ 0x4000
 80036ee:	645a      	str	r2, [r3, #68]	@ 0x44
 80036f0:	6c5a      	ldr	r2, [r3, #68]	@ 0x44
 80036f2:	f402 4280 	and.w	r2, r2, #16384	@ 0x4000
 80036f6:	9200      	str	r2, [sp, #0]
 80036f8:	9a00      	ldr	r2, [sp, #0]
  __HAL_RCC_PWR_CLK_ENABLE();
 80036fa:	9101      	str	r1, [sp, #4]
 80036fc:	6c1a      	ldr	r2, [r3, #64]	@ 0x40
 80036fe:	f042 5280 	orr.w	r2, r2, #268435456	@ 0x10000000
 8003702:	641a      	str	r2, [r3, #64]	@ 0x40
 8003704:	6c1b      	ldr	r3, [r3, #64]	@ 0x40
 8003706:	f003 5380 	and.w	r3, r3, #268435456	@ 0x10000000
 800370a:	9301      	str	r3, [sp, #4]
 800370c:	9b01      	ldr	r3, [sp, #4]

  HAL_NVIC_SetPriorityGrouping(NVIC_PRIORITYGROUP_3);
 800370e:	2004      	movs	r0, #4
  /* System interrupt init*/

  /* USER CODE BEGIN MspInit 1 */

  /* USER CODE END MspInit 1 */
}
 8003710:	b002      	add	sp, #8
  HAL_NVIC_SetPriorityGrouping(NVIC_PRIORITYGROUP_3);
 8003712:	f000 bdc7 	b.w	80042a4 <HAL_NVIC_SetPriorityGrouping>
 8003716:	bf00      	nop
 8003718:	40023800 	.word	0x40023800

0800371c <HAL_ADC_MspInit>:
* This function configures the hardware resources used in this example
* @param hadc: ADC handle pointer
* @retval None
*/
void HAL_ADC_MspInit(ADC_HandleTypeDef* hadc)
{
 800371c:	b5d0      	push	{r4, r6, r7, lr}
  GPIO_InitTypeDef GPIO_InitStruct = {0};
  if(hadc->Instance==ADC1)
 800371e:	4b1f      	ldr	r3, [pc, #124]	@ (800379c <HAL_ADC_MspInit+0x80>)
 8003720:	6802      	ldr	r2, [r0, #0]
{
 8003722:	b08a      	sub	sp, #40	@ 0x28
  GPIO_InitTypeDef GPIO_InitStruct = {0};
 8003724:	2400      	movs	r4, #0
  if(hadc->Instance==ADC1)
 8003726:	429a      	cmp	r2, r3
  GPIO_InitTypeDef GPIO_InitStruct = {0};
 8003728:	e9cd 4404 	strd	r4, r4, [sp, #16]
 800372c:	e9cd 4406 	strd	r4, r4, [sp, #24]
 8003730:	9408      	str	r4, [sp, #32]
  if(hadc->Instance==ADC1)
 8003732:	d001      	beq.n	8003738 <HAL_ADC_MspInit+0x1c>
  /* USER CODE BEGIN ADC1_MspInit 1 */

  /* USER CODE END ADC1_MspInit 1 */
  }

}
 8003734:	b00a      	add	sp, #40	@ 0x28
 8003736:	bdd0      	pop	{r4, r6, r7, pc}
    __HAL_RCC_ADC1_CLK_ENABLE();
 8003738:	f503 338c 	add.w	r3, r3, #71680	@ 0x11800
 800373c:	9401      	str	r4, [sp, #4]
 800373e:	6c5a      	ldr	r2, [r3, #68]	@ 0x44
    HAL_GPIO_Init(GPIOC, &GPIO_InitStruct);
 8003740:	4817      	ldr	r0, [pc, #92]	@ (80037a0 <HAL_ADC_MspInit+0x84>)
    __HAL_RCC_ADC1_CLK_ENABLE();
 8003742:	f442 7280 	orr.w	r2, r2, #256	@ 0x100
 8003746:	645a      	str	r2, [r3, #68]	@ 0x44
 8003748:	6c5a      	ldr	r2, [r3, #68]	@ 0x44
 800374a:	f402 7280 	and.w	r2, r2, #256	@ 0x100
 800374e:	9201      	str	r2, [sp, #4]
 8003750:	9a01      	ldr	r2, [sp, #4]
    __HAL_RCC_GPIOC_CLK_ENABLE();
 8003752:	9402      	str	r4, [sp, #8]
 8003754:	6b1a      	ldr	r2, [r3, #48]	@ 0x30
 8003756:	f042 0204 	orr.w	r2, r2, #4
 800375a:	631a      	str	r2, [r3, #48]	@ 0x30
 800375c:	6b1a      	ldr	r2, [r3, #48]	@ 0x30
 800375e:	f002 0204 	and.w	r2, r2, #4
 8003762:	9202      	str	r2, [sp, #8]
 8003764:	9a02      	ldr	r2, [sp, #8]
    __HAL_RCC_GPIOA_CLK_ENABLE();
 8003766:	9403      	str	r4, [sp, #12]
 8003768:	6b1a      	ldr	r2, [r3, #48]	@ 0x30
 800376a:	f042 0201 	orr.w	r2, r2, #1
 800376e:	631a      	str	r2, [r3, #48]	@ 0x30
 8003770:	6b1b      	ldr	r3, [r3, #48]	@ 0x30
 8003772:	f003 0301 	and.w	r3, r3, #1
 8003776:	9303      	str	r3, [sp, #12]
    GPIO_InitStruct.Pin = M1_CURR_AMPL_W_Pin|M1_CURR_AMPL_V_Pin;
 8003778:	2603      	movs	r6, #3
 800377a:	2703      	movs	r7, #3
    HAL_GPIO_Init(GPIOC, &GPIO_InitStruct);
 800377c:	a904      	add	r1, sp, #16
    __HAL_RCC_GPIOA_CLK_ENABLE();
 800377e:	9b03      	ldr	r3, [sp, #12]
    GPIO_InitStruct.Pin = M1_CURR_AMPL_W_Pin|M1_CURR_AMPL_V_Pin;
 8003780:	e9cd 6704 	strd	r6, r7, [sp, #16]
    HAL_GPIO_Init(GPIOC, &GPIO_InitStruct);
 8003784:	f000 fea0 	bl	80044c8 <HAL_GPIO_Init>
    HAL_GPIO_Init(GPIOA, &GPIO_InitStruct);
 8003788:	4806      	ldr	r0, [pc, #24]	@ (80037a4 <HAL_ADC_MspInit+0x88>)
    GPIO_InitStruct.Pull = GPIO_NOPULL;
 800378a:	9406      	str	r4, [sp, #24]
    HAL_GPIO_Init(GPIOA, &GPIO_InitStruct);
 800378c:	a904      	add	r1, sp, #16
    GPIO_InitStruct.Pin = M1_CURR_AMPL_U_Pin|M1_BUS_VOLTAGE_Pin;
 800378e:	e9cd 6704 	strd	r6, r7, [sp, #16]
    HAL_GPIO_Init(GPIOA, &GPIO_InitStruct);
 8003792:	f000 fe99 	bl	80044c8 <HAL_GPIO_Init>
}
 8003796:	b00a      	add	sp, #40	@ 0x28
 8003798:	bdd0      	pop	{r4, r6, r7, pc}
 800379a:	bf00      	nop
 800379c:	40012000 	.word	0x40012000
 80037a0:	40020800 	.word	0x40020800
 80037a4:	40020000 	.word	0x40020000

080037a8 <HAL_TIM_Base_MspInit>:
* @param htim_base: TIM_Base handle pointer
* @retval None
*/
void HAL_TIM_Base_MspInit(TIM_HandleTypeDef* htim_base)
{
  if(htim_base->Instance==TIM1)
 80037a8:	4b0a      	ldr	r3, [pc, #40]	@ (80037d4 <HAL_TIM_Base_MspInit+0x2c>)
 80037aa:	6802      	ldr	r2, [r0, #0]
 80037ac:	429a      	cmp	r2, r3
 80037ae:	d000      	beq.n	80037b2 <HAL_TIM_Base_MspInit+0xa>
 80037b0:	4770      	bx	lr
{
 80037b2:	b082      	sub	sp, #8
  {
  /* USER CODE BEGIN TIM1_MspInit 0 */

  /* USER CODE END TIM1_MspInit 0 */
    /* Peripheral clock enable */
    __HAL_RCC_TIM1_CLK_ENABLE();
 80037b4:	f503 339c 	add.w	r3, r3, #79872	@ 0x13800
 80037b8:	2200      	movs	r2, #0
 80037ba:	9201      	str	r2, [sp, #4]
 80037bc:	6c5a      	ldr	r2, [r3, #68]	@ 0x44
 80037be:	f042 0201 	orr.w	r2, r2, #1
 80037c2:	645a      	str	r2, [r3, #68]	@ 0x44
 80037c4:	6c5b      	ldr	r3, [r3, #68]	@ 0x44
 80037c6:	f003 0301 	and.w	r3, r3, #1
 80037ca:	9301      	str	r3, [sp, #4]
 80037cc:	9b01      	ldr	r3, [sp, #4]
  /* USER CODE BEGIN TIM1_MspInit 1 */

  /* USER CODE END TIM1_MspInit 1 */
  }

}
 80037ce:	b002      	add	sp, #8
 80037d0:	4770      	bx	lr
 80037d2:	bf00      	nop
 80037d4:	40010000 	.word	0x40010000

080037d8 <HAL_TIM_Encoder_MspInit>:
* This function configures the hardware resources used in this example
* @param htim_encoder: TIM_Encoder handle pointer
* @retval None
*/
void HAL_TIM_Encoder_MspInit(TIM_HandleTypeDef* htim_encoder)
{
 80037d8:	b500      	push	{lr}
  GPIO_InitTypeDef GPIO_InitStruct = {0};
  if(htim_encoder->Instance==TIM2)
 80037da:	6802      	ldr	r2, [r0, #0]
{
 80037dc:	b089      	sub	sp, #36	@ 0x24
  GPIO_InitTypeDef GPIO_InitStruct = {0};
 80037de:	2300      	movs	r3, #0
  if(htim_encoder->Instance==TIM2)
 80037e0:	f1b2 4f80 	cmp.w	r2, #1073741824	@ 0x40000000
  GPIO_InitTypeDef GPIO_InitStruct = {0};
 80037e4:	e9cd 3302 	strd	r3, r3, [sp, #8]
 80037e8:	e9cd 3304 	strd	r3, r3, [sp, #16]
 80037ec:	9306      	str	r3, [sp, #24]
  if(htim_encoder->Instance==TIM2)
 80037ee:	d002      	beq.n	80037f6 <HAL_TIM_Encoder_MspInit+0x1e>
  /* USER CODE BEGIN TIM2_MspInit 1 */

  /* USER CODE END TIM2_MspInit 1 */
  }

}
 80037f0:	b009      	add	sp, #36	@ 0x24
 80037f2:	f85d fb04 	ldr.w	pc, [sp], #4
    __HAL_RCC_TIM2_CLK_ENABLE();
 80037f6:	f502 320e 	add.w	r2, r2, #145408	@ 0x23800
 80037fa:	9300      	str	r3, [sp, #0]
 80037fc:	6c10      	ldr	r0, [r2, #64]	@ 0x40
 80037fe:	f040 0001 	orr.w	r0, r0, #1
 8003802:	6410      	str	r0, [r2, #64]	@ 0x40
 8003804:	6c10      	ldr	r0, [r2, #64]	@ 0x40
 8003806:	f000 0001 	and.w	r0, r0, #1
 800380a:	9000      	str	r0, [sp, #0]
 800380c:	9800      	ldr	r0, [sp, #0]
    __HAL_RCC_GPIOB_CLK_ENABLE();
 800380e:	9301      	str	r3, [sp, #4]
 8003810:	6b13      	ldr	r3, [r2, #48]	@ 0x30
    HAL_GPIO_Init(GPIOB, &GPIO_InitStruct);
 8003812:	480d      	ldr	r0, [pc, #52]	@ (8003848 <HAL_TIM_Encoder_MspInit+0x70>)
    __HAL_RCC_GPIOB_CLK_ENABLE();
 8003814:	f043 0302 	orr.w	r3, r3, #2
 8003818:	6313      	str	r3, [r2, #48]	@ 0x30
 800381a:	6b13      	ldr	r3, [r2, #48]	@ 0x30
    GPIO_InitStruct.Pin = M1_ENCODER_A_Pin|M1_ENCODER_B_Pin;
 800381c:	ed9f 7b08 	vldr	d7, [pc, #32]	@ 8003840 <HAL_TIM_Encoder_MspInit+0x68>
    __HAL_RCC_GPIOB_CLK_ENABLE();
 8003820:	f003 0302 	and.w	r3, r3, #2
 8003824:	9301      	str	r3, [sp, #4]
    HAL_GPIO_Init(GPIOB, &GPIO_InitStruct);
 8003826:	a902      	add	r1, sp, #8
    GPIO_InitStruct.Alternate = GPIO_AF1_TIM2;
 8003828:	2301      	movs	r3, #1
    GPIO_InitStruct.Pin = M1_ENCODER_A_Pin|M1_ENCODER_B_Pin;
 800382a:	ed8d 7b02 	vstr	d7, [sp, #8]
    __HAL_RCC_GPIOB_CLK_ENABLE();
 800382e:	9a01      	ldr	r2, [sp, #4]
    GPIO_InitStruct.Alternate = GPIO_AF1_TIM2;
 8003830:	9306      	str	r3, [sp, #24]
    HAL_GPIO_Init(GPIOB, &GPIO_InitStruct);
 8003832:	f000 fe49 	bl	80044c8 <HAL_GPIO_Init>
}
 8003836:	b009      	add	sp, #36	@ 0x24
 8003838:	f85d fb04 	ldr.w	pc, [sp], #4
 800383c:	f3af 8000 	nop.w
 8003840:	00000300 	.word	0x00000300
 8003844:	00000002 	.word	0x00000002
 8003848:	40020400 	.word	0x40020400

0800384c <HAL_TIM_MspPostInit>:

void HAL_TIM_MspPostInit(TIM_HandleTypeDef* htim)
{
 800384c:	b5d0      	push	{r4, r6, r7, lr}
  GPIO_InitTypeDef GPIO_InitStruct = {0};
  if(htim->Instance==TIM1)
 800384e:	4a1f      	ldr	r2, [pc, #124]	@ (80038cc <HAL_TIM_MspPostInit+0x80>)
 8003850:	6801      	ldr	r1, [r0, #0]
{
 8003852:	b088      	sub	sp, #32
  GPIO_InitTypeDef GPIO_InitStruct = {0};
 8003854:	2300      	movs	r3, #0
  if(htim->Instance==TIM1)
 8003856:	4291      	cmp	r1, r2
  GPIO_InitTypeDef GPIO_InitStruct = {0};
 8003858:	e9cd 3302 	strd	r3, r3, [sp, #8]
 800385c:	e9cd 3304 	strd	r3, r3, [sp, #16]
 8003860:	9306      	str	r3, [sp, #24]
  if(htim->Instance==TIM1)
 8003862:	d001      	beq.n	8003868 <HAL_TIM_MspPostInit+0x1c>
  /* USER CODE BEGIN TIM1_MspPostInit 1 */

  /* USER CODE END TIM1_MspPostInit 1 */
  }

}
 8003864:	b008      	add	sp, #32
 8003866:	bdd0      	pop	{r4, r6, r7, pc}
    __HAL_RCC_GPIOB_CLK_ENABLE();
 8003868:	f502 329c 	add.w	r2, r2, #79872	@ 0x13800
 800386c:	9300      	str	r3, [sp, #0]
 800386e:	6b11      	ldr	r1, [r2, #48]	@ 0x30
    HAL_GPIO_Init(GPIOB, &GPIO_InitStruct);
 8003870:	4817      	ldr	r0, [pc, #92]	@ (80038d0 <HAL_TIM_MspPostInit+0x84>)
    __HAL_RCC_GPIOB_CLK_ENABLE();
 8003872:	f041 0102 	orr.w	r1, r1, #2
 8003876:	6311      	str	r1, [r2, #48]	@ 0x30
 8003878:	6b11      	ldr	r1, [r2, #48]	@ 0x30
 800387a:	f001 0102 	and.w	r1, r1, #2
 800387e:	9100      	str	r1, [sp, #0]
 8003880:	9900      	ldr	r1, [sp, #0]
    __HAL_RCC_GPIOA_CLK_ENABLE();
 8003882:	9301      	str	r3, [sp, #4]
 8003884:	6b13      	ldr	r3, [r2, #48]	@ 0x30
    GPIO_InitStruct.Alternate = GPIO_AF1_TIM1;
 8003886:	2401      	movs	r4, #1
    __HAL_RCC_GPIOA_CLK_ENABLE();
 8003888:	4323      	orrs	r3, r4
 800388a:	6313      	str	r3, [r2, #48]	@ 0x30
 800388c:	6b13      	ldr	r3, [r2, #48]	@ 0x30
    GPIO_InitStruct.Alternate = GPIO_AF1_TIM1;
 800388e:	9406      	str	r4, [sp, #24]
    __HAL_RCC_GPIOA_CLK_ENABLE();
 8003890:	4023      	ands	r3, r4
 8003892:	9301      	str	r3, [sp, #4]
 8003894:	9b01      	ldr	r3, [sp, #4]
    HAL_GPIO_Init(GPIOB, &GPIO_InitStruct);
 8003896:	a902      	add	r1, sp, #8
    GPIO_InitStruct.Pin = M1_PWM_UL_Pin|M1_PWM_VL_Pin|M1_PWM_WL_Pin;
 8003898:	f44f 4260 	mov.w	r2, #57344	@ 0xe000
 800389c:	2302      	movs	r3, #2
 800389e:	2602      	movs	r6, #2
 80038a0:	2702      	movs	r7, #2
 80038a2:	e9cd 2302 	strd	r2, r3, [sp, #8]
 80038a6:	e9cd 6704 	strd	r6, r7, [sp, #16]
    HAL_GPIO_Init(GPIOB, &GPIO_InitStruct);
 80038aa:	f000 fe0d 	bl	80044c8 <HAL_GPIO_Init>
    GPIO_InitStruct.Pin = M1_PWM_UH_Pin|M1_PWM_VH_Pin|M1_PWM_WH_Pin;
 80038ae:	f44f 62e0 	mov.w	r2, #1792	@ 0x700
 80038b2:	2302      	movs	r3, #2
    HAL_GPIO_Init(GPIOA, &GPIO_InitStruct);
 80038b4:	4807      	ldr	r0, [pc, #28]	@ (80038d4 <HAL_TIM_MspPostInit+0x88>)
    GPIO_InitStruct.Alternate = GPIO_AF1_TIM1;
 80038b6:	9406      	str	r4, [sp, #24]
    HAL_GPIO_Init(GPIOA, &GPIO_InitStruct);
 80038b8:	a902      	add	r1, sp, #8
    GPIO_InitStruct.Pin = M1_PWM_UH_Pin|M1_PWM_VH_Pin|M1_PWM_WH_Pin;
 80038ba:	e9cd 6704 	strd	r6, r7, [sp, #16]
 80038be:	e9cd 2302 	strd	r2, r3, [sp, #8]
    HAL_GPIO_Init(GPIOA, &GPIO_InitStruct);
 80038c2:	f000 fe01 	bl	80044c8 <HAL_GPIO_Init>
}
 80038c6:	b008      	add	sp, #32
 80038c8:	bdd0      	pop	{r4, r6, r7, pc}
 80038ca:	bf00      	nop
 80038cc:	40010000 	.word	0x40010000
 80038d0:	40020400 	.word	0x40020400
 80038d4:	40020000 	.word	0x40020000

080038d8 <HAL_UART_MspInit>:
* This function configures the hardware resources used in this example
* @param huart: UART handle pointer
* @retval None
*/
void HAL_UART_MspInit(UART_HandleTypeDef* huart)
{
 80038d8:	b570      	push	{r4, r5, r6, lr}
  GPIO_InitTypeDef GPIO_InitStruct = {0};
  if(huart->Instance==USART2)
 80038da:	4b32      	ldr	r3, [pc, #200]	@ (80039a4 <HAL_UART_MspInit+0xcc>)
 80038dc:	6802      	ldr	r2, [r0, #0]
{
 80038de:	b088      	sub	sp, #32
  GPIO_InitTypeDef GPIO_InitStruct = {0};
 80038e0:	2400      	movs	r4, #0
  if(huart->Instance==USART2)
 80038e2:	429a      	cmp	r2, r3
  GPIO_InitTypeDef GPIO_InitStruct = {0};
 80038e4:	e9cd 4402 	strd	r4, r4, [sp, #8]
 80038e8:	e9cd 4404 	strd	r4, r4, [sp, #16]
 80038ec:	9406      	str	r4, [sp, #24]
  if(huart->Instance==USART2)
 80038ee:	d001      	beq.n	80038f4 <HAL_UART_MspInit+0x1c>
  /* USER CODE BEGIN USART2_MspInit 1 */

  /* USER CODE END USART2_MspInit 1 */
  }

}
 80038f0:	b008      	add	sp, #32
 80038f2:	bd70      	pop	{r4, r5, r6, pc}
    __HAL_RCC_USART2_CLK_ENABLE();
 80038f4:	f503 33fa 	add.w	r3, r3, #128000	@ 0x1f400
 80038f8:	9400      	str	r4, [sp, #0]
 80038fa:	6c1a      	ldr	r2, [r3, #64]	@ 0x40
    hdma_usart2_rx.Instance = DMA1_Stream5;
 80038fc:	4e2a      	ldr	r6, [pc, #168]	@ (80039a8 <HAL_UART_MspInit+0xd0>)
    __HAL_RCC_USART2_CLK_ENABLE();
 80038fe:	f442 3200 	orr.w	r2, r2, #131072	@ 0x20000
 8003902:	641a      	str	r2, [r3, #64]	@ 0x40
 8003904:	6c1a      	ldr	r2, [r3, #64]	@ 0x40
 8003906:	f402 3200 	and.w	r2, r2, #131072	@ 0x20000
 800390a:	9200      	str	r2, [sp, #0]
 800390c:	9a00      	ldr	r2, [sp, #0]
    __HAL_RCC_GPIOA_CLK_ENABLE();
 800390e:	9401      	str	r4, [sp, #4]
 8003910:	6b1a      	ldr	r2, [r3, #48]	@ 0x30
 8003912:	f042 0201 	orr.w	r2, r2, #1
 8003916:	631a      	str	r2, [r3, #48]	@ 0x30
 8003918:	6b1b      	ldr	r3, [r3, #48]	@ 0x30
 800391a:	f003 0301 	and.w	r3, r3, #1
 800391e:	9301      	str	r3, [sp, #4]
    GPIO_InitStruct.Pin = UART_TX_Pin|UART_RX_Pin;
 8003920:	220c      	movs	r2, #12
 8003922:	2302      	movs	r3, #2
 8003924:	e9cd 2302 	strd	r2, r3, [sp, #8]
 8003928:	4605      	mov	r5, r0
    GPIO_InitStruct.Alternate = GPIO_AF7_USART2;
 800392a:	2307      	movs	r3, #7
    HAL_GPIO_Init(GPIOA, &GPIO_InitStruct);
 800392c:	481f      	ldr	r0, [pc, #124]	@ (80039ac <HAL_UART_MspInit+0xd4>)
    GPIO_InitStruct.Alternate = GPIO_AF7_USART2;
 800392e:	9306      	str	r3, [sp, #24]
    HAL_GPIO_Init(GPIOA, &GPIO_InitStruct);
 8003930:	a902      	add	r1, sp, #8
    __HAL_RCC_GPIOA_CLK_ENABLE();
 8003932:	9b01      	ldr	r3, [sp, #4]
    HAL_GPIO_Init(GPIOA, &GPIO_InitStruct);
 8003934:	f000 fdc8 	bl	80044c8 <HAL_GPIO_Init>
    hdma_usart2_rx.Init.Channel = DMA_CHANNEL_4;
 8003938:	4a1d      	ldr	r2, [pc, #116]	@ (80039b0 <HAL_UART_MspInit+0xd8>)
 800393a:	f04f 6300 	mov.w	r3, #134217728	@ 0x8000000
 800393e:	e9c6 2300 	strd	r2, r3, [r6]
    if (HAL_DMA_Init(&hdma_usart2_rx) != HAL_OK)
 8003942:	4630      	mov	r0, r6
    hdma_usart2_rx.Init.MemInc = DMA_MINC_ENABLE;
 8003944:	f44f 6380 	mov.w	r3, #1024	@ 0x400
    hdma_usart2_rx.Init.PeriphInc = DMA_PINC_DISABLE;
 8003948:	e9c6 4402 	strd	r4, r4, [r6, #8]
    hdma_usart2_rx.Init.PeriphDataAlignment = DMA_PDATAALIGN_BYTE;
 800394c:	e9c6 3404 	strd	r3, r4, [r6, #16]
    hdma_usart2_rx.Init.Mode = DMA_NORMAL;
 8003950:	e9c6 4406 	strd	r4, r4, [r6, #24]
    hdma_usart2_rx.Init.FIFOMode = DMA_FIFOMODE_DISABLE;
 8003954:	e9c6 4408 	strd	r4, r4, [r6, #32]
    if (HAL_DMA_Init(&hdma_usart2_rx) != HAL_OK)
 8003958:	f000 fd20 	bl	800439c <HAL_DMA_Init>
 800395c:	b9d8      	cbnz	r0, 8003996 <HAL_UART_MspInit+0xbe>
    hdma_usart2_tx.Instance = DMA1_Stream6;
 800395e:	4c15      	ldr	r4, [pc, #84]	@ (80039b4 <HAL_UART_MspInit+0xdc>)
 8003960:	4915      	ldr	r1, [pc, #84]	@ (80039b8 <HAL_UART_MspInit+0xe0>)
    __HAL_LINKDMA(huart,hdmarx,hdma_usart2_rx);
 8003962:	63ee      	str	r6, [r5, #60]	@ 0x3c
    hdma_usart2_tx.Init.Channel = DMA_CHANNEL_4;
 8003964:	f04f 6200 	mov.w	r2, #134217728	@ 0x8000000
    hdma_usart2_tx.Init.PeriphInc = DMA_PINC_DISABLE;
 8003968:	2300      	movs	r3, #0
    hdma_usart2_tx.Init.Channel = DMA_CHANNEL_4;
 800396a:	e9c4 1200 	strd	r1, r2, [r4]
    if (HAL_DMA_Init(&hdma_usart2_tx) != HAL_OK)
 800396e:	4620      	mov	r0, r4
    hdma_usart2_tx.Init.Direction = DMA_MEMORY_TO_PERIPH;
 8003970:	2140      	movs	r1, #64	@ 0x40
    hdma_usart2_tx.Init.MemInc = DMA_MINC_ENABLE;
 8003972:	f44f 6280 	mov.w	r2, #1024	@ 0x400
    hdma_usart2_tx.Init.PeriphInc = DMA_PINC_DISABLE;
 8003976:	e9c4 1302 	strd	r1, r3, [r4, #8]
    hdma_usart2_tx.Init.MemDataAlignment = DMA_MDATAALIGN_BYTE;
 800397a:	e9c4 3305 	strd	r3, r3, [r4, #20]
    hdma_usart2_tx.Init.Priority = DMA_PRIORITY_LOW;
 800397e:	e9c4 3307 	strd	r3, r3, [r4, #28]
    __HAL_LINKDMA(huart,hdmarx,hdma_usart2_rx);
 8003982:	63b5      	str	r5, [r6, #56]	@ 0x38
    hdma_usart2_tx.Init.MemInc = DMA_MINC_ENABLE;
 8003984:	6122      	str	r2, [r4, #16]
    hdma_usart2_tx.Init.FIFOMode = DMA_FIFOMODE_DISABLE;
 8003986:	6263      	str	r3, [r4, #36]	@ 0x24
    if (HAL_DMA_Init(&hdma_usart2_tx) != HAL_OK)
 8003988:	f000 fd08 	bl	800439c <HAL_DMA_Init>
 800398c:	b930      	cbnz	r0, 800399c <HAL_UART_MspInit+0xc4>
    __HAL_LINKDMA(huart,hdmatx,hdma_usart2_tx);
 800398e:	63ac      	str	r4, [r5, #56]	@ 0x38
 8003990:	63a5      	str	r5, [r4, #56]	@ 0x38
}
 8003992:	b008      	add	sp, #32
 8003994:	bd70      	pop	{r4, r5, r6, pc}
      Error_Handler();
 8003996:	f7fd fb7b 	bl	8001090 <Error_Handler>
 800399a:	e7e0      	b.n	800395e <HAL_UART_MspInit+0x86>
      Error_Handler();
 800399c:	f7fd fb78 	bl	8001090 <Error_Handler>
 80039a0:	e7f5      	b.n	800398e <HAL_UART_MspInit+0xb6>
 80039a2:	bf00      	nop
 80039a4:	40004400 	.word	0x40004400
 80039a8:	200005a8 	.word	0x200005a8
 80039ac:	40020000 	.word	0x40020000
 80039b0:	40026088 	.word	0x40026088
 80039b4:	20000548 	.word	0x20000548
 80039b8:	400260a0 	.word	0x400260a0

080039bc <ADC_IRQHandler>:
  return (READ_BIT(ADCx->SR, LL_ADC_FLAG_JEOS) == (LL_ADC_FLAG_JEOS));
 80039bc:	4b05      	ldr	r3, [pc, #20]	@ (80039d4 <ADC_IRQHandler+0x18>)
 80039be:	681a      	ldr	r2, [r3, #0]
void ADC_IRQHandler(void)
{
  /* USER CODE BEGIN ADC_IRQn 0 */

  /* USER CODE END ADC_IRQn 0 */
  if(LL_ADC_IsActiveFlag_JEOS(ADC1))
 80039c0:	0752      	lsls	r2, r2, #29
 80039c2:	d400      	bmi.n	80039c6 <ADC_IRQHandler+0xa>
    TSK_HighFrequencyTask();          /*GUI, this section is present only if DAC is disabled*/
  }
  /* USER CODE BEGIN ADC_IRQn 1 */

  /* USER CODE END ADC_IRQn 1 */
}
 80039c4:	4770      	bx	lr
    ADC1->SR &= ~(uint32_t)(LL_ADC_FLAG_JEOS | LL_ADC_FLAG_JSTRT);
 80039c6:	681a      	ldr	r2, [r3, #0]
 80039c8:	f022 020c 	bic.w	r2, r2, #12
 80039cc:	601a      	str	r2, [r3, #0]
    TSK_HighFrequencyTask();          /*GUI, this section is present only if DAC is disabled*/
 80039ce:	f7fe b89b 	b.w	8001b08 <TSK_HighFrequencyTask>
 80039d2:	bf00      	nop
 80039d4:	40012000 	.word	0x40012000

080039d8 <TIM1_UP_TIM10_IRQHandler>:
  * @param  TIMx Timer instance
  * @retval None
  */
__STATIC_INLINE void LL_TIM_ClearFlag_UPDATE(TIM_TypeDef *TIMx)
{
  WRITE_REG(TIMx->SR, ~(TIM_SR_UIF));
 80039d8:	4b03      	ldr	r3, [pc, #12]	@ (80039e8 <TIM1_UP_TIM10_IRQHandler+0x10>)
  /* USER CODE BEGIN TIMx_UP_M1_IRQn 0 */

  /* USER CODE END TIMx_UP_M1_IRQn 0 */

  LL_TIM_ClearFlag_UPDATE(TIM1);
  R3_1_TIMx_UP_IRQHandler(&PWM_Handle_M1);
 80039da:	4804      	ldr	r0, [pc, #16]	@ (80039ec <TIM1_UP_TIM10_IRQHandler+0x14>)
 80039dc:	f06f 0201 	mvn.w	r2, #1
 80039e0:	611a      	str	r2, [r3, #16]
 80039e2:	f002 be73 	b.w	80066cc <R3_1_TIMx_UP_IRQHandler>
 80039e6:	bf00      	nop
 80039e8:	40010000 	.word	0x40010000
 80039ec:	200002cc 	.word	0x200002cc

080039f0 <TIM1_BRK_TIM9_IRQHandler>:
  * @param  TIMx Timer instance
  * @retval State of bit (1 or 0).
  */
__STATIC_INLINE uint32_t LL_TIM_IsActiveFlag_BRK(const TIM_TypeDef *TIMx)
{
  return ((READ_BIT(TIMx->SR, TIM_SR_BIF) == (TIM_SR_BIF)) ? 1UL : 0UL);
 80039f0:	4907      	ldr	r1, [pc, #28]	@ (8003a10 <TIM1_BRK_TIM9_IRQHandler+0x20>)
/**
  * @brief  This function handles first motor BRK interrupt.
  * @param  None
  */
void TIMx_BRK_M1_IRQHandler(void)
{
 80039f2:	b508      	push	{r3, lr}
 80039f4:	690b      	ldr	r3, [r1, #16]
 80039f6:	061b      	lsls	r3, r3, #24
 80039f8:	d505      	bpl.n	8003a06 <TIM1_BRK_TIM9_IRQHandler+0x16>
  WRITE_REG(TIMx->SR, ~(TIM_SR_BIF));
 80039fa:	f06f 0380 	mvn.w	r3, #128	@ 0x80

  /* USER CODE END TIMx_BRK_M1_IRQn 0 */
  if (LL_TIM_IsActiveFlag_BRK(TIM1))
  {
    LL_TIM_ClearFlag_BRK(TIM1);
    PWMC_OVP_Handler(&PWM_Handle_M1._Super, TIM1);
 80039fe:	4805      	ldr	r0, [pc, #20]	@ (8003a14 <TIM1_BRK_TIM9_IRQHandler+0x24>)
 8003a00:	610b      	str	r3, [r1, #16]
 8003a02:	f7fe fd57 	bl	80024b4 <PWMC_OVP_Handler>
  MC_Scheduler();

  /* USER CODE BEGIN TIMx_BRK_M1_IRQn 1 */

  /* USER CODE END TIMx_BRK_M1_IRQn 1 */
}
 8003a06:	e8bd 4008 	ldmia.w	sp!, {r3, lr}
  MC_Scheduler();
 8003a0a:	f7fe b837 	b.w	8001a7c <MC_Scheduler>
 8003a0e:	bf00      	nop
 8003a10:	40010000 	.word	0x40010000
 8003a14:	200002cc 	.word	0x200002cc

08003a18 <TIM2_IRQHandler>:
  /* USER CODE BEGIN SPD_TIM_M1_IRQn 0 */

  /* USER CODE END SPD_TIM_M1_IRQn 0 */

 /* Encoder Timer UPDATE IT is dynamicaly enabled/disabled, checking enable state is required */
  if (LL_TIM_IsEnabledIT_UPDATE (ENCODER_M1.TIMx) && LL_TIM_IsActiveFlag_UPDATE (ENCODER_M1.TIMx))
 8003a18:	4806      	ldr	r0, [pc, #24]	@ (8003a34 <TIM2_IRQHandler+0x1c>)
 8003a1a:	6a03      	ldr	r3, [r0, #32]
  * @param  TIMx Timer instance
  * @retval State of bit (1 or 0).
  */
__STATIC_INLINE uint32_t LL_TIM_IsEnabledIT_UPDATE(const TIM_TypeDef *TIMx)
{
  return ((READ_BIT(TIMx->DIER, TIM_DIER_UIE) == (TIM_DIER_UIE)) ? 1UL : 0UL);
 8003a1c:	68da      	ldr	r2, [r3, #12]
 8003a1e:	07d1      	lsls	r1, r2, #31
 8003a20:	d507      	bpl.n	8003a32 <TIM2_IRQHandler+0x1a>
  return ((READ_BIT(TIMx->SR, TIM_SR_UIF) == (TIM_SR_UIF)) ? 1UL : 0UL);
 8003a22:	691a      	ldr	r2, [r3, #16]
 8003a24:	07d2      	lsls	r2, r2, #31
 8003a26:	d504      	bpl.n	8003a32 <TIM2_IRQHandler+0x1a>
  WRITE_REG(TIMx->SR, ~(TIM_SR_UIF));
 8003a28:	f06f 0201 	mvn.w	r2, #1
 8003a2c:	611a      	str	r2, [r3, #16]
  {
    LL_TIM_ClearFlag_UPDATE(ENCODER_M1.TIMx);
    ENC_IRQHandler(&ENCODER_M1);
 8003a2e:	f001 bffd 	b.w	8005a2c <ENC_IRQHandler>
  /* No other IT to manage for encoder config */
  }
  /* USER CODE BEGIN SPD_TIM_M1_IRQn 1 */

  /* USER CODE END SPD_TIM_M1_IRQn 1 */
}
 8003a32:	4770      	bx	lr
 8003a34:	20000090 	.word	0x20000090

08003a38 <DMA1_Stream5_IRQHandler>:
    retVal = 0;
  }
  else
  {
    register __IO uint32_t *preg = __DMA_PTR_REG_OFFSET(DMAx->LISR,(Stream<=3)?0:1);
    retVal = ((READ_BIT(*preg, 1 << __LL_DMA_IT_TC_BIT(Stream)) == (1 << __LL_DMA_IT_TC_BIT(Stream))) ? 1UL : 0UL);
 8003a38:	4b05      	ldr	r3, [pc, #20]	@ (8003a50 <DMA1_Stream5_IRQHandler+0x18>)
 8003a3a:	685a      	ldr	r2, [r3, #4]
 8003a3c:	0512      	lsls	r2, r2, #20
 8003a3e:	d400      	bmi.n	8003a42 <DMA1_Stream5_IRQHandler+0xa>
  }
  /* USER CODE BEGIN DMA1_Stream5_IRQHandler 1 */

  /* USER CODE BEGIN DMA1_Stream5_IRQHandler 1 */

}
 8003a40:	4770      	bx	lr
    WRITE_REG (*preg, 1 << __LL_DMA_IT_TC_BIT(Stream));
 8003a42:	f44f 6200 	mov.w	r2, #2048	@ 0x800
    ASPEP_HWDataReceivedIT (&aspepOverUartA);
 8003a46:	4803      	ldr	r0, [pc, #12]	@ (8003a54 <DMA1_Stream5_IRQHandler+0x1c>)
 8003a48:	60da      	str	r2, [r3, #12]
 8003a4a:	f7fd b887 	b.w	8000b5c <ASPEP_HWDataReceivedIT>
 8003a4e:	bf00      	nop
 8003a50:	40026000 	.word	0x40026000
 8003a54:	20000494 	.word	0x20000494

08003a58 <USART2_IRQHandler>:
/**
  * @brief  This function handles USART interrupt request.
  * @param  None
  */
void USART2_IRQHandler(void)
{
 8003a58:	b510      	push	{r4, lr}
  * @param  USARTx USART Instance
  * @retval State of bit (1 or 0).
  */
__STATIC_INLINE uint32_t LL_USART_IsActiveFlag_TC(const USART_TypeDef *USARTx)
{
  return (READ_BIT(USARTx->SR, USART_SR_TC) == (USART_SR_TC));
 8003a5a:	4b51      	ldr	r3, [pc, #324]	@ (8003ba0 <USART2_IRQHandler+0x148>)
 8003a5c:	681a      	ldr	r2, [r3, #0]
  /* USER CODE BEGIN USART2_IRQHandler 0 */

  /* USER CODE END UUSART2_IRQHandler 0 */

  if ( LL_USART_IsActiveFlag_TC (USARTA) )
 8003a5e:	0651      	lsls	r1, r2, #25
{
 8003a60:	b084      	sub	sp, #16
  if ( LL_USART_IsActiveFlag_TC (USARTA) )
 8003a62:	f100 808e 	bmi.w	8003b82 <USART2_IRQHandler+0x12a>
  return (READ_BIT(USARTx->SR, USART_SR_ORE) == (USART_SR_ORE));
 8003a66:	4b4e      	ldr	r3, [pc, #312]	@ (8003ba0 <USART2_IRQHandler+0x148>)
 8003a68:	681a      	ldr	r2, [r3, #0]
    LL_USART_ClearFlag_TC (USARTA);
    /* Data Sent by UART*/
    /* Need to free the buffer, and to check pending transfer*/
    ASPEP_HWDataTransmittedIT (&aspepOverUartA);
  }
  if ( (LL_USART_IsActiveFlag_ORE (USARTA) || LL_USART_IsActiveFlag_FE (USARTA) || LL_USART_IsActiveFlag_NE (USARTA))
 8003a6a:	0712      	lsls	r2, r2, #28
 8003a6c:	d402      	bmi.n	8003a74 <USART2_IRQHandler+0x1c>
  return (READ_BIT(USARTx->SR, USART_SR_FE) == (USART_SR_FE));
 8003a6e:	681a      	ldr	r2, [r3, #0]
 8003a70:	0794      	lsls	r4, r2, #30
 8003a72:	d57e      	bpl.n	8003b72 <USART2_IRQHandler+0x11a>
  * @param  USARTx USART Instance
  * @retval State of bit (1 or 0).
  */
__STATIC_INLINE uint32_t LL_USART_IsEnabledIT_ERROR(const USART_TypeDef *USARTx)
{
  return (READ_BIT(USARTx->CR3, USART_CR3_EIE) == (USART_CR3_EIE));
 8003a74:	4b4a      	ldr	r3, [pc, #296]	@ (8003ba0 <USART2_IRQHandler+0x148>)
 8003a76:	695a      	ldr	r2, [r3, #20]
        && LL_USART_IsEnabledIT_ERROR (USARTA) )
 8003a78:	07d1      	lsls	r1, r2, #31
 8003a7a:	d52d      	bpl.n	8003ad8 <USART2_IRQHandler+0x80>
  tmpreg = USARTx->SR;
 8003a7c:	681a      	ldr	r2, [r3, #0]
 8003a7e:	9203      	str	r2, [sp, #12]
  (void) tmpreg;
 8003a80:	9a03      	ldr	r2, [sp, #12]
  tmpreg = USARTx->DR;
 8003a82:	685a      	ldr	r2, [r3, #4]
 8003a84:	9203      	str	r2, [sp, #12]
  (void) tmpreg;
 8003a86:	9a03      	ldr	r2, [sp, #12]
  tmpreg = USARTx->SR;
 8003a88:	681a      	ldr	r2, [r3, #0]
 8003a8a:	9202      	str	r2, [sp, #8]
  (void) tmpreg;
 8003a8c:	9a02      	ldr	r2, [sp, #8]
  tmpreg = USARTx->DR;
 8003a8e:	685a      	ldr	r2, [r3, #4]
 8003a90:	9202      	str	r2, [sp, #8]
  (void) tmpreg;
 8003a92:	9a02      	ldr	r2, [sp, #8]
  tmpreg = USARTx->SR;
 8003a94:	681a      	ldr	r2, [r3, #0]
 8003a96:	9201      	str	r2, [sp, #4]
  (void) tmpreg;
 8003a98:	9a01      	ldr	r2, [sp, #4]
  tmpreg = USARTx->DR;
 8003a9a:	685b      	ldr	r3, [r3, #4]
 8003a9c:	9301      	str	r3, [sp, #4]
  (void) tmpreg;
 8003a9e:	9b01      	ldr	r3, [sp, #4]
   __ASM volatile ("ldrex %0, %1" : "=r" (result) : "Q" (*addr) );
 8003aa0:	f04f 2240 	mov.w	r2, #1073758208	@ 0x40004000
 8003aa4:	f202 4314 	addw	r3, r2, #1044	@ 0x414
 8003aa8:	e853 3f00 	ldrex	r3, [r3]
  ATOMIC_CLEAR_BIT(USARTx->CR3, USART_CR3_EIE);
 8003aac:	f023 0301 	bic.w	r3, r3, #1
   __ASM volatile ("strex %0, %2, %1" : "=&r" (result), "=Q" (*addr) : "r" (value) );
 8003ab0:	f202 4014 	addw	r0, r2, #1044	@ 0x414
 8003ab4:	e840 3100 	strex	r1, r3, [r0]
 8003ab8:	2900      	cmp	r1, #0
 8003aba:	d1f3      	bne.n	8003aa4 <USART2_IRQHandler+0x4c>
   __ASM volatile ("ldrex %0, %1" : "=r" (result) : "Q" (*addr) );
 8003abc:	f04f 2240 	mov.w	r2, #1073758208	@ 0x40004000
 8003ac0:	f202 430c 	addw	r3, r2, #1036	@ 0x40c
 8003ac4:	e853 3f00 	ldrex	r3, [r3]
  ATOMIC_SET_BIT(USARTx->CR1, USART_CR1_IDLEIE);
 8003ac8:	f043 0310 	orr.w	r3, r3, #16
   __ASM volatile ("strex %0, %2, %1" : "=&r" (result), "=Q" (*addr) : "r" (value) );
 8003acc:	f202 400c 	addw	r0, r2, #1036	@ 0x40c
 8003ad0:	e840 3100 	strex	r1, r3, [r0]
 8003ad4:	2900      	cmp	r1, #0
 8003ad6:	d1f3      	bne.n	8003ac0 <USART2_IRQHandler+0x68>
  return (READ_BIT(USARTx->SR, USART_SR_IDLE) == (USART_SR_IDLE));
 8003ad8:	4b31      	ldr	r3, [pc, #196]	@ (8003ba0 <USART2_IRQHandler+0x148>)
 8003ada:	681a      	ldr	r2, [r3, #0]
    LL_USART_ClearFlag_NE(USARTA);
    /* We disable ERROR interrupt to avoid to trig one Overrun IT per additional byte recevied*/
    LL_USART_DisableIT_ERROR (USARTA);
    LL_USART_EnableIT_IDLE (USARTA);
  }
  if ( LL_USART_IsActiveFlag_IDLE (USARTA) && LL_USART_IsEnabledIT_IDLE (USARTA) )
 8003adc:	06d2      	lsls	r2, r2, #27
 8003ade:	d546      	bpl.n	8003b6e <USART2_IRQHandler+0x116>
  return (READ_BIT(USARTx->CR1, USART_CR1_IDLEIE) == (USART_CR1_IDLEIE));
 8003ae0:	68db      	ldr	r3, [r3, #12]
 8003ae2:	06db      	lsls	r3, r3, #27
 8003ae4:	d543      	bpl.n	8003b6e <USART2_IRQHandler+0x116>
   __ASM volatile ("ldrex %0, %1" : "=r" (result) : "Q" (*addr) );
 8003ae6:	f04f 2240 	mov.w	r2, #1073758208	@ 0x40004000
 8003aea:	f202 430c 	addw	r3, r2, #1036	@ 0x40c
 8003aee:	e853 3f00 	ldrex	r3, [r3]
  ATOMIC_CLEAR_BIT(USARTx->CR1, USART_CR1_IDLEIE);
 8003af2:	f023 0310 	bic.w	r3, r3, #16
   __ASM volatile ("strex %0, %2, %1" : "=&r" (result), "=Q" (*addr) : "r" (value) );
 8003af6:	f202 400c 	addw	r0, r2, #1036	@ 0x40c
 8003afa:	e840 3100 	strex	r1, r3, [r0]
 8003afe:	2900      	cmp	r1, #0
 8003b00:	d1f3      	bne.n	8003aea <USART2_IRQHandler+0x92>
   __ASM volatile ("ldrex %0, %1" : "=r" (result) : "Q" (*addr) );
 8003b02:	f04f 2240 	mov.w	r2, #1073758208	@ 0x40004000
 8003b06:	f202 4314 	addw	r3, r2, #1044	@ 0x414
 8003b0a:	e853 3f00 	ldrex	r3, [r3]
  ATOMIC_SET_BIT(USARTx->CR3, USART_CR3_EIE);
 8003b0e:	f043 0301 	orr.w	r3, r3, #1
   __ASM volatile ("strex %0, %2, %1" : "=&r" (result), "=Q" (*addr) : "r" (value) );
 8003b12:	f202 4014 	addw	r0, r2, #1044	@ 0x414
 8003b16:	e840 3100 	strex	r1, r3, [r0]
 8003b1a:	2900      	cmp	r1, #0
 8003b1c:	d1f3      	bne.n	8003b06 <USART2_IRQHandler+0xae>
   __ASM volatile ("ldrex %0, %1" : "=r" (result) : "Q" (*addr) );
 8003b1e:	f04f 2240 	mov.w	r2, #1073758208	@ 0x40004000
 8003b22:	f202 4314 	addw	r3, r2, #1044	@ 0x414
 8003b26:	e853 3f00 	ldrex	r3, [r3]
  * @param  USARTx USART Instance
  * @retval None
  */
__STATIC_INLINE void LL_USART_DisableDMAReq_RX(USART_TypeDef *USARTx)
{
  ATOMIC_CLEAR_BIT(USARTx->CR3, USART_CR3_DMAR);
 8003b2a:	f023 0340 	bic.w	r3, r3, #64	@ 0x40
   __ASM volatile ("strex %0, %2, %1" : "=&r" (result), "=Q" (*addr) : "r" (value) );
 8003b2e:	f202 4014 	addw	r0, r2, #1044	@ 0x414
 8003b32:	e840 3100 	strex	r1, r3, [r0]
 8003b36:	2900      	cmp	r1, #0
 8003b38:	d1f3      	bne.n	8003b22 <USART2_IRQHandler+0xca>
  * @param  USARTx USART Instance
  * @retval Value between Min_Data=0x00 and Max_Data=0xFF
  */
__STATIC_INLINE uint8_t LL_USART_ReceiveData8(const USART_TypeDef *USARTx)
{
  return (uint8_t)(READ_BIT(USARTx->DR, USART_DR_DR));
 8003b3a:	4b19      	ldr	r3, [pc, #100]	@ (8003ba0 <USART2_IRQHandler+0x148>)
 8003b3c:	685b      	ldr	r3, [r3, #4]
   __ASM volatile ("ldrex %0, %1" : "=r" (result) : "Q" (*addr) );
 8003b3e:	f04f 2240 	mov.w	r2, #1073758208	@ 0x40004000
 8003b42:	f202 4314 	addw	r3, r2, #1044	@ 0x414
 8003b46:	e853 3f00 	ldrex	r3, [r3]
  ATOMIC_SET_BIT(USARTx->CR3, USART_CR3_DMAR);
 8003b4a:	f043 0340 	orr.w	r3, r3, #64	@ 0x40
   __ASM volatile ("strex %0, %2, %1" : "=&r" (result), "=Q" (*addr) : "r" (value) );
 8003b4e:	f202 4014 	addw	r0, r2, #1044	@ 0x414
 8003b52:	e840 3100 	strex	r1, r3, [r0]
 8003b56:	2900      	cmp	r1, #0
 8003b58:	d1f3      	bne.n	8003b42 <USART2_IRQHandler+0xea>
    WRITE_REG (*preg, 1 << __LL_DMA_IT_TE_BIT(Stream));
 8003b5a:	4b12      	ldr	r3, [pc, #72]	@ (8003ba4 <USART2_IRQHandler+0x14c>)
    /* We disable the DMA request, Read the dummy data, endable back the DMA request */
    LL_USART_DisableDMAReq_RX (USARTA);
    LL_USART_ReceiveData8(USARTA);
    LL_USART_EnableDMAReq_RX (USARTA);
    LL_DMA_ClearFlag_TE (DMA_RX_A, DMACH_RX_A );
    ASPEP_HWDMAReset (&aspepOverUartA);
 8003b5c:	4812      	ldr	r0, [pc, #72]	@ (8003ba8 <USART2_IRQHandler+0x150>)
 8003b5e:	f44f 7200 	mov.w	r2, #512	@ 0x200
 8003b62:	60da      	str	r2, [r3, #12]
  }

  /* USER CODE BEGIN USART2_IRQHandler 1 */

  /* USER CODE END USART2_IRQHandler 1 */
}
 8003b64:	b004      	add	sp, #16
 8003b66:	e8bd 4010 	ldmia.w	sp!, {r4, lr}
    ASPEP_HWDMAReset (&aspepOverUartA);
 8003b6a:	f7fd b845 	b.w	8000bf8 <ASPEP_HWDMAReset>
}
 8003b6e:	b004      	add	sp, #16
 8003b70:	bd10      	pop	{r4, pc}
  return (READ_BIT(USARTx->SR, USART_SR_NE) == (USART_SR_NE));
 8003b72:	681b      	ldr	r3, [r3, #0]
  if ( (LL_USART_IsActiveFlag_ORE (USARTA) || LL_USART_IsActiveFlag_FE (USARTA) || LL_USART_IsActiveFlag_NE (USARTA))
 8003b74:	0758      	lsls	r0, r3, #29
 8003b76:	d5af      	bpl.n	8003ad8 <USART2_IRQHandler+0x80>
  return (READ_BIT(USARTx->CR3, USART_CR3_EIE) == (USART_CR3_EIE));
 8003b78:	4b09      	ldr	r3, [pc, #36]	@ (8003ba0 <USART2_IRQHandler+0x148>)
 8003b7a:	695a      	ldr	r2, [r3, #20]
        && LL_USART_IsEnabledIT_ERROR (USARTA) )
 8003b7c:	07d1      	lsls	r1, r2, #31
 8003b7e:	d5ab      	bpl.n	8003ad8 <USART2_IRQHandler+0x80>
 8003b80:	e77c      	b.n	8003a7c <USART2_IRQHandler+0x24>
  *         @arg @ref LL_DMA_STREAM_7
  * @retval None
  */
__STATIC_INLINE void LL_DMA_DisableStream(DMA_TypeDef *DMAx, uint32_t Stream)
{
  CLEAR_BIT(((DMA_Stream_TypeDef *)((uint32_t)((uint32_t)DMAx + STREAM_OFFSET_TAB[Stream])))->CR, DMA_SxCR_EN);
 8003b82:	4908      	ldr	r1, [pc, #32]	@ (8003ba4 <USART2_IRQHandler+0x14c>)
    ASPEP_HWDataTransmittedIT (&aspepOverUartA);
 8003b84:	4808      	ldr	r0, [pc, #32]	@ (8003ba8 <USART2_IRQHandler+0x150>)
 8003b86:	f8d1 20a0 	ldr.w	r2, [r1, #160]	@ 0xa0
  WRITE_REG(USARTx->SR, ~(USART_SR_TC));
 8003b8a:	f06f 0440 	mvn.w	r4, #64	@ 0x40
 8003b8e:	f022 0201 	bic.w	r2, r2, #1
 8003b92:	f8c1 20a0 	str.w	r2, [r1, #160]	@ 0xa0
 8003b96:	601c      	str	r4, [r3, #0]
 8003b98:	f7fc fe34 	bl	8000804 <ASPEP_HWDataTransmittedIT>
 8003b9c:	e763      	b.n	8003a66 <USART2_IRQHandler+0xe>
 8003b9e:	bf00      	nop
 8003ba0:	40004400 	.word	0x40004400
 8003ba4:	40026000 	.word	0x40026000
 8003ba8:	20000494 	.word	0x20000494

08003bac <HardFault_Handler>:
/**
  * @brief  This function handles Hard Fault exception.
  * @param  None
  */
void HardFault_Handler(void)
{
 8003bac:	b508      	push	{r3, lr}
 /* USER CODE BEGIN HardFault_IRQn 0 */

 /* USER CODE END HardFault_IRQn 0 */
  TSK_HardwareFaultTask();
 8003bae:	f7fe f8ad 	bl	8001d0c <TSK_HardwareFaultTask>

  /* Go to infinite loop when Hard Fault exception occurs */
  while (1)
 8003bb2:	e7fe      	b.n	8003bb2 <HardFault_Handler+0x6>

08003bb4 <SysTick_Handler>:
 /* USER CODE END HardFault_IRQn 1 */

}

void SysTick_Handler(void)
{
 8003bb4:	b510      	push	{r4, lr}
#ifdef MC_HAL_IS_USED
static uint8_t SystickDividerCounter = SYSTICK_DIVIDER;
  /* USER CODE BEGIN SysTick_IRQn 0 */

  /* USER CODE END SysTick_IRQn 0 */
  if (SystickDividerCounter == SYSTICK_DIVIDER)
 8003bb6:	4c0a      	ldr	r4, [pc, #40]	@ (8003be0 <SysTick_Handler+0x2c>)
 8003bb8:	7823      	ldrb	r3, [r4, #0]
 8003bba:	2b02      	cmp	r3, #2
 8003bbc:	d006      	beq.n	8003bcc <SysTick_Handler+0x18>
  {
    HAL_IncTick();
    HAL_SYSTICK_IRQHandler();
    SystickDividerCounter = 0;
  }
  SystickDividerCounter ++;
 8003bbe:	3301      	adds	r3, #1
 8003bc0:	b2db      	uxtb	r3, r3
 8003bc2:	7023      	strb	r3, [r4, #0]
  /* USER CODE END SysTick_IRQn 1 */
    MC_RunMotorControlTasks();

  /* USER CODE BEGIN SysTick_IRQn 2 */
  /* USER CODE END SysTick_IRQn 2 */
}
 8003bc4:	e8bd 4010 	ldmia.w	sp!, {r4, lr}
    MC_RunMotorControlTasks();
 8003bc8:	f7fe b894 	b.w	8001cf4 <MC_RunMotorControlTasks>
    HAL_IncTick();
 8003bcc:	f000 f910 	bl	8003df0 <HAL_IncTick>
    HAL_SYSTICK_IRQHandler();
 8003bd0:	f000 fbe0 	bl	8004394 <HAL_SYSTICK_IRQHandler>
 8003bd4:	2301      	movs	r3, #1
  SystickDividerCounter ++;
 8003bd6:	7023      	strb	r3, [r4, #0]
}
 8003bd8:	e8bd 4010 	ldmia.w	sp!, {r4, lr}
    MC_RunMotorControlTasks();
 8003bdc:	f7fe b88a 	b.w	8001cf4 <MC_RunMotorControlTasks>
 8003be0:	2000051c 	.word	0x2000051c

08003be4 <EXTI15_10_IRQHandler>:
  * @note   Please check each device line mapping for EXTI Line availability
  * @retval @note This bit is set when the selected edge event arrives on the interrupt
  */
__STATIC_INLINE uint32_t LL_EXTI_ReadFlag_0_31(uint32_t ExtiLine)
{
  return (uint32_t)(READ_BIT(EXTI->PR, ExtiLine));
 8003be4:	4b04      	ldr	r3, [pc, #16]	@ (8003bf8 <EXTI15_10_IRQHandler+0x14>)
 8003be6:	695a      	ldr	r2, [r3, #20]
  * @brief  This function handles Button IRQ on PIN PC13.
  */
void EXTI15_10_IRQHandler (void)
{
	/* USER CODE BEGIN START_STOP_BTN */
  if ( LL_EXTI_ReadFlag_0_31(LL_EXTI_LINE_13) )
 8003be8:	0492      	lsls	r2, r2, #18
 8003bea:	d400      	bmi.n	8003bee <EXTI15_10_IRQHandler+0xa>
  {
    LL_EXTI_ClearFlag_0_31 (LL_EXTI_LINE_13);
    UI_HandleStartStopButton_cb ();
  }

}
 8003bec:	4770      	bx	lr
  * @note   Please check each device line mapping for EXTI Line availability
  * @retval None
  */
__STATIC_INLINE void LL_EXTI_ClearFlag_0_31(uint32_t ExtiLine)
{
  WRITE_REG(EXTI->PR, ExtiLine);
 8003bee:	f44f 5200 	mov.w	r2, #8192	@ 0x2000
 8003bf2:	615a      	str	r2, [r3, #20]
    UI_HandleStartStopButton_cb ();
 8003bf4:	f7fe b89a 	b.w	8001d2c <UI_HandleStartStopButton_cb>
 8003bf8:	40013c00 	.word	0x40013c00

08003bfc <UASPEP_INIT>:
  }
  else
  {
#endif
    /* Enable DMA UART */
    LL_USART_ClearFlag_TC(pHandle->USARTx);
 8003bfc:	6802      	ldr	r2, [r0, #0]
 8003bfe:	4611      	mov	r1, r2
 8003c00:	f06f 0340 	mvn.w	r3, #64	@ 0x40
{
 8003c04:	b470      	push	{r4, r5, r6}
 8003c06:	f841 3b0c 	str.w	r3, [r1], #12
   __ASM volatile ("ldrex %0, %1" : "=r" (result) : "Q" (*addr) );
 8003c0a:	e851 3f00 	ldrex	r3, [r1]
  ATOMIC_SET_BIT(USARTx->CR1, USART_CR1_TCIE);
 8003c0e:	f043 0340 	orr.w	r3, r3, #64	@ 0x40
   __ASM volatile ("strex %0, %2, %1" : "=&r" (result), "=Q" (*addr) : "r" (value) );
 8003c12:	e841 3400 	strex	r4, r3, [r1]
 8003c16:	2c00      	cmp	r4, #0
 8003c18:	d1f7      	bne.n	8003c0a <UASPEP_INIT+0xe>
  ATOMIC_SET_BIT(USARTx->CR3, USART_CR3_DMAT);
 8003c1a:	f102 0114 	add.w	r1, r2, #20
   __ASM volatile ("ldrex %0, %1" : "=r" (result) : "Q" (*addr) );
 8003c1e:	e851 3f00 	ldrex	r3, [r1]
 8003c22:	f043 0380 	orr.w	r3, r3, #128	@ 0x80
   __ASM volatile ("strex %0, %2, %1" : "=&r" (result), "=Q" (*addr) : "r" (value) );
 8003c26:	e841 3400 	strex	r4, r3, [r1]
 8003c2a:	2c00      	cmp	r4, #0
 8003c2c:	d1f7      	bne.n	8003c1e <UASPEP_INIT+0x22>
  * @param  PeriphAddress Between 0 to 0xFFFFFFFF
  * @retval None
  */
__STATIC_INLINE void LL_DMA_SetPeriphAddress(DMA_TypeDef* DMAx, uint32_t Stream, uint32_t PeriphAddress)
{
  WRITE_REG(((DMA_Stream_TypeDef*)((uint32_t)((uint32_t)DMAx + STREAM_OFFSET_TAB[Stream])))->PAR, PeriphAddress);
 8003c2e:	6901      	ldr	r1, [r0, #16]
 8003c30:	4e16      	ldr	r6, [pc, #88]	@ (8003c8c <UASPEP_INIT+0x90>)
 8003c32:	6883      	ldr	r3, [r0, #8]
 8003c34:	5c74      	ldrb	r4, [r6, r1]
  *         @arg @ref LL_DMA_STREAM_7
  * @retval None
  */
__STATIC_INLINE void LL_DMA_EnableIT_TC(DMA_TypeDef *DMAx, uint32_t Stream)
{
  SET_BIT(((DMA_Stream_TypeDef *)((uint32_t)((uint32_t)DMAx + STREAM_OFFSET_TAB[Stream])))->CR, DMA_SxCR_TCIE);
 8003c36:	6845      	ldr	r5, [r0, #4]
  WRITE_REG(((DMA_Stream_TypeDef*)((uint32_t)((uint32_t)DMAx + STREAM_OFFSET_TAB[Stream])))->PAR, PeriphAddress);
 8003c38:	4423      	add	r3, r4
    LL_USART_EnableDMAReq_TX(pHandle->USARTx);

    /* Write the USART_TDR register address in the DMA control register to configure it as
     * the destination of the transfer */
    //cstat !MISRAC2012-Rule-11.4
    LL_DMA_SetPeriphAddress(pHandle->txDMA, pHandle->txChannel, (uint32_t)&pHandle->USARTx->DR);
 8003c3a:	1d11      	adds	r1, r2, #4
 8003c3c:	6099      	str	r1, [r3, #8]
  SET_BIT(((DMA_Stream_TypeDef *)((uint32_t)((uint32_t)DMAx + STREAM_OFFSET_TAB[Stream])))->CR, DMA_SxCR_TCIE);
 8003c3e:	68c3      	ldr	r3, [r0, #12]
  WRITE_REG(USARTx->SR, ~(USART_SR_TC));
 8003c40:	4611      	mov	r1, r2
 8003c42:	f06f 0440 	mvn.w	r4, #64	@ 0x40
 8003c46:	f841 4b14 	str.w	r4, [r1], #20
 8003c4a:	5cf4      	ldrb	r4, [r6, r3]
 8003c4c:	592b      	ldr	r3, [r5, r4]
 8003c4e:	f043 0310 	orr.w	r3, r3, #16
 8003c52:	512b      	str	r3, [r5, r4]
   __ASM volatile ("ldrex %0, %1" : "=r" (result) : "Q" (*addr) );
 8003c54:	e851 3f00 	ldrex	r3, [r1]
  ATOMIC_SET_BIT(USARTx->CR3, USART_CR3_EIE);
 8003c58:	f043 0301 	orr.w	r3, r3, #1
   __ASM volatile ("strex %0, %2, %1" : "=&r" (result), "=Q" (*addr) : "r" (value) );
 8003c5c:	e841 3400 	strex	r4, r3, [r1]
 8003c60:	2c00      	cmp	r4, #0
 8003c62:	d1f7      	bne.n	8003c54 <UASPEP_INIT+0x58>
  WRITE_REG(((DMA_Stream_TypeDef*)((uint32_t)((uint32_t)DMAx + STREAM_OFFSET_TAB[Stream])))->PAR, PeriphAddress);
 8003c64:	68c3      	ldr	r3, [r0, #12]
 8003c66:	5cf3      	ldrb	r3, [r6, r3]
 8003c68:	441d      	add	r5, r3
    LL_USART_EnableIT_ERROR(pHandle->USARTx);

    /* Write the USART_RDR register address in the DMA control register to configure it as
     * the source of the transfer */
    //cstat !MISRAC2012-Rule-11.4
    LL_DMA_SetPeriphAddress(pHandle->rxDMA, pHandle->rxChannel, (uint32_t)&pHandle->USARTx->DR);
 8003c6a:	1d11      	adds	r1, r2, #4
  WRITE_REG(USARTx->SR, ~(USART_SR_TC));
 8003c6c:	f06f 0340 	mvn.w	r3, #64	@ 0x40
 8003c70:	60a9      	str	r1, [r5, #8]
 8003c72:	f842 3b14 	str.w	r3, [r2], #20
   __ASM volatile ("ldrex %0, %1" : "=r" (result) : "Q" (*addr) );
 8003c76:	e852 3f00 	ldrex	r3, [r2]
  ATOMIC_SET_BIT(USARTx->CR3, USART_CR3_DMAR);
 8003c7a:	f043 0340 	orr.w	r3, r3, #64	@ 0x40
   __ASM volatile ("strex %0, %2, %1" : "=&r" (result), "=Q" (*addr) : "r" (value) );
 8003c7e:	e842 3100 	strex	r1, r3, [r2]
 8003c82:	2900      	cmp	r1, #0
 8003c84:	d1f7      	bne.n	8003c76 <UASPEP_INIT+0x7a>
}
 8003c86:	bc70      	pop	{r4, r5, r6}
 8003c88:	4770      	bx	lr
 8003c8a:	bf00      	nop
 8003c8c:	080078d0 	.word	0x080078d0

08003c90 <UASPEP_SEND_PACKET>:
  * @param  pHWHandle Hardware components chosen for communication
  * @param  data Data to be transmitted to controller
  * @param  length Length of the data to be transmitted
  */
bool UASPEP_SEND_PACKET(void *pHWHandle, void *data, uint16_t length)
{
 8003c90:	b4f0      	push	{r4, r5, r6, r7}
  UASPEP_Handle_t *pHandle = (UASPEP_Handle_t *)pHWHandle; //cstat !MISRAC2012-Rule-11.5
  bool result;
  if (0U == LL_DMA_IsEnabledStream(pHandle->txDMA, pHandle->txChannel))
 8003c92:	6905      	ldr	r5, [r0, #16]
  return (READ_BIT(((DMA_Stream_TypeDef*)((uint32_t)((uint32_t)DMAx + STREAM_OFFSET_TAB[Stream])))->CR, DMA_SxCR_EN) == (DMA_SxCR_EN));
 8003c94:	4e1b      	ldr	r6, [pc, #108]	@ (8003d04 <UASPEP_SEND_PACKET+0x74>)
 8003c96:	6884      	ldr	r4, [r0, #8]
 8003c98:	5d73      	ldrb	r3, [r6, r5]
 8003c9a:	58e7      	ldr	r7, [r4, r3]
 8003c9c:	07ff      	lsls	r7, r7, #31
 8003c9e:	4423      	add	r3, r4
 8003ca0:	d422      	bmi.n	8003ce8 <UASPEP_SEND_PACKET+0x58>
  WRITE_REG(((DMA_Stream_TypeDef*)((uint32_t)((uint32_t)DMAx + STREAM_OFFSET_TAB[Stream])))->M0AR, MemoryAddress);
 8003ca2:	60d9      	str	r1, [r3, #12]
  MODIFY_REG(((DMA_Stream_TypeDef*)((uint32_t)((uint32_t)DMAx + STREAM_OFFSET_TAB[Stream])))->NDTR, DMA_SxNDT, NbData);
 8003ca4:	6859      	ldr	r1, [r3, #4]
 8003ca6:	0c09      	lsrs	r1, r1, #16
 8003ca8:	0409      	lsls	r1, r1, #16
 8003caa:	430a      	orrs	r2, r1
 8003cac:	605a      	str	r2, [r3, #4]
  if (NULL == DMAx)
 8003cae:	b1ac      	cbz	r4, 8003cdc <UASPEP_SEND_PACKET+0x4c>
    register __IO uint32_t *preg = __DMA_PTR_REG_OFFSET(DMAx->LIFCR,(Stream<=3)?0:1);
 8003cb0:	2d03      	cmp	r5, #3
 8003cb2:	bf94      	ite	ls
 8003cb4:	2200      	movls	r2, #0
 8003cb6:	2201      	movhi	r2, #1
    WRITE_REG (*preg, 1 << __LL_DMA_IT_TC_BIT(Stream));
 8003cb8:	f015 0503 	ands.w	r5, r5, #3
    register __IO uint32_t *preg = __DMA_PTR_REG_OFFSET(DMAx->LIFCR,(Stream<=3)?0:1);
 8003cbc:	f104 0308 	add.w	r3, r4, #8
    WRITE_REG (*preg, 1 << __LL_DMA_IT_TC_BIT(Stream));
 8003cc0:	d015      	beq.n	8003cee <UASPEP_SEND_PACKET+0x5e>
 8003cc2:	2d01      	cmp	r5, #1
 8003cc4:	d01a      	beq.n	8003cfc <UASPEP_SEND_PACKET+0x6c>
 8003cc6:	2d02      	cmp	r5, #2
 8003cc8:	bf14      	ite	ne
 8003cca:	f04f 6100 	movne.w	r1, #134217728	@ 0x8000000
 8003cce:	f44f 1100 	moveq.w	r1, #2097152	@ 0x200000
 8003cd2:	f843 1022 	str.w	r1, [r3, r2, lsl #2]
  SET_BIT(((DMA_Stream_TypeDef *)((uint32_t)((uint32_t)DMAx + STREAM_OFFSET_TAB[Stream])))->CR, DMA_SxCR_EN);
 8003cd6:	6903      	ldr	r3, [r0, #16]
 8003cd8:	5cf3      	ldrb	r3, [r6, r3]
 8003cda:	4423      	add	r3, r4
 8003cdc:	681a      	ldr	r2, [r3, #0]
    //cstat !MISRAC2012-Rule-11.4 !MISRAC2012-Rule-11.6
    LL_DMA_SetMemoryAddress(pHandle->txDMA, pHandle->txChannel, (uint32_t)data);
    LL_DMA_SetDataLength(pHandle->txDMA, pHandle->txChannel, length);
    LL_DMA_ClearFlag_TC(pHandle->txDMA, pHandle->txChannel);
    LL_DMA_EnableStream(pHandle->txDMA, pHandle->txChannel);
    result = true;
 8003cde:	2001      	movs	r0, #1
 8003ce0:	4302      	orrs	r2, r0
  else
  {
    result = false;
  }
  return (result);
}
 8003ce2:	bcf0      	pop	{r4, r5, r6, r7}
 8003ce4:	601a      	str	r2, [r3, #0]
 8003ce6:	4770      	bx	lr
    result = false;
 8003ce8:	2000      	movs	r0, #0
}
 8003cea:	bcf0      	pop	{r4, r5, r6, r7}
 8003cec:	4770      	bx	lr
 8003cee:	2120      	movs	r1, #32
 8003cf0:	f843 1022 	str.w	r1, [r3, r2, lsl #2]
 8003cf4:	6903      	ldr	r3, [r0, #16]
 8003cf6:	5cf3      	ldrb	r3, [r6, r3]
 8003cf8:	4423      	add	r3, r4
 8003cfa:	e7ef      	b.n	8003cdc <UASPEP_SEND_PACKET+0x4c>
 8003cfc:	f44f 6100 	mov.w	r1, #2048	@ 0x800
 8003d00:	e7f6      	b.n	8003cf0 <UASPEP_SEND_PACKET+0x60>
 8003d02:	bf00      	nop
 8003d04:	080078d0 	.word	0x080078d0

08003d08 <UASPEP_RECEIVE_BUFFER>:
  * @param  pHWHandle Hardware components chosen for communication
  * @param  buffer Buffer which will receive the communicated data
  * @param  length Length of the received data
  */
void UASPEP_RECEIVE_BUFFER(void *pHWHandle, void* buffer, uint16_t length)
{
 8003d08:	b430      	push	{r4, r5}
  WRITE_REG(((DMA_Stream_TypeDef*)((uint32_t)((uint32_t)DMAx + STREAM_OFFSET_TAB[Stream])))->M0AR, MemoryAddress);
 8003d0a:	68c3      	ldr	r3, [r0, #12]
 8003d0c:	4d09      	ldr	r5, [pc, #36]	@ (8003d34 <UASPEP_RECEIVE_BUFFER+0x2c>)
 8003d0e:	6844      	ldr	r4, [r0, #4]
 8003d10:	5ce8      	ldrb	r0, [r5, r3]
 8003d12:	eb04 0c00 	add.w	ip, r4, r0
 8003d16:	f8cc 100c 	str.w	r1, [ip, #12]
  MODIFY_REG(((DMA_Stream_TypeDef*)((uint32_t)((uint32_t)DMAx + STREAM_OFFSET_TAB[Stream])))->NDTR, DMA_SxNDT, NbData);
 8003d1a:	f8dc 3004 	ldr.w	r3, [ip, #4]
 8003d1e:	0c1b      	lsrs	r3, r3, #16
 8003d20:	041b      	lsls	r3, r3, #16
 8003d22:	4313      	orrs	r3, r2
 8003d24:	f8cc 3004 	str.w	r3, [ip, #4]
  SET_BIT(((DMA_Stream_TypeDef *)((uint32_t)((uint32_t)DMAx + STREAM_OFFSET_TAB[Stream])))->CR, DMA_SxCR_EN);
 8003d28:	5823      	ldr	r3, [r4, r0]
 8003d2a:	f043 0301 	orr.w	r3, r3, #1
 8003d2e:	5023      	str	r3, [r4, r0]
  //cstat !MISRAC2012-Rule-11.4 !MISRAC2012-Rule-11.6
  LL_DMA_SetMemoryAddress(pHandle->rxDMA, pHandle->rxChannel, (uint32_t)buffer);
  LL_DMA_SetDataLength(pHandle->rxDMA, pHandle->rxChannel, length);

  LL_DMA_EnableStream(pHandle->rxDMA, pHandle->rxChannel);
}
 8003d30:	bc30      	pop	{r4, r5}
 8003d32:	4770      	bx	lr
 8003d34:	080078d0 	.word	0x080078d0

08003d38 <UASPEP_IDLE_ENABLE>:
  * @param  pHandle Handler of the current instance of the UASPEP component
  */
void UASPEP_IDLE_ENABLE(void *pHWHandle)
{
  UASPEP_Handle_t *pHandle = (UASPEP_Handle_t *)pHWHandle; //cstat !MISRAC2012-Rule-11.5
  LL_USART_ClearFlag_IDLE(pHandle->USARTx);
 8003d38:	6802      	ldr	r2, [r0, #0]
{
 8003d3a:	b082      	sub	sp, #8
  tmpreg = USARTx->SR;
 8003d3c:	6813      	ldr	r3, [r2, #0]
 8003d3e:	9301      	str	r3, [sp, #4]
  (void) tmpreg;
 8003d40:	9b01      	ldr	r3, [sp, #4]
  tmpreg = USARTx->DR;
 8003d42:	6853      	ldr	r3, [r2, #4]
 8003d44:	9301      	str	r3, [sp, #4]
  (void) tmpreg;
 8003d46:	9b01      	ldr	r3, [sp, #4]
  ATOMIC_SET_BIT(USARTx->CR1, USART_CR1_IDLEIE);
 8003d48:	320c      	adds	r2, #12
   __ASM volatile ("ldrex %0, %1" : "=r" (result) : "Q" (*addr) );
 8003d4a:	e852 3f00 	ldrex	r3, [r2]
 8003d4e:	f043 0310 	orr.w	r3, r3, #16
   __ASM volatile ("strex %0, %2, %1" : "=&r" (result), "=Q" (*addr) : "r" (value) );
 8003d52:	e842 3100 	strex	r1, r3, [r2]
 8003d56:	2900      	cmp	r1, #0
 8003d58:	d1f7      	bne.n	8003d4a <UASPEP_IDLE_ENABLE+0x12>
  LL_USART_EnableIT_IDLE(pHandle->USARTx);
}
 8003d5a:	b002      	add	sp, #8
 8003d5c:	4770      	bx	lr
 8003d5e:	bf00      	nop

08003d60 <SystemInit>:
  */
void SystemInit(void)
{
  /* FPU settings ------------------------------------------------------------*/
  #if (__FPU_PRESENT == 1) && (__FPU_USED == 1)
    SCB->CPACR |= ((3UL << 10*2)|(3UL << 11*2));  /* set CP10 and CP11 Full Access */
 8003d60:	4a03      	ldr	r2, [pc, #12]	@ (8003d70 <SystemInit+0x10>)
 8003d62:	f8d2 3088 	ldr.w	r3, [r2, #136]	@ 0x88
 8003d66:	f443 0370 	orr.w	r3, r3, #15728640	@ 0xf00000
 8003d6a:	f8c2 3088 	str.w	r3, [r2, #136]	@ 0x88

  /* Configure the Vector Table location -------------------------------------*/
#if defined(USER_VECT_TAB_ADDRESS)
  SCB->VTOR = VECT_TAB_BASE_ADDRESS | VECT_TAB_OFFSET; /* Vector Table Relocation in Internal SRAM */
#endif /* USER_VECT_TAB_ADDRESS */
}
 8003d6e:	4770      	bx	lr
 8003d70:	e000ed00 	.word	0xe000ed00

08003d74 <HAL_InitTick>:
  *       implementation  in user file.
  * @param TickPriority Tick interrupt priority.
  * @retval HAL status
  */
__weak HAL_StatusTypeDef HAL_InitTick(uint32_t TickPriority)
{
 8003d74:	b538      	push	{r3, r4, r5, lr}
  /* Configure the SysTick to have interrupt in 1ms time basis*/
  if (HAL_SYSTICK_Config(SystemCoreClock / (1000U / uwTickFreq)) > 0U)
 8003d76:	4a0e      	ldr	r2, [pc, #56]	@ (8003db0 <HAL_InitTick+0x3c>)
 8003d78:	4b0e      	ldr	r3, [pc, #56]	@ (8003db4 <HAL_InitTick+0x40>)
 8003d7a:	7812      	ldrb	r2, [r2, #0]
 8003d7c:	681b      	ldr	r3, [r3, #0]
{
 8003d7e:	4605      	mov	r5, r0
  if (HAL_SYSTICK_Config(SystemCoreClock / (1000U / uwTickFreq)) > 0U)
 8003d80:	f44f 707a 	mov.w	r0, #1000	@ 0x3e8
 8003d84:	fbb0 f0f2 	udiv	r0, r0, r2
 8003d88:	fbb3 f0f0 	udiv	r0, r3, r0
 8003d8c:	f000 fae6 	bl	800435c <HAL_SYSTICK_Config>
 8003d90:	b908      	cbnz	r0, 8003d96 <HAL_InitTick+0x22>
  {
    return HAL_ERROR;
  }

  /* Configure the SysTick IRQ priority */
  if (TickPriority < (1UL << __NVIC_PRIO_BITS))
 8003d92:	2d0f      	cmp	r5, #15
 8003d94:	d901      	bls.n	8003d9a <HAL_InitTick+0x26>
    return HAL_ERROR;
 8003d96:	2001      	movs	r0, #1
    return HAL_ERROR;
  }

  /* Return function status */
  return HAL_OK;
}
 8003d98:	bd38      	pop	{r3, r4, r5, pc}
 8003d9a:	4604      	mov	r4, r0
    HAL_NVIC_SetPriority(SysTick_IRQn, TickPriority, 0U);
 8003d9c:	4602      	mov	r2, r0
 8003d9e:	4629      	mov	r1, r5
 8003da0:	f04f 30ff 	mov.w	r0, #4294967295
 8003da4:	f000 fa90 	bl	80042c8 <HAL_NVIC_SetPriority>
    uwTickPrio = TickPriority;
 8003da8:	4b03      	ldr	r3, [pc, #12]	@ (8003db8 <HAL_InitTick+0x44>)
 8003daa:	4620      	mov	r0, r4
 8003dac:	601d      	str	r5, [r3, #0]
}
 8003dae:	bd38      	pop	{r3, r4, r5, pc}
 8003db0:	20000524 	.word	0x20000524
 8003db4:	20000520 	.word	0x20000520
 8003db8:	20000528 	.word	0x20000528

08003dbc <HAL_Init>:
{
 8003dbc:	b508      	push	{r3, lr}
  __HAL_FLASH_INSTRUCTION_CACHE_ENABLE();
 8003dbe:	4b0b      	ldr	r3, [pc, #44]	@ (8003dec <HAL_Init+0x30>)
 8003dc0:	681a      	ldr	r2, [r3, #0]
 8003dc2:	f442 7200 	orr.w	r2, r2, #512	@ 0x200
 8003dc6:	601a      	str	r2, [r3, #0]
  __HAL_FLASH_DATA_CACHE_ENABLE();
 8003dc8:	681a      	ldr	r2, [r3, #0]
 8003dca:	f442 6280 	orr.w	r2, r2, #1024	@ 0x400
 8003dce:	601a      	str	r2, [r3, #0]
  __HAL_FLASH_PREFETCH_BUFFER_ENABLE();
 8003dd0:	681a      	ldr	r2, [r3, #0]
 8003dd2:	f442 7280 	orr.w	r2, r2, #256	@ 0x100
 8003dd6:	601a      	str	r2, [r3, #0]
  HAL_NVIC_SetPriorityGrouping(NVIC_PRIORITYGROUP_4);
 8003dd8:	2003      	movs	r0, #3
 8003dda:	f000 fa63 	bl	80042a4 <HAL_NVIC_SetPriorityGrouping>
  HAL_InitTick(TICK_INT_PRIORITY);
 8003dde:	2004      	movs	r0, #4
 8003de0:	f7ff ffc8 	bl	8003d74 <HAL_InitTick>
  HAL_MspInit();
 8003de4:	f7ff fc7c 	bl	80036e0 <HAL_MspInit>
}
 8003de8:	2000      	movs	r0, #0
 8003dea:	bd08      	pop	{r3, pc}
 8003dec:	40023c00 	.word	0x40023c00

08003df0 <HAL_IncTick>:
  *      implementations in user file.
  * @retval None
  */
__weak void HAL_IncTick(void)
{
  uwTick += uwTickFreq;
 8003df0:	4a03      	ldr	r2, [pc, #12]	@ (8003e00 <HAL_IncTick+0x10>)
 8003df2:	4b04      	ldr	r3, [pc, #16]	@ (8003e04 <HAL_IncTick+0x14>)
 8003df4:	6811      	ldr	r1, [r2, #0]
 8003df6:	781b      	ldrb	r3, [r3, #0]
 8003df8:	440b      	add	r3, r1
 8003dfa:	6013      	str	r3, [r2, #0]
}
 8003dfc:	4770      	bx	lr
 8003dfe:	bf00      	nop
 8003e00:	20001968 	.word	0x20001968
 8003e04:	20000524 	.word	0x20000524

08003e08 <HAL_GetTick>:
  *       implementations in user file.
  * @retval tick value
  */
__weak uint32_t HAL_GetTick(void)
{
  return uwTick;
 8003e08:	4b01      	ldr	r3, [pc, #4]	@ (8003e10 <HAL_GetTick+0x8>)
 8003e0a:	6818      	ldr	r0, [r3, #0]
}
 8003e0c:	4770      	bx	lr
 8003e0e:	bf00      	nop
 8003e10:	20001968 	.word	0x20001968

08003e14 <HAL_Delay>:
  *       implementations in user file.
  * @param Delay specifies the delay time length, in milliseconds.
  * @retval None
  */
__weak void HAL_Delay(uint32_t Delay)
{
 8003e14:	b538      	push	{r3, r4, r5, lr}
 8003e16:	4604      	mov	r4, r0
  uint32_t tickstart = HAL_GetTick();
 8003e18:	f7ff fff6 	bl	8003e08 <HAL_GetTick>
  uint32_t wait = Delay;

  /* Add a freq to guarantee minimum wait */
  if (wait < HAL_MAX_DELAY)
 8003e1c:	1c63      	adds	r3, r4, #1
  uint32_t tickstart = HAL_GetTick();
 8003e1e:	4605      	mov	r5, r0
  if (wait < HAL_MAX_DELAY)
 8003e20:	d002      	beq.n	8003e28 <HAL_Delay+0x14>
  {
    wait += (uint32_t)(uwTickFreq);
 8003e22:	4b04      	ldr	r3, [pc, #16]	@ (8003e34 <HAL_Delay+0x20>)
 8003e24:	781b      	ldrb	r3, [r3, #0]
 8003e26:	441c      	add	r4, r3
  }

  while((HAL_GetTick() - tickstart) < wait)
 8003e28:	f7ff ffee 	bl	8003e08 <HAL_GetTick>
 8003e2c:	1b40      	subs	r0, r0, r5
 8003e2e:	42a0      	cmp	r0, r4
 8003e30:	d3fa      	bcc.n	8003e28 <HAL_Delay+0x14>
  {
  }
}
 8003e32:	bd38      	pop	{r3, r4, r5, pc}
 8003e34:	20000524 	.word	0x20000524

08003e38 <HAL_ADC_Init>:
HAL_StatusTypeDef HAL_ADC_Init(ADC_HandleTypeDef *hadc)
{
  HAL_StatusTypeDef tmp_hal_status = HAL_OK;

  /* Check ADC handle */
  if (hadc == NULL)
 8003e38:	2800      	cmp	r0, #0
 8003e3a:	f000 809e 	beq.w	8003f7a <HAL_ADC_Init+0x142>
{
 8003e3e:	b538      	push	{r3, r4, r5, lr}
  if (hadc->Init.ExternalTrigConv != ADC_SOFTWARE_START)
  {
    assert_param(IS_ADC_EXT_TRIG_EDGE(hadc->Init.ExternalTrigConvEdge));
  }

  if (hadc->State == HAL_ADC_STATE_RESET)
 8003e40:	6c05      	ldr	r5, [r0, #64]	@ 0x40
 8003e42:	4604      	mov	r4, r0
 8003e44:	b13d      	cbz	r5, 8003e56 <HAL_ADC_Init+0x1e>
    hadc->Lock = HAL_UNLOCKED;
  }

  /* Configuration of ADC parameters if previous preliminary actions are      */
  /* correctly completed.                                                     */
  if (HAL_IS_BIT_CLR(hadc->State, HAL_ADC_STATE_ERROR_INTERNAL))
 8003e46:	6c23      	ldr	r3, [r4, #64]	@ 0x40
 8003e48:	06db      	lsls	r3, r3, #27
 8003e4a:	d50c      	bpl.n	8003e66 <HAL_ADC_Init+0x2e>
  {
    tmp_hal_status = HAL_ERROR;
  }

  /* Release Lock */
  __HAL_UNLOCK(hadc);
 8003e4c:	2300      	movs	r3, #0
 8003e4e:	f884 303c 	strb.w	r3, [r4, #60]	@ 0x3c
    tmp_hal_status = HAL_ERROR;
 8003e52:	2001      	movs	r0, #1

  /* Return function status */
  return tmp_hal_status;
}
 8003e54:	bd38      	pop	{r3, r4, r5, pc}
    HAL_ADC_MspInit(hadc);
 8003e56:	f7ff fc61 	bl	800371c <HAL_ADC_MspInit>
    ADC_CLEAR_ERRORCODE(hadc);
 8003e5a:	6465      	str	r5, [r4, #68]	@ 0x44
  if (HAL_IS_BIT_CLR(hadc->State, HAL_ADC_STATE_ERROR_INTERNAL))
 8003e5c:	6c23      	ldr	r3, [r4, #64]	@ 0x40
    hadc->Lock = HAL_UNLOCKED;
 8003e5e:	f884 503c 	strb.w	r5, [r4, #60]	@ 0x3c
  if (HAL_IS_BIT_CLR(hadc->State, HAL_ADC_STATE_ERROR_INTERNAL))
 8003e62:	06db      	lsls	r3, r3, #27
 8003e64:	d4f2      	bmi.n	8003e4c <HAL_ADC_Init+0x14>
    ADC_STATE_CLR_SET(hadc->State,
 8003e66:	6c23      	ldr	r3, [r4, #64]	@ 0x40
  /* (Depending on STM32F4 product, there may be up to 3 ADCs and 1 common */
  /* control register)                                                    */
  tmpADC_Common = ADC_COMMON_REGISTER(hadc);

  /* Set the ADC clock prescaler */
  tmpADC_Common->CCR &= ~(ADC_CCR_ADCPRE);
 8003e68:	4a47      	ldr	r2, [pc, #284]	@ (8003f88 <HAL_ADC_Init+0x150>)
    ADC_STATE_CLR_SET(hadc->State,
 8003e6a:	f423 5388 	bic.w	r3, r3, #4352	@ 0x1100
 8003e6e:	f023 0302 	bic.w	r3, r3, #2
 8003e72:	f043 0302 	orr.w	r3, r3, #2
 8003e76:	6423      	str	r3, [r4, #64]	@ 0x40
  tmpADC_Common->CCR &= ~(ADC_CCR_ADCPRE);
 8003e78:	6851      	ldr	r1, [r2, #4]
  tmpADC_Common->CCR |=  hadc->Init.ClockPrescaler;

  /* Set ADC scan mode */
  hadc->Instance->CR1 &= ~(ADC_CR1_SCAN);
 8003e7a:	6823      	ldr	r3, [r4, #0]
  tmpADC_Common->CCR &= ~(ADC_CCR_ADCPRE);
 8003e7c:	f421 3140 	bic.w	r1, r1, #196608	@ 0x30000
 8003e80:	6051      	str	r1, [r2, #4]
  tmpADC_Common->CCR |=  hadc->Init.ClockPrescaler;
 8003e82:	6851      	ldr	r1, [r2, #4]
 8003e84:	6860      	ldr	r0, [r4, #4]
 8003e86:	4301      	orrs	r1, r0
 8003e88:	6051      	str	r1, [r2, #4]
  hadc->Instance->CR1 &= ~(ADC_CR1_SCAN);
 8003e8a:	685a      	ldr	r2, [r3, #4]
  hadc->Instance->CR1 |=  ADC_CR1_SCANCONV(hadc->Init.ScanConvMode);
 8003e8c:	6920      	ldr	r0, [r4, #16]

  /* Set ADC resolution */
  hadc->Instance->CR1 &= ~(ADC_CR1_RES);
  hadc->Instance->CR1 |=  hadc->Init.Resolution;
 8003e8e:	68a1      	ldr	r1, [r4, #8]
  hadc->Instance->CR1 &= ~(ADC_CR1_SCAN);
 8003e90:	f422 7280 	bic.w	r2, r2, #256	@ 0x100
 8003e94:	605a      	str	r2, [r3, #4]
  hadc->Instance->CR1 |=  ADC_CR1_SCANCONV(hadc->Init.ScanConvMode);
 8003e96:	685a      	ldr	r2, [r3, #4]
 8003e98:	ea42 2200 	orr.w	r2, r2, r0, lsl #8
 8003e9c:	605a      	str	r2, [r3, #4]
  hadc->Instance->CR1 &= ~(ADC_CR1_RES);
 8003e9e:	685a      	ldr	r2, [r3, #4]

  /* Set ADC data alignment */
  hadc->Instance->CR2 &= ~(ADC_CR2_ALIGN);
  hadc->Instance->CR2 |= hadc->Init.DataAlign;
 8003ea0:	68e0      	ldr	r0, [r4, #12]
  hadc->Instance->CR1 &= ~(ADC_CR1_RES);
 8003ea2:	f022 7240 	bic.w	r2, r2, #50331648	@ 0x3000000
 8003ea6:	605a      	str	r2, [r3, #4]
  hadc->Instance->CR1 |=  hadc->Init.Resolution;
 8003ea8:	685a      	ldr	r2, [r3, #4]
 8003eaa:	430a      	orrs	r2, r1
 8003eac:	605a      	str	r2, [r3, #4]
  hadc->Instance->CR2 &= ~(ADC_CR2_ALIGN);
 8003eae:	689a      	ldr	r2, [r3, #8]
  /* Enable external trigger if trigger selection is different of software  */
  /* start.                                                                 */
  /* Note: This configuration keeps the hardware feature of parameter       */
  /*       ExternalTrigConvEdge "trigger edge none" equivalent to           */
  /*       software start.                                                  */
  if (hadc->Init.ExternalTrigConv != ADC_SOFTWARE_START)
 8003eb0:	6aa1      	ldr	r1, [r4, #40]	@ 0x28
  hadc->Instance->CR2 &= ~(ADC_CR2_ALIGN);
 8003eb2:	f422 6200 	bic.w	r2, r2, #2048	@ 0x800
 8003eb6:	609a      	str	r2, [r3, #8]
  hadc->Instance->CR2 |= hadc->Init.DataAlign;
 8003eb8:	689a      	ldr	r2, [r3, #8]
 8003eba:	4302      	orrs	r2, r0
 8003ebc:	609a      	str	r2, [r3, #8]
  if (hadc->Init.ExternalTrigConv != ADC_SOFTWARE_START)
 8003ebe:	4a33      	ldr	r2, [pc, #204]	@ (8003f8c <HAL_ADC_Init+0x154>)
 8003ec0:	4291      	cmp	r1, r2
  {
    /* Select external trigger to start conversion */
    hadc->Instance->CR2 &= ~(ADC_CR2_EXTSEL);
 8003ec2:	689a      	ldr	r2, [r3, #8]
  if (hadc->Init.ExternalTrigConv != ADC_SOFTWARE_START)
 8003ec4:	d051      	beq.n	8003f6a <HAL_ADC_Init+0x132>
    hadc->Instance->CR2 &= ~(ADC_CR2_EXTSEL);
 8003ec6:	f022 6270 	bic.w	r2, r2, #251658240	@ 0xf000000
    hadc->Instance->CR2 |= hadc->Init.ExternalTrigConv;

    /* Select external trigger polarity */
    hadc->Instance->CR2 &= ~(ADC_CR2_EXTEN);
    hadc->Instance->CR2 |= hadc->Init.ExternalTrigConvEdge;
 8003eca:	6ae0      	ldr	r0, [r4, #44]	@ 0x2c
    hadc->Instance->CR2 &= ~(ADC_CR2_EXTSEL);
 8003ecc:	609a      	str	r2, [r3, #8]
    hadc->Instance->CR2 |= hadc->Init.ExternalTrigConv;
 8003ece:	689a      	ldr	r2, [r3, #8]
 8003ed0:	4311      	orrs	r1, r2
 8003ed2:	6099      	str	r1, [r3, #8]
    hadc->Instance->CR2 &= ~(ADC_CR2_EXTEN);
 8003ed4:	689a      	ldr	r2, [r3, #8]
 8003ed6:	f022 5240 	bic.w	r2, r2, #805306368	@ 0x30000000
 8003eda:	609a      	str	r2, [r3, #8]
    hadc->Instance->CR2 |= hadc->Init.ExternalTrigConvEdge;
 8003edc:	689a      	ldr	r2, [r3, #8]
 8003ede:	4302      	orrs	r2, r0
 8003ee0:	609a      	str	r2, [r3, #8]
    hadc->Instance->CR2 &= ~(ADC_CR2_EXTSEL);
    hadc->Instance->CR2 &= ~(ADC_CR2_EXTEN);
  }

  /* Enable or disable ADC continuous conversion mode */
  hadc->Instance->CR2 &= ~(ADC_CR2_CONT);
 8003ee2:	689a      	ldr	r2, [r3, #8]
 8003ee4:	f022 0202 	bic.w	r2, r2, #2
 8003ee8:	609a      	str	r2, [r3, #8]
  hadc->Instance->CR2 |= ADC_CR2_CONTINUOUS((uint32_t)hadc->Init.ContinuousConvMode);
 8003eea:	689a      	ldr	r2, [r3, #8]
 8003eec:	7e21      	ldrb	r1, [r4, #24]
 8003eee:	ea42 0241 	orr.w	r2, r2, r1, lsl #1
 8003ef2:	609a      	str	r2, [r3, #8]

  if (hadc->Init.DiscontinuousConvMode != DISABLE)
 8003ef4:	f894 2020 	ldrb.w	r2, [r4, #32]
 8003ef8:	2a00      	cmp	r2, #0
 8003efa:	d040      	beq.n	8003f7e <HAL_ADC_Init+0x146>
  {
    assert_param(IS_ADC_REGULAR_DISC_NUMBER(hadc->Init.NbrOfDiscConversion));

    /* Enable the selected ADC regular discontinuous mode */
    hadc->Instance->CR1 |= (uint32_t)ADC_CR1_DISCEN;
 8003efc:	685a      	ldr	r2, [r3, #4]

    /* Set the number of channels to be converted in discontinuous mode */
    hadc->Instance->CR1 &= ~(ADC_CR1_DISCNUM);
    hadc->Instance->CR1 |=  ADC_CR1_DISCONTINUOUS(hadc->Init.NbrOfDiscConversion);
 8003efe:	6a61      	ldr	r1, [r4, #36]	@ 0x24
    hadc->Instance->CR1 |= (uint32_t)ADC_CR1_DISCEN;
 8003f00:	f442 6200 	orr.w	r2, r2, #2048	@ 0x800
 8003f04:	605a      	str	r2, [r3, #4]
    hadc->Instance->CR1 &= ~(ADC_CR1_DISCNUM);
 8003f06:	685a      	ldr	r2, [r3, #4]
 8003f08:	f422 4260 	bic.w	r2, r2, #57344	@ 0xe000
 8003f0c:	605a      	str	r2, [r3, #4]
    hadc->Instance->CR1 |=  ADC_CR1_DISCONTINUOUS(hadc->Init.NbrOfDiscConversion);
 8003f0e:	685a      	ldr	r2, [r3, #4]
 8003f10:	3901      	subs	r1, #1
 8003f12:	ea42 3241 	orr.w	r2, r2, r1, lsl #13
 8003f16:	605a      	str	r2, [r3, #4]
    /* Disable the selected ADC regular discontinuous mode */
    hadc->Instance->CR1 &= ~(ADC_CR1_DISCEN);
  }

  /* Set ADC number of conversion */
  hadc->Instance->SQR1 &= ~(ADC_SQR1_L);
 8003f18:	6ada      	ldr	r2, [r3, #44]	@ 0x2c
  hadc->Instance->SQR1 |=  ADC_SQR1(hadc->Init.NbrOfConversion);
 8003f1a:	69e1      	ldr	r1, [r4, #28]
  hadc->Instance->SQR1 &= ~(ADC_SQR1_L);
 8003f1c:	f422 0270 	bic.w	r2, r2, #15728640	@ 0xf00000
 8003f20:	62da      	str	r2, [r3, #44]	@ 0x2c
  hadc->Instance->SQR1 |=  ADC_SQR1(hadc->Init.NbrOfConversion);
 8003f22:	6ada      	ldr	r2, [r3, #44]	@ 0x2c
 8003f24:	3901      	subs	r1, #1
 8003f26:	ea42 5201 	orr.w	r2, r2, r1, lsl #20
 8003f2a:	62da      	str	r2, [r3, #44]	@ 0x2c

  /* Enable or disable ADC DMA continuous request */
  hadc->Instance->CR2 &= ~(ADC_CR2_DDS);
 8003f2c:	689a      	ldr	r2, [r3, #8]
  hadc->Instance->CR2 |= ADC_CR2_DMAContReq((uint32_t)hadc->Init.DMAContinuousRequests);

  /* Enable or disable ADC end of conversion selection */
  hadc->Instance->CR2 &= ~(ADC_CR2_EOCS);
  hadc->Instance->CR2 |= ADC_CR2_EOCSelection(hadc->Init.EOCSelection);
 8003f2e:	6961      	ldr	r1, [r4, #20]
  hadc->Instance->CR2 &= ~(ADC_CR2_DDS);
 8003f30:	f422 7200 	bic.w	r2, r2, #512	@ 0x200
 8003f34:	609a      	str	r2, [r3, #8]
  hadc->Instance->CR2 |= ADC_CR2_DMAContReq((uint32_t)hadc->Init.DMAContinuousRequests);
 8003f36:	689a      	ldr	r2, [r3, #8]
 8003f38:	f894 0030 	ldrb.w	r0, [r4, #48]	@ 0x30
 8003f3c:	ea42 2240 	orr.w	r2, r2, r0, lsl #9
 8003f40:	609a      	str	r2, [r3, #8]
  hadc->Instance->CR2 &= ~(ADC_CR2_EOCS);
 8003f42:	689a      	ldr	r2, [r3, #8]
 8003f44:	f422 6280 	bic.w	r2, r2, #1024	@ 0x400
 8003f48:	609a      	str	r2, [r3, #8]
  hadc->Instance->CR2 |= ADC_CR2_EOCSelection(hadc->Init.EOCSelection);
 8003f4a:	689a      	ldr	r2, [r3, #8]
    ADC_CLEAR_ERRORCODE(hadc);
 8003f4c:	2000      	movs	r0, #0
  hadc->Instance->CR2 |= ADC_CR2_EOCSelection(hadc->Init.EOCSelection);
 8003f4e:	ea42 2281 	orr.w	r2, r2, r1, lsl #10
 8003f52:	609a      	str	r2, [r3, #8]
    ADC_CLEAR_ERRORCODE(hadc);
 8003f54:	6460      	str	r0, [r4, #68]	@ 0x44
    ADC_STATE_CLR_SET(hadc->State,
 8003f56:	6c23      	ldr	r3, [r4, #64]	@ 0x40
 8003f58:	f023 0303 	bic.w	r3, r3, #3
 8003f5c:	f043 0301 	orr.w	r3, r3, #1
 8003f60:	6423      	str	r3, [r4, #64]	@ 0x40
  __HAL_UNLOCK(hadc);
 8003f62:	2300      	movs	r3, #0
 8003f64:	f884 303c 	strb.w	r3, [r4, #60]	@ 0x3c
}
 8003f68:	bd38      	pop	{r3, r4, r5, pc}
    hadc->Instance->CR2 &= ~(ADC_CR2_EXTSEL);
 8003f6a:	f022 6270 	bic.w	r2, r2, #251658240	@ 0xf000000
 8003f6e:	609a      	str	r2, [r3, #8]
    hadc->Instance->CR2 &= ~(ADC_CR2_EXTEN);
 8003f70:	689a      	ldr	r2, [r3, #8]
 8003f72:	f022 5240 	bic.w	r2, r2, #805306368	@ 0x30000000
 8003f76:	609a      	str	r2, [r3, #8]
 8003f78:	e7b3      	b.n	8003ee2 <HAL_ADC_Init+0xaa>
    return HAL_ERROR;
 8003f7a:	2001      	movs	r0, #1
}
 8003f7c:	4770      	bx	lr
    hadc->Instance->CR1 &= ~(ADC_CR1_DISCEN);
 8003f7e:	685a      	ldr	r2, [r3, #4]
 8003f80:	f422 6200 	bic.w	r2, r2, #2048	@ 0x800
 8003f84:	605a      	str	r2, [r3, #4]
 8003f86:	e7c7      	b.n	8003f18 <HAL_ADC_Init+0xe0>
 8003f88:	40012300 	.word	0x40012300
 8003f8c:	0f000001 	.word	0x0f000001

08003f90 <HAL_ADC_ConfigChannel>:
{
 8003f90:	b570      	push	{r4, r5, r6, lr}
  __HAL_LOCK(hadc);
 8003f92:	f890 303c 	ldrb.w	r3, [r0, #60]	@ 0x3c
{
 8003f96:	b082      	sub	sp, #8
 8003f98:	4602      	mov	r2, r0
  __HAL_LOCK(hadc);
 8003f9a:	2b01      	cmp	r3, #1
  __IO uint32_t counter = 0U;
 8003f9c:	f04f 0000 	mov.w	r0, #0
 8003fa0:	9001      	str	r0, [sp, #4]
  __HAL_LOCK(hadc);
 8003fa2:	f000 809e 	beq.w	80040e2 <HAL_ADC_ConfigChannel+0x152>
 8003fa6:	2301      	movs	r3, #1
 8003fa8:	f882 303c 	strb.w	r3, [r2, #60]	@ 0x3c
  if (sConfig->Channel > ADC_CHANNEL_9)
 8003fac:	680d      	ldr	r5, [r1, #0]
    hadc->Instance->SMPR1 &= ~ADC_SMPR1(ADC_SMPR1_SMP10, sConfig->Channel);
 8003fae:	6813      	ldr	r3, [r2, #0]
    hadc->Instance->SMPR1 |= ADC_SMPR1(sConfig->SamplingTime, sConfig->Channel);
 8003fb0:	688c      	ldr	r4, [r1, #8]
  if (sConfig->Channel > ADC_CHANNEL_9)
 8003fb2:	2d09      	cmp	r5, #9
 8003fb4:	b2a8      	uxth	r0, r5
 8003fb6:	d828      	bhi.n	800400a <HAL_ADC_ConfigChannel+0x7a>
    hadc->Instance->SMPR2 &= ~ADC_SMPR2(ADC_SMPR2_SMP0, sConfig->Channel);
 8003fb8:	691e      	ldr	r6, [r3, #16]
 8003fba:	eb05 0e45 	add.w	lr, r5, r5, lsl #1
 8003fbe:	f04f 0c07 	mov.w	ip, #7
 8003fc2:	fa0c fc0e 	lsl.w	ip, ip, lr
 8003fc6:	ea26 060c 	bic.w	r6, r6, ip
 8003fca:	611e      	str	r6, [r3, #16]
    hadc->Instance->SMPR2 |= ADC_SMPR2(sConfig->SamplingTime, sConfig->Channel);
 8003fcc:	691e      	ldr	r6, [r3, #16]
 8003fce:	fa04 f40e 	lsl.w	r4, r4, lr
 8003fd2:	4334      	orrs	r4, r6
 8003fd4:	611c      	str	r4, [r3, #16]
  if (sConfig->Rank < 7U)
 8003fd6:	684c      	ldr	r4, [r1, #4]
 8003fd8:	2c06      	cmp	r4, #6
    hadc->Instance->SQR3 &= ~ADC_SQR3_RK(ADC_SQR3_SQ1, sConfig->Rank);
 8003fda:	eb04 0184 	add.w	r1, r4, r4, lsl #2
  if (sConfig->Rank < 7U)
 8003fde:	d82a      	bhi.n	8004036 <HAL_ADC_ConfigChannel+0xa6>
    hadc->Instance->SQR3 &= ~ADC_SQR3_RK(ADC_SQR3_SQ1, sConfig->Rank);
 8003fe0:	6b5c      	ldr	r4, [r3, #52]	@ 0x34
 8003fe2:	3905      	subs	r1, #5
 8003fe4:	f04f 0c1f 	mov.w	ip, #31
    hadc->Instance->SQR3 |= ADC_SQR3_RK(sConfig->Channel, sConfig->Rank);
 8003fe8:	4088      	lsls	r0, r1
    hadc->Instance->SQR3 &= ~ADC_SQR3_RK(ADC_SQR3_SQ1, sConfig->Rank);
 8003fea:	fa0c f101 	lsl.w	r1, ip, r1
 8003fee:	ea24 0101 	bic.w	r1, r4, r1
 8003ff2:	6359      	str	r1, [r3, #52]	@ 0x34
    hadc->Instance->SQR3 |= ADC_SQR3_RK(sConfig->Channel, sConfig->Rank);
 8003ff4:	6b59      	ldr	r1, [r3, #52]	@ 0x34
 8003ff6:	4308      	orrs	r0, r1
 8003ff8:	6358      	str	r0, [r3, #52]	@ 0x34
  if ((hadc->Instance == ADC1) && (sConfig->Channel == ADC_CHANNEL_VBAT))
 8003ffa:	493b      	ldr	r1, [pc, #236]	@ (80040e8 <HAL_ADC_ConfigChannel+0x158>)
 8003ffc:	428b      	cmp	r3, r1
 8003ffe:	d02b      	beq.n	8004058 <HAL_ADC_ConfigChannel+0xc8>
  __HAL_UNLOCK(hadc);
 8004000:	2000      	movs	r0, #0
 8004002:	f882 003c 	strb.w	r0, [r2, #60]	@ 0x3c
}
 8004006:	b002      	add	sp, #8
 8004008:	bd70      	pop	{r4, r5, r6, pc}
    hadc->Instance->SMPR1 &= ~ADC_SMPR1(ADC_SMPR1_SMP10, sConfig->Channel);
 800400a:	eb00 0c40 	add.w	ip, r0, r0, lsl #1
 800400e:	68de      	ldr	r6, [r3, #12]
 8004010:	f1ac 0c1e 	sub.w	ip, ip, #30
 8004014:	f04f 0e07 	mov.w	lr, #7
    hadc->Instance->SMPR1 |= ADC_SMPR1(sConfig->SamplingTime, sConfig->Channel);
 8004018:	fa04 f40c 	lsl.w	r4, r4, ip
    hadc->Instance->SMPR1 &= ~ADC_SMPR1(ADC_SMPR1_SMP10, sConfig->Channel);
 800401c:	fa0e fc0c 	lsl.w	ip, lr, ip
 8004020:	ea26 060c 	bic.w	r6, r6, ip
 8004024:	60de      	str	r6, [r3, #12]
    hadc->Instance->SMPR1 |= ADC_SMPR1(sConfig->SamplingTime, sConfig->Channel);
 8004026:	68de      	ldr	r6, [r3, #12]
 8004028:	4334      	orrs	r4, r6
 800402a:	60dc      	str	r4, [r3, #12]
  if (sConfig->Rank < 7U)
 800402c:	684c      	ldr	r4, [r1, #4]
 800402e:	2c06      	cmp	r4, #6
    hadc->Instance->SQR3 &= ~ADC_SQR3_RK(ADC_SQR3_SQ1, sConfig->Rank);
 8004030:	eb04 0184 	add.w	r1, r4, r4, lsl #2
  if (sConfig->Rank < 7U)
 8004034:	d9d4      	bls.n	8003fe0 <HAL_ADC_ConfigChannel+0x50>
  else if (sConfig->Rank < 13U)
 8004036:	2c0c      	cmp	r4, #12
 8004038:	d81f      	bhi.n	800407a <HAL_ADC_ConfigChannel+0xea>
    hadc->Instance->SQR2 &= ~ADC_SQR2_RK(ADC_SQR2_SQ7, sConfig->Rank);
 800403a:	6b1c      	ldr	r4, [r3, #48]	@ 0x30
 800403c:	3923      	subs	r1, #35	@ 0x23
 800403e:	261f      	movs	r6, #31
    hadc->Instance->SQR2 |= ADC_SQR2_RK(sConfig->Channel, sConfig->Rank);
 8004040:	4088      	lsls	r0, r1
    hadc->Instance->SQR2 &= ~ADC_SQR2_RK(ADC_SQR2_SQ7, sConfig->Rank);
 8004042:	fa06 f101 	lsl.w	r1, r6, r1
 8004046:	ea24 0101 	bic.w	r1, r4, r1
 800404a:	6319      	str	r1, [r3, #48]	@ 0x30
    hadc->Instance->SQR2 |= ADC_SQR2_RK(sConfig->Channel, sConfig->Rank);
 800404c:	6b19      	ldr	r1, [r3, #48]	@ 0x30
 800404e:	4308      	orrs	r0, r1
  if ((hadc->Instance == ADC1) && (sConfig->Channel == ADC_CHANNEL_VBAT))
 8004050:	4925      	ldr	r1, [pc, #148]	@ (80040e8 <HAL_ADC_ConfigChannel+0x158>)
    hadc->Instance->SQR2 |= ADC_SQR2_RK(sConfig->Channel, sConfig->Rank);
 8004052:	6318      	str	r0, [r3, #48]	@ 0x30
  if ((hadc->Instance == ADC1) && (sConfig->Channel == ADC_CHANNEL_VBAT))
 8004054:	428b      	cmp	r3, r1
 8004056:	d1d3      	bne.n	8004000 <HAL_ADC_ConfigChannel+0x70>
 8004058:	2d12      	cmp	r5, #18
 800405a:	d01b      	beq.n	8004094 <HAL_ADC_ConfigChannel+0x104>
  if ((hadc->Instance == ADC1) && ((sConfig->Channel == ADC_CHANNEL_TEMPSENSOR) || (sConfig->Channel == ADC_CHANNEL_VREFINT)))
 800405c:	4b23      	ldr	r3, [pc, #140]	@ (80040ec <HAL_ADC_ConfigChannel+0x15c>)
 800405e:	429d      	cmp	r5, r3
 8004060:	d022      	beq.n	80040a8 <HAL_ADC_ConfigChannel+0x118>
 8004062:	2d11      	cmp	r5, #17
 8004064:	d1cc      	bne.n	8004000 <HAL_ADC_ConfigChannel+0x70>
      tmpADC_Common->CCR &= ~ADC_CCR_VBATE;
 8004066:	4b22      	ldr	r3, [pc, #136]	@ (80040f0 <HAL_ADC_ConfigChannel+0x160>)
 8004068:	6859      	ldr	r1, [r3, #4]
 800406a:	f421 0180 	bic.w	r1, r1, #4194304	@ 0x400000
 800406e:	6059      	str	r1, [r3, #4]
    tmpADC_Common->CCR |= ADC_CCR_TSVREFE;
 8004070:	6859      	ldr	r1, [r3, #4]
 8004072:	f441 0100 	orr.w	r1, r1, #8388608	@ 0x800000
 8004076:	6059      	str	r1, [r3, #4]
    if (sConfig->Channel == ADC_CHANNEL_TEMPSENSOR)
 8004078:	e7c2      	b.n	8004000 <HAL_ADC_ConfigChannel+0x70>
    hadc->Instance->SQR1 &= ~ADC_SQR1_RK(ADC_SQR1_SQ13, sConfig->Rank);
 800407a:	6adc      	ldr	r4, [r3, #44]	@ 0x2c
 800407c:	3941      	subs	r1, #65	@ 0x41
 800407e:	261f      	movs	r6, #31
    hadc->Instance->SQR1 |= ADC_SQR1_RK(sConfig->Channel, sConfig->Rank);
 8004080:	4088      	lsls	r0, r1
    hadc->Instance->SQR1 &= ~ADC_SQR1_RK(ADC_SQR1_SQ13, sConfig->Rank);
 8004082:	fa06 f101 	lsl.w	r1, r6, r1
 8004086:	ea24 0101 	bic.w	r1, r4, r1
 800408a:	62d9      	str	r1, [r3, #44]	@ 0x2c
    hadc->Instance->SQR1 |= ADC_SQR1_RK(sConfig->Channel, sConfig->Rank);
 800408c:	6ad9      	ldr	r1, [r3, #44]	@ 0x2c
 800408e:	4308      	orrs	r0, r1
 8004090:	62d8      	str	r0, [r3, #44]	@ 0x2c
 8004092:	e7b2      	b.n	8003ffa <HAL_ADC_ConfigChannel+0x6a>
      tmpADC_Common->CCR &= ~ADC_CCR_TSVREFE;
 8004094:	4b16      	ldr	r3, [pc, #88]	@ (80040f0 <HAL_ADC_ConfigChannel+0x160>)
 8004096:	6859      	ldr	r1, [r3, #4]
 8004098:	f421 0100 	bic.w	r1, r1, #8388608	@ 0x800000
 800409c:	6059      	str	r1, [r3, #4]
    tmpADC_Common->CCR |= ADC_CCR_VBATE;
 800409e:	6859      	ldr	r1, [r3, #4]
 80040a0:	f441 0180 	orr.w	r1, r1, #4194304	@ 0x400000
 80040a4:	6059      	str	r1, [r3, #4]
  if ((hadc->Instance == ADC1) && ((sConfig->Channel == ADC_CHANNEL_TEMPSENSOR) || (sConfig->Channel == ADC_CHANNEL_VREFINT)))
 80040a6:	e7ab      	b.n	8004000 <HAL_ADC_ConfigChannel+0x70>
      tmpADC_Common->CCR &= ~ADC_CCR_VBATE;
 80040a8:	4b11      	ldr	r3, [pc, #68]	@ (80040f0 <HAL_ADC_ConfigChannel+0x160>)
      counter = (ADC_TEMPSENSOR_DELAY_US * (SystemCoreClock / 1000000U));
 80040aa:	4c12      	ldr	r4, [pc, #72]	@ (80040f4 <HAL_ADC_ConfigChannel+0x164>)
      tmpADC_Common->CCR &= ~ADC_CCR_VBATE;
 80040ac:	6859      	ldr	r1, [r3, #4]
      counter = (ADC_TEMPSENSOR_DELAY_US * (SystemCoreClock / 1000000U));
 80040ae:	4812      	ldr	r0, [pc, #72]	@ (80040f8 <HAL_ADC_ConfigChannel+0x168>)
      tmpADC_Common->CCR &= ~ADC_CCR_VBATE;
 80040b0:	f421 0180 	bic.w	r1, r1, #4194304	@ 0x400000
 80040b4:	6059      	str	r1, [r3, #4]
    tmpADC_Common->CCR |= ADC_CCR_TSVREFE;
 80040b6:	6859      	ldr	r1, [r3, #4]
 80040b8:	f441 0100 	orr.w	r1, r1, #8388608	@ 0x800000
 80040bc:	6059      	str	r1, [r3, #4]
      counter = (ADC_TEMPSENSOR_DELAY_US * (SystemCoreClock / 1000000U));
 80040be:	6823      	ldr	r3, [r4, #0]
 80040c0:	fba0 0303 	umull	r0, r3, r0, r3
 80040c4:	0c9b      	lsrs	r3, r3, #18
 80040c6:	eb03 0383 	add.w	r3, r3, r3, lsl #2
 80040ca:	005b      	lsls	r3, r3, #1
 80040cc:	9301      	str	r3, [sp, #4]
      while (counter != 0U)
 80040ce:	9b01      	ldr	r3, [sp, #4]
 80040d0:	2b00      	cmp	r3, #0
 80040d2:	d095      	beq.n	8004000 <HAL_ADC_ConfigChannel+0x70>
        counter--;
 80040d4:	9b01      	ldr	r3, [sp, #4]
 80040d6:	3b01      	subs	r3, #1
 80040d8:	9301      	str	r3, [sp, #4]
      while (counter != 0U)
 80040da:	9b01      	ldr	r3, [sp, #4]
 80040dc:	2b00      	cmp	r3, #0
 80040de:	d1f9      	bne.n	80040d4 <HAL_ADC_ConfigChannel+0x144>
 80040e0:	e78e      	b.n	8004000 <HAL_ADC_ConfigChannel+0x70>
  __HAL_LOCK(hadc);
 80040e2:	2002      	movs	r0, #2
}
 80040e4:	b002      	add	sp, #8
 80040e6:	bd70      	pop	{r4, r5, r6, pc}
 80040e8:	40012000 	.word	0x40012000
 80040ec:	10000012 	.word	0x10000012
 80040f0:	40012300 	.word	0x40012300
 80040f4:	20000520 	.word	0x20000520
 80040f8:	431bde83 	.word	0x431bde83

080040fc <HAL_ADCEx_InjectedConfigChannel>:
  *         the configuration information for the specified ADC.
  * @param  sConfigInjected ADC configuration structure for injected channel.
  * @retval None
  */
HAL_StatusTypeDef HAL_ADCEx_InjectedConfigChannel(ADC_HandleTypeDef *hadc, ADC_InjectionConfTypeDef *sConfigInjected)
{
 80040fc:	b5f0      	push	{r4, r5, r6, r7, lr}
  {
    assert_param(IS_ADC_EXT_INJEC_TRIG_EDGE(sConfigInjected->ExternalTrigInjecConvEdge));
  }

  /* Process locked */
  __HAL_LOCK(hadc);
 80040fe:	f890 303c 	ldrb.w	r3, [r0, #60]	@ 0x3c
  if (sConfigInjected->ExternalTrigInjecConv != ADC_INJECTED_SOFTWARE_START)
 8004102:	698d      	ldr	r5, [r1, #24]
  __HAL_LOCK(hadc);
 8004104:	2b01      	cmp	r3, #1
 8004106:	f000 80c2 	beq.w	800428e <HAL_ADCEx_InjectedConfigChannel+0x192>
 800410a:	2301      	movs	r3, #1
 800410c:	f880 303c 	strb.w	r3, [r0, #60]	@ 0x3c

  /* if ADC_Channel_10 ... ADC_Channel_18 is selected */
  if (sConfigInjected->InjectedChannel > ADC_CHANNEL_9)
 8004110:	680c      	ldr	r4, [r1, #0]
  {
    /* Clear the old sample time */
    hadc->Instance->SMPR1 &= ~ADC_SMPR1(ADC_SMPR1_SMP10, sConfigInjected->InjectedChannel);
 8004112:	6803      	ldr	r3, [r0, #0]

    /* Set the new sample time */
    hadc->Instance->SMPR1 |= ADC_SMPR1(sConfigInjected->InjectedSamplingTime, sConfigInjected->InjectedChannel);
 8004114:	688a      	ldr	r2, [r1, #8]
  if (sConfigInjected->InjectedChannel > ADC_CHANNEL_9)
 8004116:	2c09      	cmp	r4, #9
 8004118:	4684      	mov	ip, r0
 800411a:	b2a0      	uxth	r0, r4
 800411c:	d861      	bhi.n	80041e2 <HAL_ADCEx_InjectedConfigChannel+0xe6>
  }
  else /* ADC_Channel include in ADC_Channel_[0..9] */
  {
    /* Clear the old sample time */
    hadc->Instance->SMPR2 &= ~ADC_SMPR2(ADC_SMPR2_SMP0, sConfigInjected->InjectedChannel);
 800411e:	691e      	ldr	r6, [r3, #16]
 8004120:	eb04 0e44 	add.w	lr, r4, r4, lsl #1
 8004124:	2707      	movs	r7, #7
 8004126:	fa07 f70e 	lsl.w	r7, r7, lr
 800412a:	ea26 0607 	bic.w	r6, r6, r7
 800412e:	611e      	str	r6, [r3, #16]

    /* Set the new sample time */
    hadc->Instance->SMPR2 |= ADC_SMPR2(sConfigInjected->InjectedSamplingTime, sConfigInjected->InjectedChannel);
 8004130:	691e      	ldr	r6, [r3, #16]
 8004132:	fa02 f20e 	lsl.w	r2, r2, lr
 8004136:	4332      	orrs	r2, r6
 8004138:	611a      	str	r2, [r3, #16]
  }

  /*---------------------------- ADCx JSQR Configuration -----------------*/
  hadc->Instance->JSQR &= ~(ADC_JSQR_JL);
 800413a:	6b9a      	ldr	r2, [r3, #56]	@ 0x38
  hadc->Instance->JSQR |=  ADC_SQR1(sConfigInjected->InjectedNbrOfConversion);
 800413c:	690f      	ldr	r7, [r1, #16]

  /* Rank configuration */

  /* Clear the old SQx bits for the selected rank */
  hadc->Instance->JSQR &= ~ADC_JSQR(ADC_JSQR_JSQ1, sConfigInjected->InjectedRank, sConfigInjected->InjectedNbrOfConversion);
 800413e:	684e      	ldr	r6, [r1, #4]
  hadc->Instance->JSQR &= ~(ADC_JSQR_JL);
 8004140:	f422 1240 	bic.w	r2, r2, #3145728	@ 0x300000
 8004144:	639a      	str	r2, [r3, #56]	@ 0x38
  hadc->Instance->JSQR |=  ADC_SQR1(sConfigInjected->InjectedNbrOfConversion);
 8004146:	6b9a      	ldr	r2, [r3, #56]	@ 0x38
 8004148:	f107 3eff 	add.w	lr, r7, #4294967295
 800414c:	ea42 520e 	orr.w	r2, r2, lr, lsl #20
 8004150:	639a      	str	r2, [r3, #56]	@ 0x38
  hadc->Instance->JSQR &= ~ADC_JSQR(ADC_JSQR_JSQ1, sConfigInjected->InjectedRank, sConfigInjected->InjectedNbrOfConversion);
 8004152:	1cf2      	adds	r2, r6, #3
 8004154:	1bd2      	subs	r2, r2, r7
 8004156:	b2d2      	uxtb	r2, r2
 8004158:	6b9f      	ldr	r7, [r3, #56]	@ 0x38
 800415a:	eb02 0282 	add.w	r2, r2, r2, lsl #2
 800415e:	f04f 0e1f 	mov.w	lr, #31

  /* Set the SQx bits for the selected rank */
  hadc->Instance->JSQR |= ADC_JSQR(sConfigInjected->InjectedChannel, sConfigInjected->InjectedRank, sConfigInjected->InjectedNbrOfConversion);
 8004162:	4090      	lsls	r0, r2
  hadc->Instance->JSQR &= ~ADC_JSQR(ADC_JSQR_JSQ1, sConfigInjected->InjectedRank, sConfigInjected->InjectedNbrOfConversion);
 8004164:	fa0e f202 	lsl.w	r2, lr, r2
 8004168:	ea27 0202 	bic.w	r2, r7, r2
 800416c:	639a      	str	r2, [r3, #56]	@ 0x38
  hadc->Instance->JSQR |= ADC_JSQR(sConfigInjected->InjectedChannel, sConfigInjected->InjectedRank, sConfigInjected->InjectedNbrOfConversion);
 800416e:	6b9a      	ldr	r2, [r3, #56]	@ 0x38
 8004170:	4310      	orrs	r0, r2
  /* Enable external trigger if trigger selection is different of software  */
  /* start.                                                                 */
  /* Note: This configuration keeps the hardware feature of parameter       */
  /*       ExternalTrigConvEdge "trigger edge none" equivalent to           */
  /*       software start.                                                  */
  if (sConfigInjected->ExternalTrigInjecConv != ADC_INJECTED_SOFTWARE_START)
 8004172:	4a48      	ldr	r2, [pc, #288]	@ (8004294 <HAL_ADCEx_InjectedConfigChannel+0x198>)
  hadc->Instance->JSQR |= ADC_JSQR(sConfigInjected->InjectedChannel, sConfigInjected->InjectedRank, sConfigInjected->InjectedNbrOfConversion);
 8004174:	6398      	str	r0, [r3, #56]	@ 0x38
  if (sConfigInjected->ExternalTrigInjecConv != ADC_INJECTED_SOFTWARE_START)
 8004176:	4295      	cmp	r5, r2
  {
    /* Select external trigger to start conversion */
    hadc->Instance->CR2 &= ~(ADC_CR2_JEXTSEL);
 8004178:	689a      	ldr	r2, [r3, #8]
 800417a:	f422 2270 	bic.w	r2, r2, #983040	@ 0xf0000
 800417e:	609a      	str	r2, [r3, #8]
    hadc->Instance->CR2 |=  sConfigInjected->ExternalTrigInjecConv;
 8004180:	689a      	ldr	r2, [r3, #8]
  if (sConfigInjected->ExternalTrigInjecConv != ADC_INJECTED_SOFTWARE_START)
 8004182:	d065      	beq.n	8004250 <HAL_ADCEx_InjectedConfigChannel+0x154>
    hadc->Instance->CR2 |=  sConfigInjected->ExternalTrigInjecConv;
 8004184:	4315      	orrs	r5, r2
 8004186:	609d      	str	r5, [r3, #8]

    /* Select external trigger polarity */
    hadc->Instance->CR2 &= ~(ADC_CR2_JEXTEN);
 8004188:	689a      	ldr	r2, [r3, #8]
    hadc->Instance->CR2 |= sConfigInjected->ExternalTrigInjecConvEdge;
 800418a:	69c8      	ldr	r0, [r1, #28]
    hadc->Instance->CR2 &= ~(ADC_CR2_JEXTEN);
 800418c:	f422 1240 	bic.w	r2, r2, #3145728	@ 0x300000
 8004190:	609a      	str	r2, [r3, #8]
    hadc->Instance->CR2 |= sConfigInjected->ExternalTrigInjecConvEdge;
 8004192:	689a      	ldr	r2, [r3, #8]
 8004194:	4302      	orrs	r2, r0
 8004196:	609a      	str	r2, [r3, #8]
    /* Reset the external trigger */
    hadc->Instance->CR2 &= ~(ADC_CR2_JEXTSEL);
    hadc->Instance->CR2 &= ~(ADC_CR2_JEXTEN);
  }

  if (sConfigInjected->AutoInjectedConv != DISABLE)
 8004198:	7d4a      	ldrb	r2, [r1, #21]
 800419a:	2a00      	cmp	r2, #0
 800419c:	d031      	beq.n	8004202 <HAL_ADCEx_InjectedConfigChannel+0x106>
  {
    /* Enable the selected ADC automatic injected group conversion */
    hadc->Instance->CR1 |= ADC_CR1_JAUTO;
 800419e:	685a      	ldr	r2, [r3, #4]
 80041a0:	f442 6280 	orr.w	r2, r2, #1024	@ 0x400
 80041a4:	605a      	str	r2, [r3, #4]
  {
    /* Disable the selected ADC automatic injected group conversion */
    hadc->Instance->CR1 &= ~(ADC_CR1_JAUTO);
  }

  if (sConfigInjected->InjectedDiscontinuousConvMode != DISABLE)
 80041a6:	7d0a      	ldrb	r2, [r1, #20]
 80041a8:	2a00      	cmp	r2, #0
 80041aa:	d031      	beq.n	8004210 <HAL_ADCEx_InjectedConfigChannel+0x114>
  {
    /* Enable the selected ADC injected discontinuous mode */
    hadc->Instance->CR1 |= ADC_CR1_JDISCEN;
 80041ac:	685a      	ldr	r2, [r3, #4]
 80041ae:	f442 5280 	orr.w	r2, r2, #4096	@ 0x1000
 80041b2:	605a      	str	r2, [r3, #4]
  {
    /* Disable the selected ADC injected discontinuous mode */
    hadc->Instance->CR1 &= ~(ADC_CR1_JDISCEN);
  }

  switch (sConfigInjected->InjectedRank)
 80041b4:	2e02      	cmp	r6, #2
  {
    case 1U:
      /* Set injected channel 1 offset */
      hadc->Instance->JOFR1 &= ~(ADC_JOFR1_JOFFSET1);
      hadc->Instance->JOFR1 |= sConfigInjected->InjectedOffset;
 80041b6:	68ca      	ldr	r2, [r1, #12]
  switch (sConfigInjected->InjectedRank)
 80041b8:	d031      	beq.n	800421e <HAL_ADCEx_InjectedConfigChannel+0x122>
 80041ba:	2e03      	cmp	r6, #3
 80041bc:	d056      	beq.n	800426c <HAL_ADCEx_InjectedConfigChannel+0x170>
 80041be:	2e01      	cmp	r6, #1
 80041c0:	d04a      	beq.n	8004258 <HAL_ADCEx_InjectedConfigChannel+0x15c>
      hadc->Instance->JOFR3 &= ~(ADC_JOFR3_JOFFSET3);
      hadc->Instance->JOFR3 |= sConfigInjected->InjectedOffset;
      break;
    default:
      /* Set injected channel 4 offset */
      hadc->Instance->JOFR4 &= ~(ADC_JOFR4_JOFFSET4);
 80041c2:	6a19      	ldr	r1, [r3, #32]
 80041c4:	f421 617f 	bic.w	r1, r1, #4080	@ 0xff0
 80041c8:	f021 010f 	bic.w	r1, r1, #15
 80041cc:	6219      	str	r1, [r3, #32]
      hadc->Instance->JOFR4 |= sConfigInjected->InjectedOffset;
 80041ce:	6a19      	ldr	r1, [r3, #32]
 80041d0:	430a      	orrs	r2, r1
 80041d2:	621a      	str	r2, [r3, #32]
  /* (Depending on STM32F4 product, there may be up to 3 ADC and 1 common */
  /* control register)                                                    */
  tmpADC_Common = ADC_COMMON_REGISTER(hadc);

  /* if ADC1 Channel_18 is selected enable VBAT Channel */
  if ((hadc->Instance == ADC1) && (sConfigInjected->InjectedChannel == ADC_CHANNEL_VBAT))
 80041d4:	4a30      	ldr	r2, [pc, #192]	@ (8004298 <HAL_ADCEx_InjectedConfigChannel+0x19c>)
 80041d6:	4293      	cmp	r3, r2
 80041d8:	d02d      	beq.n	8004236 <HAL_ADCEx_InjectedConfigChannel+0x13a>
    /* Enable the TSVREFE channel*/
    tmpADC_Common->CCR |= ADC_CCR_TSVREFE;
  }

  /* Process unlocked */
  __HAL_UNLOCK(hadc);
 80041da:	2000      	movs	r0, #0
 80041dc:	f88c 003c 	strb.w	r0, [ip, #60]	@ 0x3c

  /* Return function status */
  return HAL_OK;
}
 80041e0:	bdf0      	pop	{r4, r5, r6, r7, pc}
    hadc->Instance->SMPR1 &= ~ADC_SMPR1(ADC_SMPR1_SMP10, sConfigInjected->InjectedChannel);
 80041e2:	eb00 0640 	add.w	r6, r0, r0, lsl #1
 80041e6:	68df      	ldr	r7, [r3, #12]
 80041e8:	3e1e      	subs	r6, #30
 80041ea:	f04f 0e07 	mov.w	lr, #7
    hadc->Instance->SMPR1 |= ADC_SMPR1(sConfigInjected->InjectedSamplingTime, sConfigInjected->InjectedChannel);
 80041ee:	40b2      	lsls	r2, r6
    hadc->Instance->SMPR1 &= ~ADC_SMPR1(ADC_SMPR1_SMP10, sConfigInjected->InjectedChannel);
 80041f0:	fa0e f606 	lsl.w	r6, lr, r6
 80041f4:	ea27 0606 	bic.w	r6, r7, r6
 80041f8:	60de      	str	r6, [r3, #12]
    hadc->Instance->SMPR1 |= ADC_SMPR1(sConfigInjected->InjectedSamplingTime, sConfigInjected->InjectedChannel);
 80041fa:	68de      	ldr	r6, [r3, #12]
 80041fc:	4332      	orrs	r2, r6
 80041fe:	60da      	str	r2, [r3, #12]
 8004200:	e79b      	b.n	800413a <HAL_ADCEx_InjectedConfigChannel+0x3e>
    hadc->Instance->CR1 &= ~(ADC_CR1_JAUTO);
 8004202:	685a      	ldr	r2, [r3, #4]
 8004204:	f422 6280 	bic.w	r2, r2, #1024	@ 0x400
 8004208:	605a      	str	r2, [r3, #4]
  if (sConfigInjected->InjectedDiscontinuousConvMode != DISABLE)
 800420a:	7d0a      	ldrb	r2, [r1, #20]
 800420c:	2a00      	cmp	r2, #0
 800420e:	d1cd      	bne.n	80041ac <HAL_ADCEx_InjectedConfigChannel+0xb0>
    hadc->Instance->CR1 &= ~(ADC_CR1_JDISCEN);
 8004210:	685a      	ldr	r2, [r3, #4]
 8004212:	f422 5280 	bic.w	r2, r2, #4096	@ 0x1000
 8004216:	605a      	str	r2, [r3, #4]
  switch (sConfigInjected->InjectedRank)
 8004218:	2e02      	cmp	r6, #2
      hadc->Instance->JOFR1 |= sConfigInjected->InjectedOffset;
 800421a:	68ca      	ldr	r2, [r1, #12]
  switch (sConfigInjected->InjectedRank)
 800421c:	d1cd      	bne.n	80041ba <HAL_ADCEx_InjectedConfigChannel+0xbe>
      hadc->Instance->JOFR2 &= ~(ADC_JOFR2_JOFFSET2);
 800421e:	6999      	ldr	r1, [r3, #24]
 8004220:	f421 617f 	bic.w	r1, r1, #4080	@ 0xff0
 8004224:	f021 010f 	bic.w	r1, r1, #15
 8004228:	6199      	str	r1, [r3, #24]
      hadc->Instance->JOFR2 |= sConfigInjected->InjectedOffset;
 800422a:	6999      	ldr	r1, [r3, #24]
 800422c:	430a      	orrs	r2, r1
 800422e:	619a      	str	r2, [r3, #24]
  if ((hadc->Instance == ADC1) && (sConfigInjected->InjectedChannel == ADC_CHANNEL_VBAT))
 8004230:	4a19      	ldr	r2, [pc, #100]	@ (8004298 <HAL_ADCEx_InjectedConfigChannel+0x19c>)
 8004232:	4293      	cmp	r3, r2
 8004234:	d1d1      	bne.n	80041da <HAL_ADCEx_InjectedConfigChannel+0xde>
 8004236:	2c12      	cmp	r4, #18
 8004238:	d022      	beq.n	8004280 <HAL_ADCEx_InjectedConfigChannel+0x184>
  if ((hadc->Instance == ADC1) && ((sConfigInjected->InjectedChannel == ADC_CHANNEL_TEMPSENSOR) || (sConfigInjected->InjectedChannel == ADC_CHANNEL_VREFINT)))
 800423a:	4b18      	ldr	r3, [pc, #96]	@ (800429c <HAL_ADCEx_InjectedConfigChannel+0x1a0>)
 800423c:	429c      	cmp	r4, r3
 800423e:	d001      	beq.n	8004244 <HAL_ADCEx_InjectedConfigChannel+0x148>
 8004240:	2c11      	cmp	r4, #17
 8004242:	d1ca      	bne.n	80041da <HAL_ADCEx_InjectedConfigChannel+0xde>
    tmpADC_Common->CCR |= ADC_CCR_TSVREFE;
 8004244:	4a16      	ldr	r2, [pc, #88]	@ (80042a0 <HAL_ADCEx_InjectedConfigChannel+0x1a4>)
 8004246:	6853      	ldr	r3, [r2, #4]
 8004248:	f443 0300 	orr.w	r3, r3, #8388608	@ 0x800000
 800424c:	6053      	str	r3, [r2, #4]
 800424e:	e7c4      	b.n	80041da <HAL_ADCEx_InjectedConfigChannel+0xde>
    hadc->Instance->CR2 &= ~(ADC_CR2_JEXTEN);
 8004250:	f422 1240 	bic.w	r2, r2, #3145728	@ 0x300000
 8004254:	609a      	str	r2, [r3, #8]
 8004256:	e79f      	b.n	8004198 <HAL_ADCEx_InjectedConfigChannel+0x9c>
      hadc->Instance->JOFR1 &= ~(ADC_JOFR1_JOFFSET1);
 8004258:	6959      	ldr	r1, [r3, #20]
 800425a:	f421 617f 	bic.w	r1, r1, #4080	@ 0xff0
 800425e:	f021 010f 	bic.w	r1, r1, #15
 8004262:	6159      	str	r1, [r3, #20]
      hadc->Instance->JOFR1 |= sConfigInjected->InjectedOffset;
 8004264:	6959      	ldr	r1, [r3, #20]
 8004266:	430a      	orrs	r2, r1
 8004268:	615a      	str	r2, [r3, #20]
      break;
 800426a:	e7b3      	b.n	80041d4 <HAL_ADCEx_InjectedConfigChannel+0xd8>
      hadc->Instance->JOFR3 &= ~(ADC_JOFR3_JOFFSET3);
 800426c:	69d9      	ldr	r1, [r3, #28]
 800426e:	f421 617f 	bic.w	r1, r1, #4080	@ 0xff0
 8004272:	f021 010f 	bic.w	r1, r1, #15
 8004276:	61d9      	str	r1, [r3, #28]
      hadc->Instance->JOFR3 |= sConfigInjected->InjectedOffset;
 8004278:	69d9      	ldr	r1, [r3, #28]
 800427a:	430a      	orrs	r2, r1
 800427c:	61da      	str	r2, [r3, #28]
      break;
 800427e:	e7a9      	b.n	80041d4 <HAL_ADCEx_InjectedConfigChannel+0xd8>
    tmpADC_Common->CCR |= ADC_CCR_VBATE;
 8004280:	f8d2 3304 	ldr.w	r3, [r2, #772]	@ 0x304
 8004284:	f443 0380 	orr.w	r3, r3, #4194304	@ 0x400000
 8004288:	f8c2 3304 	str.w	r3, [r2, #772]	@ 0x304
  if ((hadc->Instance == ADC1) && ((sConfigInjected->InjectedChannel == ADC_CHANNEL_TEMPSENSOR) || (sConfigInjected->InjectedChannel == ADC_CHANNEL_VREFINT)))
 800428c:	e7a5      	b.n	80041da <HAL_ADCEx_InjectedConfigChannel+0xde>
  __HAL_LOCK(hadc);
 800428e:	2002      	movs	r0, #2
}
 8004290:	bdf0      	pop	{r4, r5, r6, r7, pc}
 8004292:	bf00      	nop
 8004294:	000f0001 	.word	0x000f0001
 8004298:	40012000 	.word	0x40012000
 800429c:	10000012 	.word	0x10000012
 80042a0:	40012300 	.word	0x40012300

080042a4 <HAL_NVIC_SetPriorityGrouping>:
__STATIC_INLINE void __NVIC_SetPriorityGrouping(uint32_t PriorityGroup)
{
  uint32_t reg_value;
  uint32_t PriorityGroupTmp = (PriorityGroup & (uint32_t)0x07UL);             /* only values 0..7 are used          */

  reg_value  =  SCB->AIRCR;                                                   /* read old register configuration    */
 80042a4:	4907      	ldr	r1, [pc, #28]	@ (80042c4 <HAL_NVIC_SetPriorityGrouping+0x20>)
 80042a6:	68ca      	ldr	r2, [r1, #12]
  reg_value &= ~((uint32_t)(SCB_AIRCR_VECTKEY_Msk | SCB_AIRCR_PRIGROUP_Msk)); /* clear bits to change               */
  reg_value  =  (reg_value                                   |
                ((uint32_t)0x5FAUL << SCB_AIRCR_VECTKEY_Pos) |
                (PriorityGroupTmp << SCB_AIRCR_PRIGROUP_Pos)  );              /* Insert write key and priority group */
 80042a8:	0203      	lsls	r3, r0, #8
  reg_value &= ~((uint32_t)(SCB_AIRCR_VECTKEY_Msk | SCB_AIRCR_PRIGROUP_Msk)); /* clear bits to change               */
 80042aa:	f64f 00ff 	movw	r0, #63743	@ 0xf8ff
                (PriorityGroupTmp << SCB_AIRCR_PRIGROUP_Pos)  );              /* Insert write key and priority group */
 80042ae:	f403 63e0 	and.w	r3, r3, #1792	@ 0x700
  reg_value &= ~((uint32_t)(SCB_AIRCR_VECTKEY_Msk | SCB_AIRCR_PRIGROUP_Msk)); /* clear bits to change               */
 80042b2:	4002      	ands	r2, r0
                ((uint32_t)0x5FAUL << SCB_AIRCR_VECTKEY_Pos) |
 80042b4:	4313      	orrs	r3, r2
  reg_value  =  (reg_value                                   |
 80042b6:	f043 63bf 	orr.w	r3, r3, #100139008	@ 0x5f80000
 80042ba:	f443 3300 	orr.w	r3, r3, #131072	@ 0x20000
  SCB->AIRCR =  reg_value;
 80042be:	60cb      	str	r3, [r1, #12]
  /* Check the parameters */
  assert_param(IS_NVIC_PRIORITY_GROUP(PriorityGroup));
  
  /* Set the PRIGROUP[10:8] bits according to the PriorityGroup parameter value */
  NVIC_SetPriorityGrouping(PriorityGroup);
}
 80042c0:	4770      	bx	lr
 80042c2:	bf00      	nop
 80042c4:	e000ed00 	.word	0xe000ed00

080042c8 <HAL_NVIC_SetPriority>:
  \details Reads the priority grouping field from the NVIC Interrupt Controller.
  \return                Priority grouping field (SCB->AIRCR [10:8] PRIGROUP field).
 */
__STATIC_INLINE uint32_t __NVIC_GetPriorityGrouping(void)
{
  return ((uint32_t)((SCB->AIRCR & SCB_AIRCR_PRIGROUP_Msk) >> SCB_AIRCR_PRIGROUP_Pos));
 80042c8:	4b1b      	ldr	r3, [pc, #108]	@ (8004338 <HAL_NVIC_SetPriority+0x70>)
 80042ca:	68db      	ldr	r3, [r3, #12]
 80042cc:	f3c3 2302 	ubfx	r3, r3, #8, #3
  *         This parameter can be a value between 0 and 15
  *         A lower priority value indicates a higher priority.          
  * @retval None
  */
void HAL_NVIC_SetPriority(IRQn_Type IRQn, uint32_t PreemptPriority, uint32_t SubPriority)
{ 
 80042d0:	b500      	push	{lr}
{
  uint32_t PriorityGroupTmp = (PriorityGroup & (uint32_t)0x07UL);   /* only values 0..7 are used          */
  uint32_t PreemptPriorityBits;
  uint32_t SubPriorityBits;

  PreemptPriorityBits = ((7UL - PriorityGroupTmp) > (uint32_t)(__NVIC_PRIO_BITS)) ? (uint32_t)(__NVIC_PRIO_BITS) : (uint32_t)(7UL - PriorityGroupTmp);
 80042d2:	f1c3 0e07 	rsb	lr, r3, #7
 80042d6:	f1be 0f04 	cmp.w	lr, #4
  SubPriorityBits     = ((PriorityGroupTmp + (uint32_t)(__NVIC_PRIO_BITS)) < (uint32_t)7UL) ? (uint32_t)0UL : (uint32_t)((PriorityGroupTmp - 7UL) + (uint32_t)(__NVIC_PRIO_BITS));
 80042da:	f103 0c04 	add.w	ip, r3, #4
  PreemptPriorityBits = ((7UL - PriorityGroupTmp) > (uint32_t)(__NVIC_PRIO_BITS)) ? (uint32_t)(__NVIC_PRIO_BITS) : (uint32_t)(7UL - PriorityGroupTmp);
 80042de:	bf28      	it	cs
 80042e0:	f04f 0e04 	movcs.w	lr, #4
  SubPriorityBits     = ((PriorityGroupTmp + (uint32_t)(__NVIC_PRIO_BITS)) < (uint32_t)7UL) ? (uint32_t)0UL : (uint32_t)((PriorityGroupTmp - 7UL) + (uint32_t)(__NVIC_PRIO_BITS));
 80042e4:	f1bc 0f06 	cmp.w	ip, #6
 80042e8:	d91c      	bls.n	8004324 <HAL_NVIC_SetPriority+0x5c>
 80042ea:	f1a3 0c03 	sub.w	ip, r3, #3

  return (
           ((PreemptPriority & (uint32_t)((1UL << (PreemptPriorityBits)) - 1UL)) << SubPriorityBits) |
           ((SubPriority     & (uint32_t)((1UL << (SubPriorityBits    )) - 1UL)))
 80042ee:	f04f 33ff 	mov.w	r3, #4294967295
 80042f2:	fa03 f30c 	lsl.w	r3, r3, ip
 80042f6:	ea22 0203 	bic.w	r2, r2, r3
           ((PreemptPriority & (uint32_t)((1UL << (PreemptPriorityBits)) - 1UL)) << SubPriorityBits) |
 80042fa:	f04f 33ff 	mov.w	r3, #4294967295
 80042fe:	fa03 f30e 	lsl.w	r3, r3, lr
 8004302:	ea21 0303 	bic.w	r3, r1, r3
 8004306:	fa03 f30c 	lsl.w	r3, r3, ip
 800430a:	4313      	orrs	r3, r2
    NVIC->IP[((uint32_t)IRQn)]               = (uint8_t)((priority << (8U - __NVIC_PRIO_BITS)) & (uint32_t)0xFFUL);
 800430c:	011b      	lsls	r3, r3, #4
  if ((int32_t)(IRQn) >= 0)
 800430e:	2800      	cmp	r0, #0
    NVIC->IP[((uint32_t)IRQn)]               = (uint8_t)((priority << (8U - __NVIC_PRIO_BITS)) & (uint32_t)0xFFUL);
 8004310:	b2db      	uxtb	r3, r3
  if ((int32_t)(IRQn) >= 0)
 8004312:	db0a      	blt.n	800432a <HAL_NVIC_SetPriority+0x62>
    NVIC->IP[((uint32_t)IRQn)]               = (uint8_t)((priority << (8U - __NVIC_PRIO_BITS)) & (uint32_t)0xFFUL);
 8004314:	f100 4060 	add.w	r0, r0, #3758096384	@ 0xe0000000
 8004318:	f500 4061 	add.w	r0, r0, #57600	@ 0xe100
 800431c:	f880 3300 	strb.w	r3, [r0, #768]	@ 0x300
  assert_param(IS_NVIC_PREEMPTION_PRIORITY(PreemptPriority));
  
  prioritygroup = NVIC_GetPriorityGrouping();
  
  NVIC_SetPriority(IRQn, NVIC_EncodePriority(prioritygroup, PreemptPriority, SubPriority));
}
 8004320:	f85d fb04 	ldr.w	pc, [sp], #4
 8004324:	2200      	movs	r2, #0
  SubPriorityBits     = ((PriorityGroupTmp + (uint32_t)(__NVIC_PRIO_BITS)) < (uint32_t)7UL) ? (uint32_t)0UL : (uint32_t)((PriorityGroupTmp - 7UL) + (uint32_t)(__NVIC_PRIO_BITS));
 8004326:	4694      	mov	ip, r2
 8004328:	e7e7      	b.n	80042fa <HAL_NVIC_SetPriority+0x32>
    SCB->SHP[(((uint32_t)IRQn) & 0xFUL)-4UL] = (uint8_t)((priority << (8U - __NVIC_PRIO_BITS)) & (uint32_t)0xFFUL);
 800432a:	4a04      	ldr	r2, [pc, #16]	@ (800433c <HAL_NVIC_SetPriority+0x74>)
 800432c:	f000 000f 	and.w	r0, r0, #15
 8004330:	4402      	add	r2, r0
 8004332:	7613      	strb	r3, [r2, #24]
 8004334:	f85d fb04 	ldr.w	pc, [sp], #4
 8004338:	e000ed00 	.word	0xe000ed00
 800433c:	e000ecfc 	.word	0xe000ecfc

08004340 <HAL_NVIC_EnableIRQ>:
  if ((int32_t)(IRQn) >= 0)
 8004340:	2800      	cmp	r0, #0
 8004342:	db07      	blt.n	8004354 <HAL_NVIC_EnableIRQ+0x14>
    NVIC->ISER[(((uint32_t)IRQn) >> 5UL)] = (uint32_t)(1UL << (((uint32_t)IRQn) & 0x1FUL));
 8004344:	4a04      	ldr	r2, [pc, #16]	@ (8004358 <HAL_NVIC_EnableIRQ+0x18>)
 8004346:	0941      	lsrs	r1, r0, #5
 8004348:	2301      	movs	r3, #1
 800434a:	f000 001f 	and.w	r0, r0, #31
 800434e:	4083      	lsls	r3, r0
 8004350:	f842 3021 	str.w	r3, [r2, r1, lsl #2]
  /* Check the parameters */
  assert_param(IS_NVIC_DEVICE_IRQ(IRQn));
  
  /* Enable interrupt */
  NVIC_EnableIRQ(IRQn);
}
 8004354:	4770      	bx	lr
 8004356:	bf00      	nop
 8004358:	e000e100 	.word	0xe000e100

0800435c <HAL_SYSTICK_Config>:
           function <b>SysTick_Config</b> is not included. In this case, the file <b><i>device</i>.h</b>
           must contain a vendor-specific implementation of this function.
 */
__STATIC_INLINE uint32_t SysTick_Config(uint32_t ticks)
{
  if ((ticks - 1UL) > SysTick_LOAD_RELOAD_Msk)
 800435c:	3801      	subs	r0, #1
 800435e:	f1b0 7f80 	cmp.w	r0, #16777216	@ 0x1000000
 8004362:	d301      	bcc.n	8004368 <HAL_SYSTICK_Config+0xc>
  {
    return (1UL);                                                   /* Reload value impossible */
 8004364:	2001      	movs	r0, #1
  *                  - 1  Function failed.
  */
uint32_t HAL_SYSTICK_Config(uint32_t TicksNumb)
{
   return SysTick_Config(TicksNumb);
}
 8004366:	4770      	bx	lr
{
 8004368:	b410      	push	{r4}
  }

  SysTick->LOAD  = (uint32_t)(ticks - 1UL);                         /* set reload register */
 800436a:	f04f 23e0 	mov.w	r3, #3758153728	@ 0xe000e000
    SCB->SHP[(((uint32_t)IRQn) & 0xFUL)-4UL] = (uint8_t)((priority << (8U - __NVIC_PRIO_BITS)) & (uint32_t)0xFFUL);
 800436e:	4c07      	ldr	r4, [pc, #28]	@ (800438c <HAL_SYSTICK_Config+0x30>)
  SysTick->LOAD  = (uint32_t)(ticks - 1UL);                         /* set reload register */
 8004370:	6158      	str	r0, [r3, #20]
    SCB->SHP[(((uint32_t)IRQn) & 0xFUL)-4UL] = (uint8_t)((priority << (8U - __NVIC_PRIO_BITS)) & (uint32_t)0xFFUL);
 8004372:	f04f 0cf0 	mov.w	ip, #240	@ 0xf0
 8004376:	f884 c023 	strb.w	ip, [r4, #35]	@ 0x23
  NVIC_SetPriority (SysTick_IRQn, (1UL << __NVIC_PRIO_BITS) - 1UL); /* set Priority for Systick Interrupt */
  SysTick->VAL   = 0UL;                                             /* Load the SysTick Counter Value */
 800437a:	2200      	movs	r2, #0
  SysTick->CTRL  = SysTick_CTRL_CLKSOURCE_Msk |
 800437c:	2107      	movs	r1, #7
                   SysTick_CTRL_TICKINT_Msk   |
                   SysTick_CTRL_ENABLE_Msk;                         /* Enable SysTick IRQ and SysTick Timer */
  return (0UL);                                                     /* Function successful */
 800437e:	4610      	mov	r0, r2
  SysTick->VAL   = 0UL;                                             /* Load the SysTick Counter Value */
 8004380:	619a      	str	r2, [r3, #24]
}
 8004382:	f85d 4b04 	ldr.w	r4, [sp], #4
  SysTick->CTRL  = SysTick_CTRL_CLKSOURCE_Msk |
 8004386:	6119      	str	r1, [r3, #16]
 8004388:	4770      	bx	lr
 800438a:	bf00      	nop
 800438c:	e000ed00 	.word	0xe000ed00

08004390 <HAL_SYSTICK_Callback>:
__weak void HAL_SYSTICK_Callback(void)
{
  /* NOTE : This function Should not be modified, when the callback is needed,
            the HAL_SYSTICK_Callback could be implemented in the user file
   */
}
 8004390:	4770      	bx	lr
 8004392:	bf00      	nop

08004394 <HAL_SYSTICK_IRQHandler>:
{
 8004394:	b508      	push	{r3, lr}
  HAL_SYSTICK_Callback();
 8004396:	f7ff fffb 	bl	8004390 <HAL_SYSTICK_Callback>
}
 800439a:	bd08      	pop	{r3, pc}

0800439c <HAL_DMA_Init>:
  * @param  hdma Pointer to a DMA_HandleTypeDef structure that contains
  *               the configuration information for the specified DMA Stream.  
  * @retval HAL status
  */
HAL_StatusTypeDef HAL_DMA_Init(DMA_HandleTypeDef *hdma)
{
 800439c:	b538      	push	{r3, r4, r5, lr}
 800439e:	4604      	mov	r4, r0
  uint32_t tmp = 0U;
  uint32_t tickstart = HAL_GetTick();
 80043a0:	f7ff fd32 	bl	8003e08 <HAL_GetTick>
  DMA_Base_Registers *regs;

  /* Check the DMA peripheral state */
  if(hdma == NULL)
 80043a4:	2c00      	cmp	r4, #0
 80043a6:	d06f      	beq.n	8004488 <HAL_DMA_Init+0xec>

  /* Allocate lock resource */
  __HAL_UNLOCK(hdma);
  
  /* Disable the peripheral */
  __HAL_DMA_DISABLE(hdma);
 80043a8:	6823      	ldr	r3, [r4, #0]
  __HAL_UNLOCK(hdma);
 80043aa:	2200      	movs	r2, #0
  hdma->State = HAL_DMA_STATE_BUSY;
 80043ac:	2102      	movs	r1, #2
 80043ae:	f884 1035 	strb.w	r1, [r4, #53]	@ 0x35
  __HAL_UNLOCK(hdma);
 80043b2:	f884 2034 	strb.w	r2, [r4, #52]	@ 0x34
  __HAL_DMA_DISABLE(hdma);
 80043b6:	681a      	ldr	r2, [r3, #0]
 80043b8:	f022 0201 	bic.w	r2, r2, #1
 80043bc:	4605      	mov	r5, r0
 80043be:	601a      	str	r2, [r3, #0]
  
  /* Check if the DMA Stream is effectively disabled */
  while((hdma->Instance->CR & DMA_SxCR_EN) != RESET)
 80043c0:	e005      	b.n	80043ce <HAL_DMA_Init+0x32>
  {
    /* Check for the Timeout */
    if((HAL_GetTick() - tickstart ) > HAL_TIMEOUT_DMA_ABORT)
 80043c2:	f7ff fd21 	bl	8003e08 <HAL_GetTick>
 80043c6:	1b43      	subs	r3, r0, r5
 80043c8:	2b05      	cmp	r3, #5
 80043ca:	d839      	bhi.n	8004440 <HAL_DMA_Init+0xa4>
  while((hdma->Instance->CR & DMA_SxCR_EN) != RESET)
 80043cc:	6823      	ldr	r3, [r4, #0]
 80043ce:	681a      	ldr	r2, [r3, #0]
 80043d0:	07d1      	lsls	r1, r2, #31
 80043d2:	d4f6      	bmi.n	80043c2 <HAL_DMA_Init+0x26>
                      DMA_SxCR_PL    | DMA_SxCR_MSIZE  | DMA_SxCR_PSIZE  | \
                      DMA_SxCR_MINC  | DMA_SxCR_PINC   | DMA_SxCR_CIRC   | \
                      DMA_SxCR_DIR   | DMA_SxCR_CT     | DMA_SxCR_DBM));

  /* Prepare the DMA Stream configuration */
  tmp |=  hdma->Init.Channel             | hdma->Init.Direction        |
 80043d4:	e9d4 2001 	ldrd	r2, r0, [r4, #4]
 80043d8:	68e1      	ldr	r1, [r4, #12]
 80043da:	4302      	orrs	r2, r0
 80043dc:	430a      	orrs	r2, r1
          hdma->Init.PeriphInc           | hdma->Init.MemInc           |
 80043de:	e9d4 5104 	ldrd	r5, r1, [r4, #16]
          hdma->Init.PeriphDataAlignment | hdma->Init.MemDataAlignment |
 80043e2:	69a0      	ldr	r0, [r4, #24]
          hdma->Init.PeriphInc           | hdma->Init.MemInc           |
 80043e4:	432a      	orrs	r2, r5
 80043e6:	430a      	orrs	r2, r1
          hdma->Init.PeriphDataAlignment | hdma->Init.MemDataAlignment |
 80043e8:	69e1      	ldr	r1, [r4, #28]
  tmp = hdma->Instance->CR;
 80043ea:	681d      	ldr	r5, [r3, #0]
          hdma->Init.PeriphDataAlignment | hdma->Init.MemDataAlignment |
 80043ec:	4302      	orrs	r2, r0
 80043ee:	430a      	orrs	r2, r1
  tmp &= ((uint32_t)~(DMA_SxCR_CHSEL | DMA_SxCR_MBURST | DMA_SxCR_PBURST | \
 80043f0:	4932      	ldr	r1, [pc, #200]	@ (80044bc <HAL_DMA_Init+0x120>)
 80043f2:	4029      	ands	r1, r5
          hdma->Init.Mode                | hdma->Init.Priority;
 80043f4:	6a25      	ldr	r5, [r4, #32]
 80043f6:	432a      	orrs	r2, r5
  tmp |=  hdma->Init.Channel             | hdma->Init.Direction        |
 80043f8:	430a      	orrs	r2, r1

  /* the Memory burst and peripheral burst are not used when the FIFO is disabled */
  if(hdma->Init.FIFOMode == DMA_FIFOMODE_ENABLE)
 80043fa:	6a61      	ldr	r1, [r4, #36]	@ 0x24
 80043fc:	2904      	cmp	r1, #4
 80043fe:	d026      	beq.n	800444e <HAL_DMA_Init+0xb2>
    /* Get memory burst and peripheral burst */
    tmp |=  hdma->Init.MemBurst | hdma->Init.PeriphBurst;
  }
  
  /* Write to DMA Stream CR register */
  hdma->Instance->CR = tmp;  
 8004400:	601a      	str	r2, [r3, #0]

  /* Get the FCR register value */
  tmp = hdma->Instance->FCR;
 8004402:	695a      	ldr	r2, [r3, #20]

  /* Clear Direct mode and FIFO threshold bits */
  tmp &= (uint32_t)~(DMA_SxFCR_DMDIS | DMA_SxFCR_FTH);
 8004404:	f022 0207 	bic.w	r2, r2, #7

  /* Prepare the DMA Stream FIFO configuration */
  tmp |= hdma->Init.FIFOMode;
 8004408:	4311      	orrs	r1, r2
  *                     the configuration information for the specified DMA Stream. 
  * @retval Stream base address
  */
static uint32_t DMA_CalcBaseAndBitshift(DMA_HandleTypeDef *hdma)
{
  uint32_t stream_number = (((uint32_t)hdma->Instance & 0xFFU) - 16U) / 24U;
 800440a:	b2d8      	uxtb	r0, r3
 800440c:	4a2c      	ldr	r2, [pc, #176]	@ (80044c0 <HAL_DMA_Init+0x124>)
  hdma->Instance->FCR = tmp;
 800440e:	6159      	str	r1, [r3, #20]
  uint32_t stream_number = (((uint32_t)hdma->Instance & 0xFFU) - 16U) / 24U;
 8004410:	3810      	subs	r0, #16
 8004412:	fba2 5200 	umull	r5, r2, r2, r0
 8004416:	0912      	lsrs	r2, r2, #4
  
  /* lookup table for necessary bitshift of flags within status registers */
  static const uint8_t flagBitshiftOffset[8U] = {0U, 6U, 16U, 22U, 0U, 6U, 16U, 22U};
  hdma->StreamIndex = flagBitshiftOffset[stream_number];
 8004418:	492a      	ldr	r1, [pc, #168]	@ (80044c4 <HAL_DMA_Init+0x128>)
  
  if (stream_number > 3U)
  {
    /* return pointer to HISR and HIFCR */
    hdma->StreamBaseAddress = (((uint32_t)hdma->Instance & (uint32_t)(~0x3FFU)) + 4U);
 800441a:	f423 737f 	bic.w	r3, r3, #1020	@ 0x3fc
  hdma->StreamIndex = flagBitshiftOffset[stream_number];
 800441e:	5c89      	ldrb	r1, [r1, r2]
 8004420:	65e1      	str	r1, [r4, #92]	@ 0x5c
    hdma->StreamBaseAddress = (((uint32_t)hdma->Instance & (uint32_t)(~0x3FFU)) + 4U);
 8004422:	f023 0303 	bic.w	r3, r3, #3
  if (stream_number > 3U)
 8004426:	285f      	cmp	r0, #95	@ 0x5f
    hdma->StreamBaseAddress = (((uint32_t)hdma->Instance & (uint32_t)(~0x3FFU)) + 4U);
 8004428:	bf88      	it	hi
 800442a:	3304      	addhi	r3, #4
  regs->IFCR = 0x3FU << hdma->StreamIndex;
 800442c:	223f      	movs	r2, #63	@ 0x3f
 800442e:	408a      	lsls	r2, r1
 8004430:	65a3      	str	r3, [r4, #88]	@ 0x58
  hdma->ErrorCode = HAL_DMA_ERROR_NONE;
 8004432:	2000      	movs	r0, #0
  regs->IFCR = 0x3FU << hdma->StreamIndex;
 8004434:	609a      	str	r2, [r3, #8]
  hdma->State = HAL_DMA_STATE_READY;
 8004436:	2301      	movs	r3, #1
  hdma->ErrorCode = HAL_DMA_ERROR_NONE;
 8004438:	6560      	str	r0, [r4, #84]	@ 0x54
  hdma->State = HAL_DMA_STATE_READY;
 800443a:	f884 3035 	strb.w	r3, [r4, #53]	@ 0x35
}
 800443e:	bd38      	pop	{r3, r4, r5, pc}
      hdma->State = HAL_DMA_STATE_TIMEOUT;
 8004440:	2303      	movs	r3, #3
      hdma->ErrorCode = HAL_DMA_ERROR_TIMEOUT;
 8004442:	2220      	movs	r2, #32
 8004444:	6562      	str	r2, [r4, #84]	@ 0x54
      hdma->State = HAL_DMA_STATE_TIMEOUT;
 8004446:	f884 3035 	strb.w	r3, [r4, #53]	@ 0x35
      return HAL_TIMEOUT;
 800444a:	4618      	mov	r0, r3
}
 800444c:	bd38      	pop	{r3, r4, r5, pc}
    tmp |=  hdma->Init.MemBurst | hdma->Init.PeriphBurst;
 800444e:	e9d4 510b 	ldrd	r5, r1, [r4, #44]	@ 0x2c
 8004452:	4329      	orrs	r1, r5
 8004454:	4311      	orrs	r1, r2
  hdma->Instance->CR = tmp;  
 8004456:	6019      	str	r1, [r3, #0]
  tmp = hdma->Instance->FCR;
 8004458:	6959      	ldr	r1, [r3, #20]
    tmp |= hdma->Init.FIFOThreshold;
 800445a:	6aa2      	ldr	r2, [r4, #40]	@ 0x28
  tmp &= (uint32_t)~(DMA_SxFCR_DMDIS | DMA_SxFCR_FTH);
 800445c:	f021 0107 	bic.w	r1, r1, #7
 8004460:	4311      	orrs	r1, r2
    tmp |= hdma->Init.FIFOThreshold;
 8004462:	f041 0104 	orr.w	r1, r1, #4
    if (hdma->Init.MemBurst != DMA_MBURST_SINGLE)
 8004466:	2d00      	cmp	r5, #0
 8004468:	d0cf      	beq.n	800440a <HAL_DMA_Init+0x6e>
{
  HAL_StatusTypeDef status = HAL_OK;
  uint32_t tmp = hdma->Init.FIFOThreshold;
  
  /* Memory Data size equal to Byte */
  if(hdma->Init.MemDataAlignment == DMA_MDATAALIGN_BYTE)
 800446a:	b178      	cbz	r0, 800448c <HAL_DMA_Init+0xf0>
      break;
    }
  }
  
  /* Memory Data size equal to Half-Word */
  else if (hdma->Init.MemDataAlignment == DMA_MDATAALIGN_HALFWORD)
 800446c:	f5b0 5f00 	cmp.w	r0, #8192	@ 0x2000
 8004470:	d016      	beq.n	80044a0 <HAL_DMA_Init+0x104>
  }
  
  /* Memory Data size equal to Word */
  else
  {
    switch (tmp)
 8004472:	2a02      	cmp	r2, #2
 8004474:	d903      	bls.n	800447e <HAL_DMA_Init+0xe2>
 8004476:	2a03      	cmp	r2, #3
 8004478:	d1c7      	bne.n	800440a <HAL_DMA_Init+0x6e>
    case DMA_FIFO_THRESHOLD_HALFFULL:
    case DMA_FIFO_THRESHOLD_3QUARTERSFULL:
      status = HAL_ERROR;
      break;
    case DMA_FIFO_THRESHOLD_FULL:
      if ((hdma->Init.MemBurst & DMA_SxCR_MBURST_1) == DMA_SxCR_MBURST_1)
 800447a:	01ea      	lsls	r2, r5, #7
 800447c:	d5c5      	bpl.n	800440a <HAL_DMA_Init+0x6e>
        hdma->ErrorCode = HAL_DMA_ERROR_PARAM;
 800447e:	2240      	movs	r2, #64	@ 0x40
        hdma->State = HAL_DMA_STATE_READY;
 8004480:	2301      	movs	r3, #1
        hdma->ErrorCode = HAL_DMA_ERROR_PARAM;
 8004482:	6562      	str	r2, [r4, #84]	@ 0x54
        hdma->State = HAL_DMA_STATE_READY;
 8004484:	f884 3035 	strb.w	r3, [r4, #53]	@ 0x35
    return HAL_ERROR;
 8004488:	2001      	movs	r0, #1
}
 800448a:	bd38      	pop	{r3, r4, r5, pc}
    switch (tmp)
 800448c:	2a01      	cmp	r2, #1
 800448e:	d003      	beq.n	8004498 <HAL_DMA_Init+0xfc>
 8004490:	f032 0202 	bics.w	r2, r2, #2
 8004494:	d1b9      	bne.n	800440a <HAL_DMA_Init+0x6e>
 8004496:	e7f0      	b.n	800447a <HAL_DMA_Init+0xde>
      if (hdma->Init.MemBurst == DMA_MBURST_INC16)
 8004498:	f1b5 7fc0 	cmp.w	r5, #25165824	@ 0x1800000
 800449c:	d1b5      	bne.n	800440a <HAL_DMA_Init+0x6e>
 800449e:	e7ee      	b.n	800447e <HAL_DMA_Init+0xe2>
    switch (tmp)
 80044a0:	2a03      	cmp	r2, #3
 80044a2:	d8b2      	bhi.n	800440a <HAL_DMA_Init+0x6e>
 80044a4:	a001      	add	r0, pc, #4	@ (adr r0, 80044ac <HAL_DMA_Init+0x110>)
 80044a6:	f850 f022 	ldr.w	pc, [r0, r2, lsl #2]
 80044aa:	bf00      	nop
 80044ac:	0800447f 	.word	0x0800447f
 80044b0:	0800447b 	.word	0x0800447b
 80044b4:	0800447f 	.word	0x0800447f
 80044b8:	08004499 	.word	0x08004499
 80044bc:	f010803f 	.word	0xf010803f
 80044c0:	aaaaaaab 	.word	0xaaaaaaab
 80044c4:	080078f0 	.word	0x080078f0

080044c8 <HAL_GPIO_Init>:
  * @param  GPIO_Init pointer to a GPIO_InitTypeDef structure that contains
  *         the configuration information for the specified GPIO peripheral.
  * @retval None
  */
void HAL_GPIO_Init(GPIO_TypeDef  *GPIOx, GPIO_InitTypeDef *GPIO_Init)
{
 80044c8:	e92d 4ff0 	stmdb	sp!, {r4, r5, r6, r7, r8, r9, sl, fp, lr}
  assert_param(IS_GPIO_ALL_INSTANCE(GPIOx));
  assert_param(IS_GPIO_PIN(GPIO_Init->Pin));
  assert_param(IS_GPIO_MODE(GPIO_Init->Mode));

  /* Configure the port pins */
  for(position = 0U; position < GPIO_NUMBER; position++)
 80044cc:	2300      	movs	r3, #0
  {
    /* Get the IO position */
    ioposition = 0x01U << position;
    /* Get the current IO position */
    iocurrent = (uint32_t)(GPIO_Init->Pin) & ioposition;
 80044ce:	680c      	ldr	r4, [r1, #0]
      /*--------------------- EXTI Mode Configuration ------------------------*/
      /* Configure the External Interrupt or event for the current IO */
      if((GPIO_Init->Mode & EXTI_MODE) != 0x00U)
      {
        /* Enable SYSCFG Clock */
        __HAL_RCC_SYSCFG_CLK_ENABLE();
 80044d0:	f8df a200 	ldr.w	sl, [pc, #512]	@ 80046d4 <HAL_GPIO_Init+0x20c>
{
 80044d4:	b085      	sub	sp, #20
    ioposition = 0x01U << position;
 80044d6:	f04f 0b01 	mov.w	fp, #1

        temp = SYSCFG->EXTICR[position >> 2U];
        temp &= ~(0x0FU << (4U * (position & 0x03U)));
 80044da:	4689      	mov	r9, r1
 80044dc:	e003      	b.n	80044e6 <HAL_GPIO_Init+0x1e>
  for(position = 0U; position < GPIO_NUMBER; position++)
 80044de:	3301      	adds	r3, #1
 80044e0:	2b10      	cmp	r3, #16
 80044e2:	f000 808c 	beq.w	80045fe <HAL_GPIO_Init+0x136>
    ioposition = 0x01U << position;
 80044e6:	fa0b f203 	lsl.w	r2, fp, r3
    iocurrent = (uint32_t)(GPIO_Init->Pin) & ioposition;
 80044ea:	ea02 0804 	and.w	r8, r2, r4
    if(iocurrent == ioposition)
 80044ee:	43a2      	bics	r2, r4
 80044f0:	d1f5      	bne.n	80044de <HAL_GPIO_Init+0x16>
      if(((GPIO_Init->Mode & GPIO_MODE) == MODE_OUTPUT) || \
 80044f2:	f8d9 1004 	ldr.w	r1, [r9, #4]
 80044f6:	f001 0203 	and.w	r2, r1, #3
 80044fa:	ea4f 0c43 	mov.w	ip, r3, lsl #1
        temp &= ~(GPIO_OSPEEDER_OSPEEDR0 << (position * 2U));
 80044fe:	2503      	movs	r5, #3
      if(((GPIO_Init->Mode & GPIO_MODE) == MODE_OUTPUT) || \
 8004500:	1e57      	subs	r7, r2, #1
        temp &= ~(GPIO_OSPEEDER_OSPEEDR0 << (position * 2U));
 8004502:	fa05 f50c 	lsl.w	r5, r5, ip
      if(((GPIO_Init->Mode & GPIO_MODE) == MODE_OUTPUT) || \
 8004506:	2f01      	cmp	r7, #1
        temp &= ~(GPIO_OSPEEDER_OSPEEDR0 << (position * 2U));
 8004508:	ea6f 0505 	mvn.w	r5, r5
      if(((GPIO_Init->Mode & GPIO_MODE) == MODE_OUTPUT) || \
 800450c:	d97a      	bls.n	8004604 <HAL_GPIO_Init+0x13c>
      if((GPIO_Init->Mode & GPIO_MODE) != MODE_ANALOG)
 800450e:	2a03      	cmp	r2, #3
 8004510:	f040 80b1 	bne.w	8004676 <HAL_GPIO_Init+0x1ae>
      temp = GPIOx->MODER;
 8004514:	6807      	ldr	r7, [r0, #0]
      temp |= ((GPIO_Init->Mode & GPIO_MODE) << (position * 2U));
 8004516:	fa02 f20c 	lsl.w	r2, r2, ip
      temp &= ~(GPIO_MODER_MODER0 << (position * 2U));
 800451a:	403d      	ands	r5, r7
      temp |= ((GPIO_Init->Mode & GPIO_MODE) << (position * 2U));
 800451c:	432a      	orrs	r2, r5
      if((GPIO_Init->Mode & EXTI_MODE) != 0x00U)
 800451e:	f411 3f40 	tst.w	r1, #196608	@ 0x30000
      GPIOx->MODER = temp;
 8004522:	6002      	str	r2, [r0, #0]
      if((GPIO_Init->Mode & EXTI_MODE) != 0x00U)
 8004524:	d0db      	beq.n	80044de <HAL_GPIO_Init+0x16>
        __HAL_RCC_SYSCFG_CLK_ENABLE();
 8004526:	2200      	movs	r2, #0
 8004528:	9203      	str	r2, [sp, #12]
 800452a:	f8da 2044 	ldr.w	r2, [sl, #68]	@ 0x44
 800452e:	f442 4280 	orr.w	r2, r2, #16384	@ 0x4000
 8004532:	f8ca 2044 	str.w	r2, [sl, #68]	@ 0x44
 8004536:	f8da 2044 	ldr.w	r2, [sl, #68]	@ 0x44
 800453a:	f402 4280 	and.w	r2, r2, #16384	@ 0x4000
 800453e:	9203      	str	r2, [sp, #12]
 8004540:	9a03      	ldr	r2, [sp, #12]
        temp = SYSCFG->EXTICR[position >> 2U];
 8004542:	f023 0203 	bic.w	r2, r3, #3
 8004546:	f102 4280 	add.w	r2, r2, #1073741824	@ 0x40000000
        temp &= ~(0x0FU << (4U * (position & 0x03U)));
 800454a:	f003 0703 	and.w	r7, r3, #3
 800454e:	260f      	movs	r6, #15
 8004550:	f502 329c 	add.w	r2, r2, #79872	@ 0x13800
 8004554:	00bf      	lsls	r7, r7, #2
 8004556:	fa06 fc07 	lsl.w	ip, r6, r7
        temp |= ((uint32_t)(GPIO_GET_INDEX(GPIOx)) << (4U * (position & 0x03U)));
 800455a:	4e5b      	ldr	r6, [pc, #364]	@ (80046c8 <HAL_GPIO_Init+0x200>)
        temp = SYSCFG->EXTICR[position >> 2U];
 800455c:	6895      	ldr	r5, [r2, #8]
        temp |= ((uint32_t)(GPIO_GET_INDEX(GPIOx)) << (4U * (position & 0x03U)));
 800455e:	42b0      	cmp	r0, r6
        temp &= ~(0x0FU << (4U * (position & 0x03U)));
 8004560:	ea25 050c 	bic.w	r5, r5, ip
        temp |= ((uint32_t)(GPIO_GET_INDEX(GPIOx)) << (4U * (position & 0x03U)));
 8004564:	d022      	beq.n	80045ac <HAL_GPIO_Init+0xe4>
 8004566:	f506 6680 	add.w	r6, r6, #1024	@ 0x400
 800456a:	42b0      	cmp	r0, r6
 800456c:	f000 808e 	beq.w	800468c <HAL_GPIO_Init+0x1c4>
 8004570:	4e56      	ldr	r6, [pc, #344]	@ (80046cc <HAL_GPIO_Init+0x204>)
 8004572:	42b0      	cmp	r0, r6
 8004574:	f000 8090 	beq.w	8004698 <HAL_GPIO_Init+0x1d0>
 8004578:	f8df c15c 	ldr.w	ip, [pc, #348]	@ 80046d8 <HAL_GPIO_Init+0x210>
 800457c:	4560      	cmp	r0, ip
 800457e:	f000 8091 	beq.w	80046a4 <HAL_GPIO_Init+0x1dc>
 8004582:	f8df c158 	ldr.w	ip, [pc, #344]	@ 80046dc <HAL_GPIO_Init+0x214>
 8004586:	4560      	cmp	r0, ip
 8004588:	f000 8092 	beq.w	80046b0 <HAL_GPIO_Init+0x1e8>
 800458c:	f8df c150 	ldr.w	ip, [pc, #336]	@ 80046e0 <HAL_GPIO_Init+0x218>
 8004590:	4560      	cmp	r0, ip
 8004592:	f000 8093 	beq.w	80046bc <HAL_GPIO_Init+0x1f4>
 8004596:	f8df c14c 	ldr.w	ip, [pc, #332]	@ 80046e4 <HAL_GPIO_Init+0x21c>
 800459a:	4560      	cmp	r0, ip
 800459c:	bf0c      	ite	eq
 800459e:	f04f 0c06 	moveq.w	ip, #6
 80045a2:	f04f 0c07 	movne.w	ip, #7
 80045a6:	fa0c f707 	lsl.w	r7, ip, r7
 80045aa:	433d      	orrs	r5, r7
        SYSCFG->EXTICR[position >> 2U] = temp;
 80045ac:	6095      	str	r5, [r2, #8]

        /* Clear Rising Falling edge configuration */
        temp = EXTI->RTSR;
 80045ae:	4a48      	ldr	r2, [pc, #288]	@ (80046d0 <HAL_GPIO_Init+0x208>)
 80045b0:	6892      	ldr	r2, [r2, #8]
        temp &= ~((uint32_t)iocurrent);
        if((GPIO_Init->Mode & TRIGGER_RISING) != 0x00U)
 80045b2:	02ce      	lsls	r6, r1, #11
        temp &= ~((uint32_t)iocurrent);
 80045b4:	ea6f 0508 	mvn.w	r5, r8
        {
          temp |= iocurrent;
        }
        EXTI->RTSR = temp;
 80045b8:	4e45      	ldr	r6, [pc, #276]	@ (80046d0 <HAL_GPIO_Init+0x208>)
        temp &= ~((uint32_t)iocurrent);
 80045ba:	bf54      	ite	pl
 80045bc:	402a      	andpl	r2, r5
          temp |= iocurrent;
 80045be:	ea48 0202 	orrmi.w	r2, r8, r2
        EXTI->RTSR = temp;
 80045c2:	60b2      	str	r2, [r6, #8]

        temp = EXTI->FTSR;
 80045c4:	68f2      	ldr	r2, [r6, #12]
        temp &= ~((uint32_t)iocurrent);
        if((GPIO_Init->Mode & TRIGGER_FALLING) != 0x00U)
        {
          temp |= iocurrent;
        }
        EXTI->FTSR = temp;
 80045c6:	4e42      	ldr	r6, [pc, #264]	@ (80046d0 <HAL_GPIO_Init+0x208>)
        if((GPIO_Init->Mode & TRIGGER_FALLING) != 0x00U)
 80045c8:	028f      	lsls	r7, r1, #10
        temp &= ~((uint32_t)iocurrent);
 80045ca:	bf54      	ite	pl
 80045cc:	402a      	andpl	r2, r5
          temp |= iocurrent;
 80045ce:	ea48 0202 	orrmi.w	r2, r8, r2
        EXTI->FTSR = temp;
 80045d2:	60f2      	str	r2, [r6, #12]

        temp = EXTI->EMR;
 80045d4:	6872      	ldr	r2, [r6, #4]
        temp &= ~((uint32_t)iocurrent);
        if((GPIO_Init->Mode & EXTI_EVT) != 0x00U)
 80045d6:	038e      	lsls	r6, r1, #14
        {
          temp |= iocurrent;
        }
        EXTI->EMR = temp;
 80045d8:	4e3d      	ldr	r6, [pc, #244]	@ (80046d0 <HAL_GPIO_Init+0x208>)
        temp &= ~((uint32_t)iocurrent);
 80045da:	bf54      	ite	pl
 80045dc:	402a      	andpl	r2, r5
          temp |= iocurrent;
 80045de:	ea48 0202 	orrmi.w	r2, r8, r2
        EXTI->EMR = temp;
 80045e2:	6072      	str	r2, [r6, #4]

        /* Clear EXTI line configuration */
        temp = EXTI->IMR;
 80045e4:	6832      	ldr	r2, [r6, #0]
        temp &= ~((uint32_t)iocurrent);
        if((GPIO_Init->Mode & EXTI_IT) != 0x00U)
 80045e6:	03c9      	lsls	r1, r1, #15
  for(position = 0U; position < GPIO_NUMBER; position++)
 80045e8:	f103 0301 	add.w	r3, r3, #1
        {
          temp |= iocurrent;
        }
        EXTI->IMR = temp;
 80045ec:	4938      	ldr	r1, [pc, #224]	@ (80046d0 <HAL_GPIO_Init+0x208>)
        temp &= ~((uint32_t)iocurrent);
 80045ee:	bf54      	ite	pl
 80045f0:	402a      	andpl	r2, r5
          temp |= iocurrent;
 80045f2:	ea48 0202 	orrmi.w	r2, r8, r2
  for(position = 0U; position < GPIO_NUMBER; position++)
 80045f6:	2b10      	cmp	r3, #16
        EXTI->IMR = temp;
 80045f8:	600a      	str	r2, [r1, #0]
  for(position = 0U; position < GPIO_NUMBER; position++)
 80045fa:	f47f af74 	bne.w	80044e6 <HAL_GPIO_Init+0x1e>
      }
    }
  }
}
 80045fe:	b005      	add	sp, #20
 8004600:	e8bd 8ff0 	ldmia.w	sp!, {r4, r5, r6, r7, r8, r9, sl, fp, pc}
        temp = GPIOx->OSPEEDR; 
 8004604:	6887      	ldr	r7, [r0, #8]
        temp &= ~(GPIO_OSPEEDER_OSPEEDR0 << (position * 2U));
 8004606:	ea07 0e05 	and.w	lr, r7, r5
        temp |= (GPIO_Init->Speed << (position * 2U));
 800460a:	f8d9 700c 	ldr.w	r7, [r9, #12]
 800460e:	fa07 f70c 	lsl.w	r7, r7, ip
 8004612:	ea47 070e 	orr.w	r7, r7, lr
        GPIOx->OSPEEDR = temp;
 8004616:	6087      	str	r7, [r0, #8]
        temp = GPIOx->OTYPER;
 8004618:	6847      	ldr	r7, [r0, #4]
        temp &= ~(GPIO_OTYPER_OT_0 << position) ;
 800461a:	ea27 0e08 	bic.w	lr, r7, r8
        temp |= (((GPIO_Init->Mode & OUTPUT_TYPE) >> OUTPUT_TYPE_Pos) << position);
 800461e:	f3c1 1700 	ubfx	r7, r1, #4, #1
 8004622:	409f      	lsls	r7, r3
 8004624:	ea47 070e 	orr.w	r7, r7, lr
        GPIOx->OTYPER = temp;
 8004628:	6047      	str	r7, [r0, #4]
        temp = GPIOx->PUPDR;
 800462a:	68c7      	ldr	r7, [r0, #12]
        temp &= ~(GPIO_PUPDR_PUPDR0 << (position * 2U));
 800462c:	ea07 0e05 	and.w	lr, r7, r5
        temp |= ((GPIO_Init->Pull) << (position * 2U));
 8004630:	f8d9 7008 	ldr.w	r7, [r9, #8]
 8004634:	fa07 f70c 	lsl.w	r7, r7, ip
 8004638:	ea47 070e 	orr.w	r7, r7, lr
      if((GPIO_Init->Mode & GPIO_MODE) == MODE_AF)
 800463c:	2a02      	cmp	r2, #2
        GPIOx->PUPDR = temp;
 800463e:	60c7      	str	r7, [r0, #12]
      if((GPIO_Init->Mode & GPIO_MODE) == MODE_AF)
 8004640:	f47f af68 	bne.w	8004514 <HAL_GPIO_Init+0x4c>
        temp = GPIOx->AFR[position >> 3U];
 8004644:	08df      	lsrs	r7, r3, #3
 8004646:	eb00 0787 	add.w	r7, r0, r7, lsl #2
 800464a:	9701      	str	r7, [sp, #4]
 800464c:	6a3e      	ldr	r6, [r7, #32]
        temp |= ((uint32_t)(GPIO_Init->Alternate) << (((uint32_t)position & 0x07U) * 4U));
 800464e:	f8d9 7010 	ldr.w	r7, [r9, #16]
        temp = GPIOx->AFR[position >> 3U];
 8004652:	9600      	str	r6, [sp, #0]
        temp &= ~(0xFU << ((uint32_t)(position & 0x07U) * 4U)) ;
 8004654:	f003 0e07 	and.w	lr, r3, #7
 8004658:	ea4f 0e8e 	mov.w	lr, lr, lsl #2
 800465c:	260f      	movs	r6, #15
        temp |= ((uint32_t)(GPIO_Init->Alternate) << (((uint32_t)position & 0x07U) * 4U));
 800465e:	fa07 f70e 	lsl.w	r7, r7, lr
        temp &= ~(0xFU << ((uint32_t)(position & 0x07U) * 4U)) ;
 8004662:	fa06 fe0e 	lsl.w	lr, r6, lr
 8004666:	9e00      	ldr	r6, [sp, #0]
 8004668:	ea26 0e0e 	bic.w	lr, r6, lr
        GPIOx->AFR[position >> 3U] = temp;
 800466c:	9e01      	ldr	r6, [sp, #4]
        temp |= ((uint32_t)(GPIO_Init->Alternate) << (((uint32_t)position & 0x07U) * 4U));
 800466e:	ea47 070e 	orr.w	r7, r7, lr
        GPIOx->AFR[position >> 3U] = temp;
 8004672:	6237      	str	r7, [r6, #32]
 8004674:	e74e      	b.n	8004514 <HAL_GPIO_Init+0x4c>
        temp = GPIOx->PUPDR;
 8004676:	68c7      	ldr	r7, [r0, #12]
        temp &= ~(GPIO_PUPDR_PUPDR0 << (position * 2U));
 8004678:	ea07 0e05 	and.w	lr, r7, r5
        temp |= ((GPIO_Init->Pull) << (position * 2U));
 800467c:	f8d9 7008 	ldr.w	r7, [r9, #8]
 8004680:	fa07 f70c 	lsl.w	r7, r7, ip
 8004684:	ea47 070e 	orr.w	r7, r7, lr
        GPIOx->PUPDR = temp;
 8004688:	60c7      	str	r7, [r0, #12]
      if((GPIO_Init->Mode & GPIO_MODE) == MODE_AF)
 800468a:	e743      	b.n	8004514 <HAL_GPIO_Init+0x4c>
        temp |= ((uint32_t)(GPIO_GET_INDEX(GPIOx)) << (4U * (position & 0x03U)));
 800468c:	f04f 0c01 	mov.w	ip, #1
 8004690:	fa0c f707 	lsl.w	r7, ip, r7
 8004694:	433d      	orrs	r5, r7
 8004696:	e789      	b.n	80045ac <HAL_GPIO_Init+0xe4>
 8004698:	f04f 0c02 	mov.w	ip, #2
 800469c:	fa0c f707 	lsl.w	r7, ip, r7
 80046a0:	433d      	orrs	r5, r7
 80046a2:	e783      	b.n	80045ac <HAL_GPIO_Init+0xe4>
 80046a4:	f04f 0c03 	mov.w	ip, #3
 80046a8:	fa0c f707 	lsl.w	r7, ip, r7
 80046ac:	433d      	orrs	r5, r7
 80046ae:	e77d      	b.n	80045ac <HAL_GPIO_Init+0xe4>
 80046b0:	f04f 0c04 	mov.w	ip, #4
 80046b4:	fa0c f707 	lsl.w	r7, ip, r7
 80046b8:	433d      	orrs	r5, r7
 80046ba:	e777      	b.n	80045ac <HAL_GPIO_Init+0xe4>
 80046bc:	f04f 0c05 	mov.w	ip, #5
 80046c0:	fa0c f707 	lsl.w	r7, ip, r7
 80046c4:	433d      	orrs	r5, r7
 80046c6:	e771      	b.n	80045ac <HAL_GPIO_Init+0xe4>
 80046c8:	40020000 	.word	0x40020000
 80046cc:	40020800 	.word	0x40020800
 80046d0:	40013c00 	.word	0x40013c00
 80046d4:	40023800 	.word	0x40023800
 80046d8:	40020c00 	.word	0x40020c00
 80046dc:	40021000 	.word	0x40021000
 80046e0:	40021400 	.word	0x40021400
 80046e4:	40021800 	.word	0x40021800

080046e8 <HAL_GPIO_WritePin>:
{
  /* Check the parameters */
  assert_param(IS_GPIO_PIN(GPIO_Pin));
  assert_param(IS_GPIO_PIN_ACTION(PinState));

  if(PinState != GPIO_PIN_RESET)
 80046e8:	b902      	cbnz	r2, 80046ec <HAL_GPIO_WritePin+0x4>
  {
    GPIOx->BSRR = GPIO_Pin;
  }
  else
  {
    GPIOx->BSRR = (uint32_t)GPIO_Pin << 16U;
 80046ea:	0409      	lsls	r1, r1, #16
 80046ec:	6181      	str	r1, [r0, #24]
  }
}
 80046ee:	4770      	bx	lr

080046f0 <HAL_PWREx_EnableOverDrive>:
  *         During the Over-drive switch activation, no peripheral clocks should be enabled.   
  *         The peripheral clocks must be enabled once the Over-drive mode is activated.   
  * @retval HAL status
  */
HAL_StatusTypeDef HAL_PWREx_EnableOverDrive(void)
{
 80046f0:	b530      	push	{r4, r5, lr}
 80046f2:	b083      	sub	sp, #12
  uint32_t tickstart = 0U;

  __HAL_RCC_PWR_CLK_ENABLE();
 80046f4:	4b19      	ldr	r3, [pc, #100]	@ (800475c <HAL_PWREx_EnableOverDrive+0x6c>)
  
  /* Enable the Over-drive to extend the clock frequency to 180 Mhz */
  __HAL_PWR_OVERDRIVE_ENABLE();
 80046f6:	491a      	ldr	r1, [pc, #104]	@ (8004760 <HAL_PWREx_EnableOverDrive+0x70>)

  /* Get tick */
  tickstart = HAL_GetTick();

  while(!__HAL_PWR_GET_FLAG(PWR_FLAG_ODRDY))
 80046f8:	4d1a      	ldr	r5, [pc, #104]	@ (8004764 <HAL_PWREx_EnableOverDrive+0x74>)
  __HAL_RCC_PWR_CLK_ENABLE();
 80046fa:	2200      	movs	r2, #0
 80046fc:	9201      	str	r2, [sp, #4]
 80046fe:	6c1a      	ldr	r2, [r3, #64]	@ 0x40
 8004700:	f042 5280 	orr.w	r2, r2, #268435456	@ 0x10000000
 8004704:	641a      	str	r2, [r3, #64]	@ 0x40
 8004706:	6c1b      	ldr	r3, [r3, #64]	@ 0x40
 8004708:	f003 5380 	and.w	r3, r3, #268435456	@ 0x10000000
 800470c:	9301      	str	r3, [sp, #4]
  __HAL_PWR_OVERDRIVE_ENABLE();
 800470e:	2201      	movs	r2, #1
  __HAL_RCC_PWR_CLK_ENABLE();
 8004710:	9b01      	ldr	r3, [sp, #4]
  __HAL_PWR_OVERDRIVE_ENABLE();
 8004712:	640a      	str	r2, [r1, #64]	@ 0x40
  tickstart = HAL_GetTick();
 8004714:	f7ff fb78 	bl	8003e08 <HAL_GetTick>
 8004718:	4604      	mov	r4, r0
  while(!__HAL_PWR_GET_FLAG(PWR_FLAG_ODRDY))
 800471a:	e005      	b.n	8004728 <HAL_PWREx_EnableOverDrive+0x38>
  {
    if((HAL_GetTick() - tickstart) > PWR_OVERDRIVE_TIMEOUT_VALUE)
 800471c:	f7ff fb74 	bl	8003e08 <HAL_GetTick>
 8004720:	1b00      	subs	r0, r0, r4
 8004722:	f5b0 7f7a 	cmp.w	r0, #1000	@ 0x3e8
 8004726:	d816      	bhi.n	8004756 <HAL_PWREx_EnableOverDrive+0x66>
  while(!__HAL_PWR_GET_FLAG(PWR_FLAG_ODRDY))
 8004728:	686b      	ldr	r3, [r5, #4]
 800472a:	03da      	lsls	r2, r3, #15
 800472c:	d5f6      	bpl.n	800471c <HAL_PWREx_EnableOverDrive+0x2c>
      return HAL_TIMEOUT;
    }
  }
  
  /* Enable the Over-drive switch */
  __HAL_PWR_OVERDRIVESWITCHING_ENABLE();
 800472e:	4b0c      	ldr	r3, [pc, #48]	@ (8004760 <HAL_PWREx_EnableOverDrive+0x70>)

  /* Get tick */
  tickstart = HAL_GetTick();

  while(!__HAL_PWR_GET_FLAG(PWR_FLAG_ODSWRDY))
 8004730:	4d0c      	ldr	r5, [pc, #48]	@ (8004764 <HAL_PWREx_EnableOverDrive+0x74>)
  __HAL_PWR_OVERDRIVESWITCHING_ENABLE();
 8004732:	2201      	movs	r2, #1
 8004734:	645a      	str	r2, [r3, #68]	@ 0x44
  tickstart = HAL_GetTick();
 8004736:	f7ff fb67 	bl	8003e08 <HAL_GetTick>
 800473a:	4604      	mov	r4, r0
  while(!__HAL_PWR_GET_FLAG(PWR_FLAG_ODSWRDY))
 800473c:	e005      	b.n	800474a <HAL_PWREx_EnableOverDrive+0x5a>
  {
    if((HAL_GetTick() - tickstart ) > PWR_OVERDRIVE_TIMEOUT_VALUE)
 800473e:	f7ff fb63 	bl	8003e08 <HAL_GetTick>
 8004742:	1b00      	subs	r0, r0, r4
 8004744:	f5b0 7f7a 	cmp.w	r0, #1000	@ 0x3e8
 8004748:	d805      	bhi.n	8004756 <HAL_PWREx_EnableOverDrive+0x66>
  while(!__HAL_PWR_GET_FLAG(PWR_FLAG_ODSWRDY))
 800474a:	686b      	ldr	r3, [r5, #4]
 800474c:	039b      	lsls	r3, r3, #14
 800474e:	d5f6      	bpl.n	800473e <HAL_PWREx_EnableOverDrive+0x4e>
    {
      return HAL_TIMEOUT;
    }
  } 
  return HAL_OK;
 8004750:	2000      	movs	r0, #0
}
 8004752:	b003      	add	sp, #12
 8004754:	bd30      	pop	{r4, r5, pc}
      return HAL_TIMEOUT;
 8004756:	2003      	movs	r0, #3
}
 8004758:	b003      	add	sp, #12
 800475a:	bd30      	pop	{r4, r5, pc}
 800475c:	40023800 	.word	0x40023800
 8004760:	420e0000 	.word	0x420e0000
 8004764:	40007000 	.word	0x40007000

08004768 <HAL_RCC_ClockConfig>:
HAL_StatusTypeDef HAL_RCC_ClockConfig(RCC_ClkInitTypeDef  *RCC_ClkInitStruct, uint32_t FLatency)
{
  uint32_t tickstart;

  /* Check Null pointer */
  if(RCC_ClkInitStruct == NULL)
 8004768:	2800      	cmp	r0, #0
 800476a:	f000 8087 	beq.w	800487c <HAL_RCC_ClockConfig+0x114>
  /* To correctly read data from FLASH memory, the number of wait states (LATENCY)
    must be correctly programmed according to the frequency of the CPU clock
    (HCLK) and the supply voltage of the device. */

  /* Increasing the number of wait states because of higher CPU frequency */
  if(FLatency > __HAL_FLASH_GET_LATENCY())
 800476e:	4a48      	ldr	r2, [pc, #288]	@ (8004890 <HAL_RCC_ClockConfig+0x128>)
 8004770:	6813      	ldr	r3, [r2, #0]
 8004772:	f003 030f 	and.w	r3, r3, #15
 8004776:	428b      	cmp	r3, r1
{
 8004778:	e92d 41f0 	stmdb	sp!, {r4, r5, r6, r7, r8, lr}
 800477c:	460d      	mov	r5, r1
 800477e:	4604      	mov	r4, r0
  if(FLatency > __HAL_FLASH_GET_LATENCY())
 8004780:	d209      	bcs.n	8004796 <HAL_RCC_ClockConfig+0x2e>
  {
    /* Program the new number of wait states to the LATENCY bits in the FLASH_ACR register */
    __HAL_FLASH_SET_LATENCY(FLatency);
 8004782:	b2cb      	uxtb	r3, r1
 8004784:	7013      	strb	r3, [r2, #0]

    /* Check that the new number of wait states is taken into account to access the Flash
    memory by reading the FLASH_ACR register */
    if(__HAL_FLASH_GET_LATENCY() != FLatency)
 8004786:	6813      	ldr	r3, [r2, #0]
 8004788:	f003 030f 	and.w	r3, r3, #15
 800478c:	428b      	cmp	r3, r1
 800478e:	d002      	beq.n	8004796 <HAL_RCC_ClockConfig+0x2e>
    return HAL_ERROR;
 8004790:	2001      	movs	r0, #1

  /* Configure the source of time base considering new system clocks settings */
  HAL_InitTick (uwTickPrio);

  return HAL_OK;
}
 8004792:	e8bd 81f0 	ldmia.w	sp!, {r4, r5, r6, r7, r8, pc}
  if(((RCC_ClkInitStruct->ClockType) & RCC_CLOCKTYPE_HCLK) == RCC_CLOCKTYPE_HCLK)
 8004796:	6823      	ldr	r3, [r4, #0]
 8004798:	0798      	lsls	r0, r3, #30
 800479a:	d514      	bpl.n	80047c6 <HAL_RCC_ClockConfig+0x5e>
    if(((RCC_ClkInitStruct->ClockType) & RCC_CLOCKTYPE_PCLK1) == RCC_CLOCKTYPE_PCLK1)
 800479c:	0759      	lsls	r1, r3, #29
 800479e:	d504      	bpl.n	80047aa <HAL_RCC_ClockConfig+0x42>
      MODIFY_REG(RCC->CFGR, RCC_CFGR_PPRE1, RCC_HCLK_DIV16);
 80047a0:	493c      	ldr	r1, [pc, #240]	@ (8004894 <HAL_RCC_ClockConfig+0x12c>)
 80047a2:	688a      	ldr	r2, [r1, #8]
 80047a4:	f442 52e0 	orr.w	r2, r2, #7168	@ 0x1c00
 80047a8:	608a      	str	r2, [r1, #8]
    if(((RCC_ClkInitStruct->ClockType) & RCC_CLOCKTYPE_PCLK2) == RCC_CLOCKTYPE_PCLK2)
 80047aa:	071a      	lsls	r2, r3, #28
 80047ac:	d504      	bpl.n	80047b8 <HAL_RCC_ClockConfig+0x50>
      MODIFY_REG(RCC->CFGR, RCC_CFGR_PPRE2, (RCC_HCLK_DIV16 << 3));
 80047ae:	4939      	ldr	r1, [pc, #228]	@ (8004894 <HAL_RCC_ClockConfig+0x12c>)
 80047b0:	688a      	ldr	r2, [r1, #8]
 80047b2:	f442 4260 	orr.w	r2, r2, #57344	@ 0xe000
 80047b6:	608a      	str	r2, [r1, #8]
    MODIFY_REG(RCC->CFGR, RCC_CFGR_HPRE, RCC_ClkInitStruct->AHBCLKDivider);
 80047b8:	4936      	ldr	r1, [pc, #216]	@ (8004894 <HAL_RCC_ClockConfig+0x12c>)
 80047ba:	68a0      	ldr	r0, [r4, #8]
 80047bc:	688a      	ldr	r2, [r1, #8]
 80047be:	f022 02f0 	bic.w	r2, r2, #240	@ 0xf0
 80047c2:	4302      	orrs	r2, r0
 80047c4:	608a      	str	r2, [r1, #8]
  if(((RCC_ClkInitStruct->ClockType) & RCC_CLOCKTYPE_SYSCLK) == RCC_CLOCKTYPE_SYSCLK)
 80047c6:	07df      	lsls	r7, r3, #31
 80047c8:	d521      	bpl.n	800480e <HAL_RCC_ClockConfig+0xa6>
    if(RCC_ClkInitStruct->SYSCLKSource == RCC_SYSCLKSOURCE_HSE)
 80047ca:	6862      	ldr	r2, [r4, #4]
 80047cc:	2a01      	cmp	r2, #1
 80047ce:	d057      	beq.n	8004880 <HAL_RCC_ClockConfig+0x118>
    else if((RCC_ClkInitStruct->SYSCLKSource == RCC_SYSCLKSOURCE_PLLCLK)   ||
 80047d0:	1e93      	subs	r3, r2, #2
 80047d2:	2b01      	cmp	r3, #1
      if(__HAL_RCC_GET_FLAG(RCC_FLAG_PLLRDY) == RESET)
 80047d4:	4b2f      	ldr	r3, [pc, #188]	@ (8004894 <HAL_RCC_ClockConfig+0x12c>)
 80047d6:	681b      	ldr	r3, [r3, #0]
    else if((RCC_ClkInitStruct->SYSCLKSource == RCC_SYSCLKSOURCE_PLLCLK)   ||
 80047d8:	d94d      	bls.n	8004876 <HAL_RCC_ClockConfig+0x10e>
      if(__HAL_RCC_GET_FLAG(RCC_FLAG_HSIRDY) == RESET)
 80047da:	0799      	lsls	r1, r3, #30
 80047dc:	d5d8      	bpl.n	8004790 <HAL_RCC_ClockConfig+0x28>
    __HAL_RCC_SYSCLK_CONFIG(RCC_ClkInitStruct->SYSCLKSource);
 80047de:	4e2d      	ldr	r6, [pc, #180]	@ (8004894 <HAL_RCC_ClockConfig+0x12c>)
 80047e0:	68b3      	ldr	r3, [r6, #8]
 80047e2:	f023 0303 	bic.w	r3, r3, #3
 80047e6:	4313      	orrs	r3, r2
 80047e8:	60b3      	str	r3, [r6, #8]
    tickstart = HAL_GetTick();
 80047ea:	f7ff fb0d 	bl	8003e08 <HAL_GetTick>
      if ((HAL_GetTick() - tickstart) > CLOCKSWITCH_TIMEOUT_VALUE)
 80047ee:	f241 3888 	movw	r8, #5000	@ 0x1388
    tickstart = HAL_GetTick();
 80047f2:	4607      	mov	r7, r0
    while (__HAL_RCC_GET_SYSCLK_SOURCE() != (RCC_ClkInitStruct->SYSCLKSource << RCC_CFGR_SWS_Pos))
 80047f4:	e004      	b.n	8004800 <HAL_RCC_ClockConfig+0x98>
      if ((HAL_GetTick() - tickstart) > CLOCKSWITCH_TIMEOUT_VALUE)
 80047f6:	f7ff fb07 	bl	8003e08 <HAL_GetTick>
 80047fa:	1bc0      	subs	r0, r0, r7
 80047fc:	4540      	cmp	r0, r8
 80047fe:	d844      	bhi.n	800488a <HAL_RCC_ClockConfig+0x122>
    while (__HAL_RCC_GET_SYSCLK_SOURCE() != (RCC_ClkInitStruct->SYSCLKSource << RCC_CFGR_SWS_Pos))
 8004800:	68b3      	ldr	r3, [r6, #8]
 8004802:	6862      	ldr	r2, [r4, #4]
 8004804:	f003 030c 	and.w	r3, r3, #12
 8004808:	ebb3 0f82 	cmp.w	r3, r2, lsl #2
 800480c:	d1f3      	bne.n	80047f6 <HAL_RCC_ClockConfig+0x8e>
  if(FLatency < __HAL_FLASH_GET_LATENCY())
 800480e:	4a20      	ldr	r2, [pc, #128]	@ (8004890 <HAL_RCC_ClockConfig+0x128>)
 8004810:	6813      	ldr	r3, [r2, #0]
 8004812:	f003 030f 	and.w	r3, r3, #15
 8004816:	42ab      	cmp	r3, r5
 8004818:	d906      	bls.n	8004828 <HAL_RCC_ClockConfig+0xc0>
    __HAL_FLASH_SET_LATENCY(FLatency);
 800481a:	b2eb      	uxtb	r3, r5
 800481c:	7013      	strb	r3, [r2, #0]
    if(__HAL_FLASH_GET_LATENCY() != FLatency)
 800481e:	6813      	ldr	r3, [r2, #0]
 8004820:	f003 030f 	and.w	r3, r3, #15
 8004824:	42ab      	cmp	r3, r5
 8004826:	d1b3      	bne.n	8004790 <HAL_RCC_ClockConfig+0x28>
  if(((RCC_ClkInitStruct->ClockType) & RCC_CLOCKTYPE_PCLK1) == RCC_CLOCKTYPE_PCLK1)
 8004828:	6823      	ldr	r3, [r4, #0]
 800482a:	075a      	lsls	r2, r3, #29
 800482c:	d506      	bpl.n	800483c <HAL_RCC_ClockConfig+0xd4>
    MODIFY_REG(RCC->CFGR, RCC_CFGR_PPRE1, RCC_ClkInitStruct->APB1CLKDivider);
 800482e:	4919      	ldr	r1, [pc, #100]	@ (8004894 <HAL_RCC_ClockConfig+0x12c>)
 8004830:	68e0      	ldr	r0, [r4, #12]
 8004832:	688a      	ldr	r2, [r1, #8]
 8004834:	f422 52e0 	bic.w	r2, r2, #7168	@ 0x1c00
 8004838:	4302      	orrs	r2, r0
 800483a:	608a      	str	r2, [r1, #8]
  if(((RCC_ClkInitStruct->ClockType) & RCC_CLOCKTYPE_PCLK2) == RCC_CLOCKTYPE_PCLK2)
 800483c:	071b      	lsls	r3, r3, #28
 800483e:	d507      	bpl.n	8004850 <HAL_RCC_ClockConfig+0xe8>
    MODIFY_REG(RCC->CFGR, RCC_CFGR_PPRE2, ((RCC_ClkInitStruct->APB2CLKDivider) << 3U));
 8004840:	4a14      	ldr	r2, [pc, #80]	@ (8004894 <HAL_RCC_ClockConfig+0x12c>)
 8004842:	6921      	ldr	r1, [r4, #16]
 8004844:	6893      	ldr	r3, [r2, #8]
 8004846:	f423 4360 	bic.w	r3, r3, #57344	@ 0xe000
 800484a:	ea43 03c1 	orr.w	r3, r3, r1, lsl #3
 800484e:	6093      	str	r3, [r2, #8]
  SystemCoreClock = HAL_RCC_GetSysClockFreq() >> AHBPrescTable[(RCC->CFGR & RCC_CFGR_HPRE)>> RCC_CFGR_HPRE_Pos];
 8004850:	f000 f84e 	bl	80048f0 <HAL_RCC_GetSysClockFreq>
 8004854:	4a0f      	ldr	r2, [pc, #60]	@ (8004894 <HAL_RCC_ClockConfig+0x12c>)
 8004856:	4c10      	ldr	r4, [pc, #64]	@ (8004898 <HAL_RCC_ClockConfig+0x130>)
 8004858:	6892      	ldr	r2, [r2, #8]
 800485a:	4910      	ldr	r1, [pc, #64]	@ (800489c <HAL_RCC_ClockConfig+0x134>)
 800485c:	f3c2 1203 	ubfx	r2, r2, #4, #4
 8004860:	4603      	mov	r3, r0
 8004862:	5ca2      	ldrb	r2, [r4, r2]
  HAL_InitTick (uwTickPrio);
 8004864:	480e      	ldr	r0, [pc, #56]	@ (80048a0 <HAL_RCC_ClockConfig+0x138>)
  SystemCoreClock = HAL_RCC_GetSysClockFreq() >> AHBPrescTable[(RCC->CFGR & RCC_CFGR_HPRE)>> RCC_CFGR_HPRE_Pos];
 8004866:	40d3      	lsrs	r3, r2
  HAL_InitTick (uwTickPrio);
 8004868:	6800      	ldr	r0, [r0, #0]
  SystemCoreClock = HAL_RCC_GetSysClockFreq() >> AHBPrescTable[(RCC->CFGR & RCC_CFGR_HPRE)>> RCC_CFGR_HPRE_Pos];
 800486a:	600b      	str	r3, [r1, #0]
  HAL_InitTick (uwTickPrio);
 800486c:	f7ff fa82 	bl	8003d74 <HAL_InitTick>
  return HAL_OK;
 8004870:	2000      	movs	r0, #0
}
 8004872:	e8bd 81f0 	ldmia.w	sp!, {r4, r5, r6, r7, r8, pc}
      if(__HAL_RCC_GET_FLAG(RCC_FLAG_PLLRDY) == RESET)
 8004876:	0198      	lsls	r0, r3, #6
 8004878:	d4b1      	bmi.n	80047de <HAL_RCC_ClockConfig+0x76>
 800487a:	e789      	b.n	8004790 <HAL_RCC_ClockConfig+0x28>
    return HAL_ERROR;
 800487c:	2001      	movs	r0, #1
}
 800487e:	4770      	bx	lr
      if(__HAL_RCC_GET_FLAG(RCC_FLAG_HSERDY) == RESET)
 8004880:	4b04      	ldr	r3, [pc, #16]	@ (8004894 <HAL_RCC_ClockConfig+0x12c>)
 8004882:	681b      	ldr	r3, [r3, #0]
 8004884:	039e      	lsls	r6, r3, #14
 8004886:	d4aa      	bmi.n	80047de <HAL_RCC_ClockConfig+0x76>
 8004888:	e782      	b.n	8004790 <HAL_RCC_ClockConfig+0x28>
        return HAL_TIMEOUT;
 800488a:	2003      	movs	r0, #3
 800488c:	e781      	b.n	8004792 <HAL_RCC_ClockConfig+0x2a>
 800488e:	bf00      	nop
 8004890:	40023c00 	.word	0x40023c00
 8004894:	40023800 	.word	0x40023800
 8004898:	080078e0 	.word	0x080078e0
 800489c:	20000520 	.word	0x20000520
 80048a0:	20000528 	.word	0x20000528

080048a4 <HAL_RCC_GetHCLKFreq>:
  *         and updated within this function
  * @retval HCLK frequency
  */
uint32_t HAL_RCC_GetHCLKFreq(void)
{
  return SystemCoreClock;
 80048a4:	4b01      	ldr	r3, [pc, #4]	@ (80048ac <HAL_RCC_GetHCLKFreq+0x8>)
}
 80048a6:	6818      	ldr	r0, [r3, #0]
 80048a8:	4770      	bx	lr
 80048aa:	bf00      	nop
 80048ac:	20000520 	.word	0x20000520

080048b0 <HAL_RCC_GetPCLK1Freq>:
  * @retval PCLK1 frequency
  */
uint32_t HAL_RCC_GetPCLK1Freq(void)
{
  /* Get HCLK source and Compute PCLK1 frequency ---------------------------*/
  return (HAL_RCC_GetHCLKFreq() >> APBPrescTable[(RCC->CFGR & RCC_CFGR_PPRE1)>> RCC_CFGR_PPRE1_Pos]);
 80048b0:	4b04      	ldr	r3, [pc, #16]	@ (80048c4 <HAL_RCC_GetPCLK1Freq+0x14>)
  return SystemCoreClock;
 80048b2:	4905      	ldr	r1, [pc, #20]	@ (80048c8 <HAL_RCC_GetPCLK1Freq+0x18>)
  return (HAL_RCC_GetHCLKFreq() >> APBPrescTable[(RCC->CFGR & RCC_CFGR_PPRE1)>> RCC_CFGR_PPRE1_Pos]);
 80048b4:	689b      	ldr	r3, [r3, #8]
 80048b6:	4a05      	ldr	r2, [pc, #20]	@ (80048cc <HAL_RCC_GetPCLK1Freq+0x1c>)
 80048b8:	6808      	ldr	r0, [r1, #0]
 80048ba:	f3c3 2382 	ubfx	r3, r3, #10, #3
 80048be:	5cd3      	ldrb	r3, [r2, r3]
}
 80048c0:	40d8      	lsrs	r0, r3
 80048c2:	4770      	bx	lr
 80048c4:	40023800 	.word	0x40023800
 80048c8:	20000520 	.word	0x20000520
 80048cc:	080078d8 	.word	0x080078d8

080048d0 <HAL_RCC_GetPCLK2Freq>:
  * @retval PCLK2 frequency
  */
uint32_t HAL_RCC_GetPCLK2Freq(void)
{
  /* Get HCLK source and Compute PCLK2 frequency ---------------------------*/
  return (HAL_RCC_GetHCLKFreq()>> APBPrescTable[(RCC->CFGR & RCC_CFGR_PPRE2)>> RCC_CFGR_PPRE2_Pos]);
 80048d0:	4b04      	ldr	r3, [pc, #16]	@ (80048e4 <HAL_RCC_GetPCLK2Freq+0x14>)
  return SystemCoreClock;
 80048d2:	4905      	ldr	r1, [pc, #20]	@ (80048e8 <HAL_RCC_GetPCLK2Freq+0x18>)
  return (HAL_RCC_GetHCLKFreq()>> APBPrescTable[(RCC->CFGR & RCC_CFGR_PPRE2)>> RCC_CFGR_PPRE2_Pos]);
 80048d4:	689b      	ldr	r3, [r3, #8]
 80048d6:	4a05      	ldr	r2, [pc, #20]	@ (80048ec <HAL_RCC_GetPCLK2Freq+0x1c>)
 80048d8:	6808      	ldr	r0, [r1, #0]
 80048da:	f3c3 3342 	ubfx	r3, r3, #13, #3
 80048de:	5cd3      	ldrb	r3, [r2, r3]
}
 80048e0:	40d8      	lsrs	r0, r3
 80048e2:	4770      	bx	lr
 80048e4:	40023800 	.word	0x40023800
 80048e8:	20000520 	.word	0x20000520
 80048ec:	080078d8 	.word	0x080078d8

080048f0 <HAL_RCC_GetSysClockFreq>:
  uint32_t pllp = 0U;
  uint32_t pllr = 0U;
  uint32_t sysclockfreq = 0U;

  /* Get SYSCLK source -------------------------------------------------------*/
  switch (RCC->CFGR & RCC_CFGR_SWS)
 80048f0:	4927      	ldr	r1, [pc, #156]	@ (8004990 <HAL_RCC_GetSysClockFreq+0xa0>)
{
 80048f2:	b508      	push	{r3, lr}
  switch (RCC->CFGR & RCC_CFGR_SWS)
 80048f4:	688b      	ldr	r3, [r1, #8]
 80048f6:	f003 030c 	and.w	r3, r3, #12
 80048fa:	2b08      	cmp	r3, #8
 80048fc:	d007      	beq.n	800490e <HAL_RCC_GetSysClockFreq+0x1e>
 80048fe:	2b0c      	cmp	r3, #12
 8004900:	d01d      	beq.n	800493e <HAL_RCC_GetSysClockFreq+0x4e>
  {
    case RCC_CFGR_SWS_HSI:  /* HSI used as system clock source */
    {
      sysclockfreq = HSI_VALUE;
 8004902:	4a24      	ldr	r2, [pc, #144]	@ (8004994 <HAL_RCC_GetSysClockFreq+0xa4>)
 8004904:	4824      	ldr	r0, [pc, #144]	@ (8004998 <HAL_RCC_GetSysClockFreq+0xa8>)
 8004906:	2b04      	cmp	r3, #4
 8004908:	bf18      	it	ne
 800490a:	4610      	movne	r0, r2
      sysclockfreq = HSI_VALUE;
      break;
    }
  }
  return sysclockfreq;
}
 800490c:	bd08      	pop	{r3, pc}
      pllm = RCC->PLLCFGR & RCC_PLLCFGR_PLLM;
 800490e:	684a      	ldr	r2, [r1, #4]
      if(__HAL_RCC_GET_PLL_OSCSOURCE() != RCC_PLLSOURCE_HSI)
 8004910:	684b      	ldr	r3, [r1, #4]
        pllvco = (uint32_t) ((((uint64_t) HSE_VALUE * ((uint64_t) ((RCC->PLLCFGR & RCC_PLLCFGR_PLLN) >> RCC_PLLCFGR_PLLN_Pos)))) / (uint64_t)pllm);
 8004912:	6849      	ldr	r1, [r1, #4]
      if(__HAL_RCC_GET_PLL_OSCSOURCE() != RCC_PLLSOURCE_HSI)
 8004914:	f413 0380 	ands.w	r3, r3, #4194304	@ 0x400000
      pllm = RCC->PLLCFGR & RCC_PLLCFGR_PLLM;
 8004918:	f002 023f 	and.w	r2, r2, #63	@ 0x3f
      if(__HAL_RCC_GET_PLL_OSCSOURCE() != RCC_PLLSOURCE_HSI)
 800491c:	d12e      	bne.n	800497c <HAL_RCC_GetSysClockFreq+0x8c>
        pllvco = (uint32_t) ((((uint64_t) HSI_VALUE * ((uint64_t) ((RCC->PLLCFGR & RCC_PLLCFGR_PLLN) >> RCC_PLLCFGR_PLLN_Pos)))) / (uint64_t)pllm);
 800491e:	481d      	ldr	r0, [pc, #116]	@ (8004994 <HAL_RCC_GetSysClockFreq+0xa4>)
 8004920:	f3c1 1188 	ubfx	r1, r1, #6, #9
 8004924:	fba1 0100 	umull	r0, r1, r1, r0
 8004928:	f7fb fc6e 	bl	8000208 <__aeabi_uldivmod>
      pllp = ((((RCC->PLLCFGR & RCC_PLLCFGR_PLLP) >> RCC_PLLCFGR_PLLP_Pos) + 1U) *2U);
 800492c:	4b18      	ldr	r3, [pc, #96]	@ (8004990 <HAL_RCC_GetSysClockFreq+0xa0>)
 800492e:	685b      	ldr	r3, [r3, #4]
 8004930:	f3c3 4301 	ubfx	r3, r3, #16, #2
 8004934:	3301      	adds	r3, #1
 8004936:	005b      	lsls	r3, r3, #1
      sysclockfreq = pllvco/pllp;
 8004938:	fbb0 f0f3 	udiv	r0, r0, r3
}
 800493c:	bd08      	pop	{r3, pc}
      pllm = RCC->PLLCFGR & RCC_PLLCFGR_PLLM;
 800493e:	684a      	ldr	r2, [r1, #4]
      if(__HAL_RCC_GET_PLL_OSCSOURCE() != RCC_PLLSOURCE_HSI)
 8004940:	684b      	ldr	r3, [r1, #4]
        pllvco = (uint32_t) ((((uint64_t) HSE_VALUE * ((uint64_t) ((RCC->PLLCFGR & RCC_PLLCFGR_PLLN) >> RCC_PLLCFGR_PLLN_Pos)))) / (uint64_t)pllm);
 8004942:	6849      	ldr	r1, [r1, #4]
      if(__HAL_RCC_GET_PLL_OSCSOURCE() != RCC_PLLSOURCE_HSI)
 8004944:	f413 0380 	ands.w	r3, r3, #4194304	@ 0x400000
      pllm = RCC->PLLCFGR & RCC_PLLCFGR_PLLM;
 8004948:	f002 023f 	and.w	r2, r2, #63	@ 0x3f
      if(__HAL_RCC_GET_PLL_OSCSOURCE() != RCC_PLLSOURCE_HSI)
 800494c:	d10d      	bne.n	800496a <HAL_RCC_GetSysClockFreq+0x7a>
        pllvco = (uint32_t) ((((uint64_t) HSI_VALUE * ((uint64_t) ((RCC->PLLCFGR & RCC_PLLCFGR_PLLN) >> RCC_PLLCFGR_PLLN_Pos)))) / (uint64_t)pllm);
 800494e:	4811      	ldr	r0, [pc, #68]	@ (8004994 <HAL_RCC_GetSysClockFreq+0xa4>)
 8004950:	f3c1 1188 	ubfx	r1, r1, #6, #9
 8004954:	fba1 0100 	umull	r0, r1, r1, r0
 8004958:	f7fb fc56 	bl	8000208 <__aeabi_uldivmod>
      pllr = ((RCC->PLLCFGR & RCC_PLLCFGR_PLLR) >> RCC_PLLCFGR_PLLR_Pos);
 800495c:	4b0c      	ldr	r3, [pc, #48]	@ (8004990 <HAL_RCC_GetSysClockFreq+0xa0>)
 800495e:	685b      	ldr	r3, [r3, #4]
 8004960:	f3c3 7302 	ubfx	r3, r3, #28, #3
      sysclockfreq = pllvco/pllr;
 8004964:	fbb0 f0f3 	udiv	r0, r0, r3
}
 8004968:	bd08      	pop	{r3, pc}
        pllvco = (uint32_t) ((((uint64_t) HSE_VALUE * ((uint64_t) ((RCC->PLLCFGR & RCC_PLLCFGR_PLLN) >> RCC_PLLCFGR_PLLN_Pos)))) / (uint64_t)pllm);
 800496a:	480b      	ldr	r0, [pc, #44]	@ (8004998 <HAL_RCC_GetSysClockFreq+0xa8>)
 800496c:	f3c1 1188 	ubfx	r1, r1, #6, #9
 8004970:	2300      	movs	r3, #0
 8004972:	fba1 0100 	umull	r0, r1, r1, r0
 8004976:	f7fb fc47 	bl	8000208 <__aeabi_uldivmod>
 800497a:	e7ef      	b.n	800495c <HAL_RCC_GetSysClockFreq+0x6c>
        pllvco = (uint32_t) ((((uint64_t) HSE_VALUE * ((uint64_t) ((RCC->PLLCFGR & RCC_PLLCFGR_PLLN) >> RCC_PLLCFGR_PLLN_Pos)))) / (uint64_t)pllm);
 800497c:	4806      	ldr	r0, [pc, #24]	@ (8004998 <HAL_RCC_GetSysClockFreq+0xa8>)
 800497e:	f3c1 1188 	ubfx	r1, r1, #6, #9
 8004982:	2300      	movs	r3, #0
 8004984:	fba1 0100 	umull	r0, r1, r1, r0
 8004988:	f7fb fc3e 	bl	8000208 <__aeabi_uldivmod>
 800498c:	e7ce      	b.n	800492c <HAL_RCC_GetSysClockFreq+0x3c>
 800498e:	bf00      	nop
 8004990:	40023800 	.word	0x40023800
 8004994:	00f42400 	.word	0x00f42400
 8004998:	007a1200 	.word	0x007a1200

0800499c <HAL_RCC_OscConfig>:
HAL_StatusTypeDef HAL_RCC_OscConfig(RCC_OscInitTypeDef  *RCC_OscInitStruct)
{
  uint32_t tickstart, pll_config;

  /* Check Null pointer */
  if(RCC_OscInitStruct == NULL)
 800499c:	2800      	cmp	r0, #0
 800499e:	f000 81fb 	beq.w	8004d98 <HAL_RCC_OscConfig+0x3fc>
{
 80049a2:	e92d 41f0 	stmdb	sp!, {r4, r5, r6, r7, r8, lr}
  }

  /* Check the parameters */
  assert_param(IS_RCC_OSCILLATORTYPE(RCC_OscInitStruct->OscillatorType));
  /*------------------------------- HSE Configuration ------------------------*/
  if(((RCC_OscInitStruct->OscillatorType) & RCC_OSCILLATORTYPE_HSE) == RCC_OSCILLATORTYPE_HSE)
 80049a6:	6803      	ldr	r3, [r0, #0]
 80049a8:	07de      	lsls	r6, r3, #31
{
 80049aa:	b082      	sub	sp, #8
 80049ac:	4604      	mov	r4, r0
  if(((RCC_OscInitStruct->OscillatorType) & RCC_OSCILLATORTYPE_HSE) == RCC_OSCILLATORTYPE_HSE)
 80049ae:	d536      	bpl.n	8004a1e <HAL_RCC_OscConfig+0x82>
  {
    /* Check the parameters */
    assert_param(IS_RCC_HSE(RCC_OscInitStruct->HSEState));
    /* When the HSE is used as system clock or clock source for PLL in these cases HSE will not disabled */
#if defined(STM32F446xx)
    if((__HAL_RCC_GET_SYSCLK_SOURCE() == RCC_CFGR_SWS_HSE)                                                                     ||\
 80049b0:	49a1      	ldr	r1, [pc, #644]	@ (8004c38 <HAL_RCC_OscConfig+0x29c>)
 80049b2:	688a      	ldr	r2, [r1, #8]
 80049b4:	f002 020c 	and.w	r2, r2, #12
 80049b8:	2a04      	cmp	r2, #4
 80049ba:	f000 80de 	beq.w	8004b7a <HAL_RCC_OscConfig+0x1de>
      ((__HAL_RCC_GET_SYSCLK_SOURCE() == RCC_CFGR_SWS_PLL) && ((RCC->PLLCFGR & RCC_PLLCFGR_PLLSRC) == RCC_PLLCFGR_PLLSRC_HSE)) ||\
 80049be:	688a      	ldr	r2, [r1, #8]
 80049c0:	f002 020c 	and.w	r2, r2, #12
    if((__HAL_RCC_GET_SYSCLK_SOURCE() == RCC_CFGR_SWS_HSE)                                                                     ||\
 80049c4:	2a08      	cmp	r2, #8
 80049c6:	f000 80d4 	beq.w	8004b72 <HAL_RCC_OscConfig+0x1d6>
      ((__HAL_RCC_GET_SYSCLK_SOURCE() == RCC_CFGR_SWS_PLLR) && ((RCC->PLLCFGR & RCC_PLLCFGR_PLLSRC) == RCC_PLLCFGR_PLLSRC_HSE)))
 80049ca:	499b      	ldr	r1, [pc, #620]	@ (8004c38 <HAL_RCC_OscConfig+0x29c>)
 80049cc:	688a      	ldr	r2, [r1, #8]
 80049ce:	f002 020c 	and.w	r2, r2, #12
      ((__HAL_RCC_GET_SYSCLK_SOURCE() == RCC_CFGR_SWS_PLL) && ((RCC->PLLCFGR & RCC_PLLCFGR_PLLSRC) == RCC_PLLCFGR_PLLSRC_HSE)) ||\
 80049d2:	2a0c      	cmp	r2, #12
 80049d4:	f000 8104 	beq.w	8004be0 <HAL_RCC_OscConfig+0x244>
      }
    }
    else
    {
      /* Set the new HSE configuration ---------------------------------------*/
      __HAL_RCC_HSE_CONFIG(RCC_OscInitStruct->HSEState);
 80049d8:	6863      	ldr	r3, [r4, #4]
 80049da:	f5b3 3f80 	cmp.w	r3, #65536	@ 0x10000
 80049de:	f000 8118 	beq.w	8004c12 <HAL_RCC_OscConfig+0x276>
 80049e2:	f5b3 2fa0 	cmp.w	r3, #327680	@ 0x50000
 80049e6:	f000 8192 	beq.w	8004d0e <HAL_RCC_OscConfig+0x372>
 80049ea:	4d93      	ldr	r5, [pc, #588]	@ (8004c38 <HAL_RCC_OscConfig+0x29c>)
 80049ec:	682a      	ldr	r2, [r5, #0]
 80049ee:	f422 3280 	bic.w	r2, r2, #65536	@ 0x10000
 80049f2:	602a      	str	r2, [r5, #0]
 80049f4:	682a      	ldr	r2, [r5, #0]
 80049f6:	f422 2280 	bic.w	r2, r2, #262144	@ 0x40000
 80049fa:	602a      	str	r2, [r5, #0]

      /* Check the HSE State */
      if((RCC_OscInitStruct->HSEState) != RCC_HSE_OFF)
 80049fc:	2b00      	cmp	r3, #0
 80049fe:	f040 810d 	bne.w	8004c1c <HAL_RCC_OscConfig+0x280>
        }
      }
      else
      {
        /* Get Start Tick*/
        tickstart = HAL_GetTick();
 8004a02:	f7ff fa01 	bl	8003e08 <HAL_GetTick>
 8004a06:	4606      	mov	r6, r0

        /* Wait till HSE is bypassed or disabled */
        while(__HAL_RCC_GET_FLAG(RCC_FLAG_HSERDY) != RESET)
 8004a08:	e005      	b.n	8004a16 <HAL_RCC_OscConfig+0x7a>
        {
          if((HAL_GetTick() - tickstart ) > HSE_TIMEOUT_VALUE)
 8004a0a:	f7ff f9fd 	bl	8003e08 <HAL_GetTick>
 8004a0e:	1b80      	subs	r0, r0, r6
 8004a10:	2864      	cmp	r0, #100	@ 0x64
 8004a12:	f200 80fa 	bhi.w	8004c0a <HAL_RCC_OscConfig+0x26e>
        while(__HAL_RCC_GET_FLAG(RCC_FLAG_HSERDY) != RESET)
 8004a16:	682b      	ldr	r3, [r5, #0]
 8004a18:	039f      	lsls	r7, r3, #14
 8004a1a:	d4f6      	bmi.n	8004a0a <HAL_RCC_OscConfig+0x6e>
        }
      }
    }
  }
  /*----------------------------- HSI Configuration --------------------------*/
  if(((RCC_OscInitStruct->OscillatorType) & RCC_OSCILLATORTYPE_HSI) == RCC_OSCILLATORTYPE_HSI)
 8004a1c:	6823      	ldr	r3, [r4, #0]
 8004a1e:	079d      	lsls	r5, r3, #30
 8004a20:	d52f      	bpl.n	8004a82 <HAL_RCC_OscConfig+0xe6>
    assert_param(IS_RCC_HSI(RCC_OscInitStruct->HSIState));
    assert_param(IS_RCC_CALIBRATION_VALUE(RCC_OscInitStruct->HSICalibrationValue));

    /* Check if HSI is used as system clock or as PLL source when PLL is selected as system clock */
#if defined(STM32F446xx)
    if((__HAL_RCC_GET_SYSCLK_SOURCE() == RCC_CFGR_SWS_HSI)                                                                     ||\
 8004a22:	4a85      	ldr	r2, [pc, #532]	@ (8004c38 <HAL_RCC_OscConfig+0x29c>)
 8004a24:	6891      	ldr	r1, [r2, #8]
 8004a26:	f011 0f0c 	tst.w	r1, #12
 8004a2a:	f000 8099 	beq.w	8004b60 <HAL_RCC_OscConfig+0x1c4>
      ((__HAL_RCC_GET_SYSCLK_SOURCE() == RCC_CFGR_SWS_PLL) && ((RCC->PLLCFGR & RCC_PLLCFGR_PLLSRC) == RCC_PLLCFGR_PLLSRC_HSI)) ||\
 8004a2e:	6891      	ldr	r1, [r2, #8]
 8004a30:	f001 010c 	and.w	r1, r1, #12
    if((__HAL_RCC_GET_SYSCLK_SOURCE() == RCC_CFGR_SWS_HSI)                                                                     ||\
 8004a34:	2908      	cmp	r1, #8
 8004a36:	f000 808f 	beq.w	8004b58 <HAL_RCC_OscConfig+0x1bc>
      ((__HAL_RCC_GET_SYSCLK_SOURCE() == RCC_CFGR_SWS_PLLR) && ((RCC->PLLCFGR & RCC_PLLCFGR_PLLSRC) == RCC_PLLCFGR_PLLSRC_HSI)))
 8004a3a:	497f      	ldr	r1, [pc, #508]	@ (8004c38 <HAL_RCC_OscConfig+0x29c>)
 8004a3c:	688a      	ldr	r2, [r1, #8]
 8004a3e:	f002 020c 	and.w	r2, r2, #12
      ((__HAL_RCC_GET_SYSCLK_SOURCE() == RCC_CFGR_SWS_PLL) && ((RCC->PLLCFGR & RCC_PLLCFGR_PLLSRC) == RCC_PLLCFGR_PLLSRC_HSI)) ||\
 8004a42:	2a0c      	cmp	r2, #12
 8004a44:	f000 815e 	beq.w	8004d04 <HAL_RCC_OscConfig+0x368>
      }
    }
    else
    {
      /* Check the HSI State */
      if((RCC_OscInitStruct->HSIState)!= RCC_HSI_OFF)
 8004a48:	68e3      	ldr	r3, [r4, #12]
 8004a4a:	2b00      	cmp	r3, #0
 8004a4c:	f000 8112 	beq.w	8004c74 <HAL_RCC_OscConfig+0x2d8>
      {
        /* Enable the Internal High Speed oscillator (HSI). */
        __HAL_RCC_HSI_ENABLE();
 8004a50:	4b7a      	ldr	r3, [pc, #488]	@ (8004c3c <HAL_RCC_OscConfig+0x2a0>)

        /* Get Start Tick*/
        tickstart = HAL_GetTick();

        /* Wait till HSI is ready */
        while(__HAL_RCC_GET_FLAG(RCC_FLAG_HSIRDY) == RESET)
 8004a52:	4e79      	ldr	r6, [pc, #484]	@ (8004c38 <HAL_RCC_OscConfig+0x29c>)
        __HAL_RCC_HSI_ENABLE();
 8004a54:	2201      	movs	r2, #1
 8004a56:	601a      	str	r2, [r3, #0]
        tickstart = HAL_GetTick();
 8004a58:	f7ff f9d6 	bl	8003e08 <HAL_GetTick>
 8004a5c:	4605      	mov	r5, r0
        while(__HAL_RCC_GET_FLAG(RCC_FLAG_HSIRDY) == RESET)
 8004a5e:	e005      	b.n	8004a6c <HAL_RCC_OscConfig+0xd0>
        {
          if((HAL_GetTick() - tickstart ) > HSI_TIMEOUT_VALUE)
 8004a60:	f7ff f9d2 	bl	8003e08 <HAL_GetTick>
 8004a64:	1b40      	subs	r0, r0, r5
 8004a66:	2802      	cmp	r0, #2
 8004a68:	f200 80cf 	bhi.w	8004c0a <HAL_RCC_OscConfig+0x26e>
        while(__HAL_RCC_GET_FLAG(RCC_FLAG_HSIRDY) == RESET)
 8004a6c:	6833      	ldr	r3, [r6, #0]
 8004a6e:	079f      	lsls	r7, r3, #30
 8004a70:	d5f6      	bpl.n	8004a60 <HAL_RCC_OscConfig+0xc4>
            return HAL_TIMEOUT;
          }
        }

        /* Adjusts the Internal High Speed oscillator (HSI) calibration value.*/
        __HAL_RCC_HSI_CALIBRATIONVALUE_ADJUST(RCC_OscInitStruct->HSICalibrationValue);
 8004a72:	6833      	ldr	r3, [r6, #0]
 8004a74:	6922      	ldr	r2, [r4, #16]
 8004a76:	f023 03f8 	bic.w	r3, r3, #248	@ 0xf8
 8004a7a:	ea43 03c2 	orr.w	r3, r3, r2, lsl #3
 8004a7e:	6033      	str	r3, [r6, #0]
        }
      }
    }
  }
  /*------------------------------ LSI Configuration -------------------------*/
  if(((RCC_OscInitStruct->OscillatorType) & RCC_OSCILLATORTYPE_LSI) == RCC_OSCILLATORTYPE_LSI)
 8004a80:	6823      	ldr	r3, [r4, #0]
 8004a82:	071a      	lsls	r2, r3, #28
 8004a84:	d452      	bmi.n	8004b2c <HAL_RCC_OscConfig+0x190>
        }
      }
    }
  }
  /*------------------------------ LSE Configuration -------------------------*/
  if(((RCC_OscInitStruct->OscillatorType) & RCC_OSCILLATORTYPE_LSE) == RCC_OSCILLATORTYPE_LSE)
 8004a86:	075d      	lsls	r5, r3, #29
 8004a88:	d530      	bpl.n	8004aec <HAL_RCC_OscConfig+0x150>
    /* Check the parameters */
    assert_param(IS_RCC_LSE(RCC_OscInitStruct->LSEState));

    /* Update LSE configuration in Backup Domain control register    */
    /* Requires to enable write access to Backup Domain of necessary */
    if(__HAL_RCC_PWR_IS_CLK_DISABLED())
 8004a8a:	4a6b      	ldr	r2, [pc, #428]	@ (8004c38 <HAL_RCC_OscConfig+0x29c>)
 8004a8c:	6c13      	ldr	r3, [r2, #64]	@ 0x40
 8004a8e:	f013 5380 	ands.w	r3, r3, #268435456	@ 0x10000000
 8004a92:	f000 8099 	beq.w	8004bc8 <HAL_RCC_OscConfig+0x22c>
    FlagStatus       pwrclkchanged = RESET;
 8004a96:	2500      	movs	r5, #0
    {
      __HAL_RCC_PWR_CLK_ENABLE();
      pwrclkchanged = SET;
    }

    if(HAL_IS_BIT_CLR(PWR->CR, PWR_CR_DBP))
 8004a98:	4e69      	ldr	r6, [pc, #420]	@ (8004c40 <HAL_RCC_OscConfig+0x2a4>)
 8004a9a:	6833      	ldr	r3, [r6, #0]
 8004a9c:	05d8      	lsls	r0, r3, #23
 8004a9e:	f140 80a4 	bpl.w	8004bea <HAL_RCC_OscConfig+0x24e>
        }
      }
    }

    /* Set the new LSE configuration -----------------------------------------*/
    __HAL_RCC_LSE_CONFIG(RCC_OscInitStruct->LSEState);
 8004aa2:	68a3      	ldr	r3, [r4, #8]
 8004aa4:	2b01      	cmp	r3, #1
 8004aa6:	f000 80cd 	beq.w	8004c44 <HAL_RCC_OscConfig+0x2a8>
 8004aaa:	2b05      	cmp	r3, #5
 8004aac:	f000 8139 	beq.w	8004d22 <HAL_RCC_OscConfig+0x386>
 8004ab0:	4e61      	ldr	r6, [pc, #388]	@ (8004c38 <HAL_RCC_OscConfig+0x29c>)
 8004ab2:	6f32      	ldr	r2, [r6, #112]	@ 0x70
 8004ab4:	f022 0201 	bic.w	r2, r2, #1
 8004ab8:	6732      	str	r2, [r6, #112]	@ 0x70
 8004aba:	6f32      	ldr	r2, [r6, #112]	@ 0x70
 8004abc:	f022 0204 	bic.w	r2, r2, #4
 8004ac0:	6732      	str	r2, [r6, #112]	@ 0x70
    /* Check the LSE State */
    if((RCC_OscInitStruct->LSEState) != RCC_LSE_OFF)
 8004ac2:	2b00      	cmp	r3, #0
 8004ac4:	f040 80c3 	bne.w	8004c4e <HAL_RCC_OscConfig+0x2b2>
      }
    }
    else
    {
      /* Get Start Tick*/
      tickstart = HAL_GetTick();
 8004ac8:	f7ff f99e 	bl	8003e08 <HAL_GetTick>

      /* Wait till LSE is ready */
      while(__HAL_RCC_GET_FLAG(RCC_FLAG_LSERDY) != RESET)
      {
        if((HAL_GetTick() - tickstart ) > RCC_LSE_TIMEOUT_VALUE)
 8004acc:	f241 3888 	movw	r8, #5000	@ 0x1388
      tickstart = HAL_GetTick();
 8004ad0:	4607      	mov	r7, r0
      while(__HAL_RCC_GET_FLAG(RCC_FLAG_LSERDY) != RESET)
 8004ad2:	e005      	b.n	8004ae0 <HAL_RCC_OscConfig+0x144>
        if((HAL_GetTick() - tickstart ) > RCC_LSE_TIMEOUT_VALUE)
 8004ad4:	f7ff f998 	bl	8003e08 <HAL_GetTick>
 8004ad8:	1bc0      	subs	r0, r0, r7
 8004ada:	4540      	cmp	r0, r8
 8004adc:	f200 8095 	bhi.w	8004c0a <HAL_RCC_OscConfig+0x26e>
      while(__HAL_RCC_GET_FLAG(RCC_FLAG_LSERDY) != RESET)
 8004ae0:	6f33      	ldr	r3, [r6, #112]	@ 0x70
 8004ae2:	079b      	lsls	r3, r3, #30
 8004ae4:	d4f6      	bmi.n	8004ad4 <HAL_RCC_OscConfig+0x138>
        }
      }
    }

    /* Restore clock configuration if changed */
    if(pwrclkchanged == SET)
 8004ae6:	2d00      	cmp	r5, #0
 8004ae8:	f040 8106 	bne.w	8004cf8 <HAL_RCC_OscConfig+0x35c>
    }
  }
  /*-------------------------------- PLL Configuration -----------------------*/
  /* Check the parameters */
  assert_param(IS_RCC_PLL(RCC_OscInitStruct->PLL.PLLState));
  if ((RCC_OscInitStruct->PLL.PLLState) != RCC_PLL_NONE)
 8004aec:	69a3      	ldr	r3, [r4, #24]
 8004aee:	b1cb      	cbz	r3, 8004b24 <HAL_RCC_OscConfig+0x188>
  {
    /* Check if the PLL is used as system clock or not */
    if(__HAL_RCC_GET_SYSCLK_SOURCE() != RCC_CFGR_SWS_PLL)
 8004af0:	4d51      	ldr	r5, [pc, #324]	@ (8004c38 <HAL_RCC_OscConfig+0x29c>)
 8004af2:	68aa      	ldr	r2, [r5, #8]
 8004af4:	f002 020c 	and.w	r2, r2, #12
 8004af8:	2a08      	cmp	r2, #8
 8004afa:	f000 80cc 	beq.w	8004c96 <HAL_RCC_OscConfig+0x2fa>
    {
      if((RCC_OscInitStruct->PLL.PLLState) == RCC_PLL_ON)
 8004afe:	2b02      	cmp	r3, #2
        assert_param(IS_RCC_PLLP_VALUE(RCC_OscInitStruct->PLL.PLLP));
        assert_param(IS_RCC_PLLQ_VALUE(RCC_OscInitStruct->PLL.PLLQ));
        assert_param(IS_RCC_PLLR_VALUE(RCC_OscInitStruct->PLL.PLLR));

        /* Disable the main PLL. */
        __HAL_RCC_PLL_DISABLE();
 8004b00:	4b4e      	ldr	r3, [pc, #312]	@ (8004c3c <HAL_RCC_OscConfig+0x2a0>)
 8004b02:	f04f 0200 	mov.w	r2, #0
 8004b06:	661a      	str	r2, [r3, #96]	@ 0x60
      if((RCC_OscInitStruct->PLL.PLLState) == RCC_PLL_ON)
 8004b08:	f000 8115 	beq.w	8004d36 <HAL_RCC_OscConfig+0x39a>
      {
        /* Disable the main PLL. */
        __HAL_RCC_PLL_DISABLE();

        /* Get Start Tick*/
        tickstart = HAL_GetTick();
 8004b0c:	f7ff f97c 	bl	8003e08 <HAL_GetTick>
 8004b10:	4604      	mov	r4, r0

        /* Wait till PLL is ready */
        while(__HAL_RCC_GET_FLAG(RCC_FLAG_PLLRDY) != RESET)
 8004b12:	e004      	b.n	8004b1e <HAL_RCC_OscConfig+0x182>
        {
          if((HAL_GetTick() - tickstart ) > PLL_TIMEOUT_VALUE)
 8004b14:	f7ff f978 	bl	8003e08 <HAL_GetTick>
 8004b18:	1b00      	subs	r0, r0, r4
 8004b1a:	2802      	cmp	r0, #2
 8004b1c:	d875      	bhi.n	8004c0a <HAL_RCC_OscConfig+0x26e>
        while(__HAL_RCC_GET_FLAG(RCC_FLAG_PLLRDY) != RESET)
 8004b1e:	682b      	ldr	r3, [r5, #0]
 8004b20:	019b      	lsls	r3, r3, #6
 8004b22:	d4f7      	bmi.n	8004b14 <HAL_RCC_OscConfig+0x178>
          return HAL_ERROR;
        }
      }
    }
  }
  return HAL_OK;
 8004b24:	2000      	movs	r0, #0
}
 8004b26:	b002      	add	sp, #8
 8004b28:	e8bd 81f0 	ldmia.w	sp!, {r4, r5, r6, r7, r8, pc}
    if((RCC_OscInitStruct->LSIState)!= RCC_LSI_OFF)
 8004b2c:	6963      	ldr	r3, [r4, #20]
 8004b2e:	2b00      	cmp	r3, #0
 8004b30:	d02d      	beq.n	8004b8e <HAL_RCC_OscConfig+0x1f2>
      __HAL_RCC_LSI_ENABLE();
 8004b32:	4b42      	ldr	r3, [pc, #264]	@ (8004c3c <HAL_RCC_OscConfig+0x2a0>)
      while(__HAL_RCC_GET_FLAG(RCC_FLAG_LSIRDY) == RESET)
 8004b34:	4e40      	ldr	r6, [pc, #256]	@ (8004c38 <HAL_RCC_OscConfig+0x29c>)
      __HAL_RCC_LSI_ENABLE();
 8004b36:	2201      	movs	r2, #1
 8004b38:	f8c3 2e80 	str.w	r2, [r3, #3712]	@ 0xe80
      tickstart = HAL_GetTick();
 8004b3c:	f7ff f964 	bl	8003e08 <HAL_GetTick>
 8004b40:	4605      	mov	r5, r0
      while(__HAL_RCC_GET_FLAG(RCC_FLAG_LSIRDY) == RESET)
 8004b42:	e004      	b.n	8004b4e <HAL_RCC_OscConfig+0x1b2>
        if((HAL_GetTick() - tickstart ) > LSI_TIMEOUT_VALUE)
 8004b44:	f7ff f960 	bl	8003e08 <HAL_GetTick>
 8004b48:	1b40      	subs	r0, r0, r5
 8004b4a:	2802      	cmp	r0, #2
 8004b4c:	d85d      	bhi.n	8004c0a <HAL_RCC_OscConfig+0x26e>
      while(__HAL_RCC_GET_FLAG(RCC_FLAG_LSIRDY) == RESET)
 8004b4e:	6f73      	ldr	r3, [r6, #116]	@ 0x74
 8004b50:	079b      	lsls	r3, r3, #30
 8004b52:	d5f7      	bpl.n	8004b44 <HAL_RCC_OscConfig+0x1a8>
  if(((RCC_OscInitStruct->OscillatorType) & RCC_OSCILLATORTYPE_LSE) == RCC_OSCILLATORTYPE_LSE)
 8004b54:	6823      	ldr	r3, [r4, #0]
 8004b56:	e796      	b.n	8004a86 <HAL_RCC_OscConfig+0xea>
      ((__HAL_RCC_GET_SYSCLK_SOURCE() == RCC_CFGR_SWS_PLL) && ((RCC->PLLCFGR & RCC_PLLCFGR_PLLSRC) == RCC_PLLCFGR_PLLSRC_HSI)) ||\
 8004b58:	6852      	ldr	r2, [r2, #4]
 8004b5a:	0250      	lsls	r0, r2, #9
 8004b5c:	f53f af6d 	bmi.w	8004a3a <HAL_RCC_OscConfig+0x9e>
      if((__HAL_RCC_GET_FLAG(RCC_FLAG_HSIRDY) != RESET) && (RCC_OscInitStruct->HSIState != RCC_HSI_ON))
 8004b60:	4a35      	ldr	r2, [pc, #212]	@ (8004c38 <HAL_RCC_OscConfig+0x29c>)
 8004b62:	6812      	ldr	r2, [r2, #0]
 8004b64:	0792      	lsls	r2, r2, #30
 8004b66:	d523      	bpl.n	8004bb0 <HAL_RCC_OscConfig+0x214>
 8004b68:	68e2      	ldr	r2, [r4, #12]
 8004b6a:	2a01      	cmp	r2, #1
 8004b6c:	d020      	beq.n	8004bb0 <HAL_RCC_OscConfig+0x214>
    return HAL_ERROR;
 8004b6e:	2001      	movs	r0, #1
 8004b70:	e7d9      	b.n	8004b26 <HAL_RCC_OscConfig+0x18a>
      ((__HAL_RCC_GET_SYSCLK_SOURCE() == RCC_CFGR_SWS_PLL) && ((RCC->PLLCFGR & RCC_PLLCFGR_PLLSRC) == RCC_PLLCFGR_PLLSRC_HSE)) ||\
 8004b72:	684a      	ldr	r2, [r1, #4]
 8004b74:	0255      	lsls	r5, r2, #9
 8004b76:	f57f af28 	bpl.w	80049ca <HAL_RCC_OscConfig+0x2e>
      if((__HAL_RCC_GET_FLAG(RCC_FLAG_HSERDY) != RESET) && (RCC_OscInitStruct->HSEState == RCC_HSE_OFF))
 8004b7a:	4a2f      	ldr	r2, [pc, #188]	@ (8004c38 <HAL_RCC_OscConfig+0x29c>)
 8004b7c:	6812      	ldr	r2, [r2, #0]
 8004b7e:	0392      	lsls	r2, r2, #14
 8004b80:	f57f af4d 	bpl.w	8004a1e <HAL_RCC_OscConfig+0x82>
 8004b84:	6862      	ldr	r2, [r4, #4]
 8004b86:	2a00      	cmp	r2, #0
 8004b88:	f47f af49 	bne.w	8004a1e <HAL_RCC_OscConfig+0x82>
 8004b8c:	e7ef      	b.n	8004b6e <HAL_RCC_OscConfig+0x1d2>
      __HAL_RCC_LSI_DISABLE();
 8004b8e:	4a2b      	ldr	r2, [pc, #172]	@ (8004c3c <HAL_RCC_OscConfig+0x2a0>)
      while(__HAL_RCC_GET_FLAG(RCC_FLAG_LSIRDY) != RESET)
 8004b90:	4e29      	ldr	r6, [pc, #164]	@ (8004c38 <HAL_RCC_OscConfig+0x29c>)
      __HAL_RCC_LSI_DISABLE();
 8004b92:	f8c2 3e80 	str.w	r3, [r2, #3712]	@ 0xe80
      tickstart = HAL_GetTick();
 8004b96:	f7ff f937 	bl	8003e08 <HAL_GetTick>
 8004b9a:	4605      	mov	r5, r0
      while(__HAL_RCC_GET_FLAG(RCC_FLAG_LSIRDY) != RESET)
 8004b9c:	e004      	b.n	8004ba8 <HAL_RCC_OscConfig+0x20c>
        if((HAL_GetTick() - tickstart ) > LSI_TIMEOUT_VALUE)
 8004b9e:	f7ff f933 	bl	8003e08 <HAL_GetTick>
 8004ba2:	1b40      	subs	r0, r0, r5
 8004ba4:	2802      	cmp	r0, #2
 8004ba6:	d830      	bhi.n	8004c0a <HAL_RCC_OscConfig+0x26e>
      while(__HAL_RCC_GET_FLAG(RCC_FLAG_LSIRDY) != RESET)
 8004ba8:	6f73      	ldr	r3, [r6, #116]	@ 0x74
 8004baa:	079f      	lsls	r7, r3, #30
 8004bac:	d4f7      	bmi.n	8004b9e <HAL_RCC_OscConfig+0x202>
 8004bae:	e7d1      	b.n	8004b54 <HAL_RCC_OscConfig+0x1b8>
        __HAL_RCC_HSI_CALIBRATIONVALUE_ADJUST(RCC_OscInitStruct->HSICalibrationValue);
 8004bb0:	4921      	ldr	r1, [pc, #132]	@ (8004c38 <HAL_RCC_OscConfig+0x29c>)
 8004bb2:	6920      	ldr	r0, [r4, #16]
 8004bb4:	680a      	ldr	r2, [r1, #0]
 8004bb6:	f022 02f8 	bic.w	r2, r2, #248	@ 0xf8
 8004bba:	ea42 02c0 	orr.w	r2, r2, r0, lsl #3
 8004bbe:	600a      	str	r2, [r1, #0]
  if(((RCC_OscInitStruct->OscillatorType) & RCC_OSCILLATORTYPE_LSI) == RCC_OSCILLATORTYPE_LSI)
 8004bc0:	071a      	lsls	r2, r3, #28
 8004bc2:	f57f af60 	bpl.w	8004a86 <HAL_RCC_OscConfig+0xea>
 8004bc6:	e7b1      	b.n	8004b2c <HAL_RCC_OscConfig+0x190>
      __HAL_RCC_PWR_CLK_ENABLE();
 8004bc8:	9301      	str	r3, [sp, #4]
 8004bca:	6c13      	ldr	r3, [r2, #64]	@ 0x40
 8004bcc:	f043 5380 	orr.w	r3, r3, #268435456	@ 0x10000000
 8004bd0:	6413      	str	r3, [r2, #64]	@ 0x40
 8004bd2:	6c13      	ldr	r3, [r2, #64]	@ 0x40
 8004bd4:	f003 5380 	and.w	r3, r3, #268435456	@ 0x10000000
 8004bd8:	9301      	str	r3, [sp, #4]
 8004bda:	9b01      	ldr	r3, [sp, #4]
      pwrclkchanged = SET;
 8004bdc:	2501      	movs	r5, #1
 8004bde:	e75b      	b.n	8004a98 <HAL_RCC_OscConfig+0xfc>
      ((__HAL_RCC_GET_SYSCLK_SOURCE() == RCC_CFGR_SWS_PLLR) && ((RCC->PLLCFGR & RCC_PLLCFGR_PLLSRC) == RCC_PLLCFGR_PLLSRC_HSE)))
 8004be0:	684a      	ldr	r2, [r1, #4]
 8004be2:	0251      	lsls	r1, r2, #9
 8004be4:	f57f aef8 	bpl.w	80049d8 <HAL_RCC_OscConfig+0x3c>
 8004be8:	e7c7      	b.n	8004b7a <HAL_RCC_OscConfig+0x1de>
      SET_BIT(PWR->CR, PWR_CR_DBP);
 8004bea:	6833      	ldr	r3, [r6, #0]
 8004bec:	f443 7380 	orr.w	r3, r3, #256	@ 0x100
 8004bf0:	6033      	str	r3, [r6, #0]
      tickstart = HAL_GetTick();
 8004bf2:	f7ff f909 	bl	8003e08 <HAL_GetTick>
 8004bf6:	4607      	mov	r7, r0
      while(HAL_IS_BIT_CLR(PWR->CR, PWR_CR_DBP))
 8004bf8:	6833      	ldr	r3, [r6, #0]
 8004bfa:	05d9      	lsls	r1, r3, #23
 8004bfc:	f53f af51 	bmi.w	8004aa2 <HAL_RCC_OscConfig+0x106>
        if((HAL_GetTick() - tickstart) > RCC_DBP_TIMEOUT_VALUE)
 8004c00:	f7ff f902 	bl	8003e08 <HAL_GetTick>
 8004c04:	1bc0      	subs	r0, r0, r7
 8004c06:	2802      	cmp	r0, #2
 8004c08:	d9f6      	bls.n	8004bf8 <HAL_RCC_OscConfig+0x25c>
            return HAL_TIMEOUT;
 8004c0a:	2003      	movs	r0, #3
}
 8004c0c:	b002      	add	sp, #8
 8004c0e:	e8bd 81f0 	ldmia.w	sp!, {r4, r5, r6, r7, r8, pc}
      __HAL_RCC_HSE_CONFIG(RCC_OscInitStruct->HSEState);
 8004c12:	4a09      	ldr	r2, [pc, #36]	@ (8004c38 <HAL_RCC_OscConfig+0x29c>)
 8004c14:	6813      	ldr	r3, [r2, #0]
 8004c16:	f443 3380 	orr.w	r3, r3, #65536	@ 0x10000
 8004c1a:	6013      	str	r3, [r2, #0]
        tickstart = HAL_GetTick();
 8004c1c:	f7ff f8f4 	bl	8003e08 <HAL_GetTick>
        while(__HAL_RCC_GET_FLAG(RCC_FLAG_HSERDY) == RESET)
 8004c20:	4e05      	ldr	r6, [pc, #20]	@ (8004c38 <HAL_RCC_OscConfig+0x29c>)
        tickstart = HAL_GetTick();
 8004c22:	4605      	mov	r5, r0
        while(__HAL_RCC_GET_FLAG(RCC_FLAG_HSERDY) == RESET)
 8004c24:	e004      	b.n	8004c30 <HAL_RCC_OscConfig+0x294>
          if((HAL_GetTick() - tickstart ) > HSE_TIMEOUT_VALUE)
 8004c26:	f7ff f8ef 	bl	8003e08 <HAL_GetTick>
 8004c2a:	1b40      	subs	r0, r0, r5
 8004c2c:	2864      	cmp	r0, #100	@ 0x64
 8004c2e:	d8ec      	bhi.n	8004c0a <HAL_RCC_OscConfig+0x26e>
        while(__HAL_RCC_GET_FLAG(RCC_FLAG_HSERDY) == RESET)
 8004c30:	6833      	ldr	r3, [r6, #0]
 8004c32:	039b      	lsls	r3, r3, #14
 8004c34:	d5f7      	bpl.n	8004c26 <HAL_RCC_OscConfig+0x28a>
 8004c36:	e6f1      	b.n	8004a1c <HAL_RCC_OscConfig+0x80>
 8004c38:	40023800 	.word	0x40023800
 8004c3c:	42470000 	.word	0x42470000
 8004c40:	40007000 	.word	0x40007000
    __HAL_RCC_LSE_CONFIG(RCC_OscInitStruct->LSEState);
 8004c44:	4a55      	ldr	r2, [pc, #340]	@ (8004d9c <HAL_RCC_OscConfig+0x400>)
 8004c46:	6f13      	ldr	r3, [r2, #112]	@ 0x70
 8004c48:	f043 0301 	orr.w	r3, r3, #1
 8004c4c:	6713      	str	r3, [r2, #112]	@ 0x70
      tickstart = HAL_GetTick();
 8004c4e:	f7ff f8db 	bl	8003e08 <HAL_GetTick>
      while(__HAL_RCC_GET_FLAG(RCC_FLAG_LSERDY) == RESET)
 8004c52:	4f52      	ldr	r7, [pc, #328]	@ (8004d9c <HAL_RCC_OscConfig+0x400>)
      tickstart = HAL_GetTick();
 8004c54:	4606      	mov	r6, r0
        if((HAL_GetTick() - tickstart ) > RCC_LSE_TIMEOUT_VALUE)
 8004c56:	f241 3888 	movw	r8, #5000	@ 0x1388
      while(__HAL_RCC_GET_FLAG(RCC_FLAG_LSERDY) == RESET)
 8004c5a:	e004      	b.n	8004c66 <HAL_RCC_OscConfig+0x2ca>
        if((HAL_GetTick() - tickstart ) > RCC_LSE_TIMEOUT_VALUE)
 8004c5c:	f7ff f8d4 	bl	8003e08 <HAL_GetTick>
 8004c60:	1b80      	subs	r0, r0, r6
 8004c62:	4540      	cmp	r0, r8
 8004c64:	d8d1      	bhi.n	8004c0a <HAL_RCC_OscConfig+0x26e>
      while(__HAL_RCC_GET_FLAG(RCC_FLAG_LSERDY) == RESET)
 8004c66:	6f3b      	ldr	r3, [r7, #112]	@ 0x70
 8004c68:	079a      	lsls	r2, r3, #30
 8004c6a:	d5f7      	bpl.n	8004c5c <HAL_RCC_OscConfig+0x2c0>
    if(pwrclkchanged == SET)
 8004c6c:	2d00      	cmp	r5, #0
 8004c6e:	f43f af3d 	beq.w	8004aec <HAL_RCC_OscConfig+0x150>
 8004c72:	e041      	b.n	8004cf8 <HAL_RCC_OscConfig+0x35c>
        __HAL_RCC_HSI_DISABLE();
 8004c74:	4a4a      	ldr	r2, [pc, #296]	@ (8004da0 <HAL_RCC_OscConfig+0x404>)
        while(__HAL_RCC_GET_FLAG(RCC_FLAG_HSIRDY) != RESET)
 8004c76:	4e49      	ldr	r6, [pc, #292]	@ (8004d9c <HAL_RCC_OscConfig+0x400>)
        __HAL_RCC_HSI_DISABLE();
 8004c78:	6013      	str	r3, [r2, #0]
        tickstart = HAL_GetTick();
 8004c7a:	f7ff f8c5 	bl	8003e08 <HAL_GetTick>
 8004c7e:	4605      	mov	r5, r0
        while(__HAL_RCC_GET_FLAG(RCC_FLAG_HSIRDY) != RESET)
 8004c80:	e004      	b.n	8004c8c <HAL_RCC_OscConfig+0x2f0>
          if((HAL_GetTick() - tickstart ) > HSI_TIMEOUT_VALUE)
 8004c82:	f7ff f8c1 	bl	8003e08 <HAL_GetTick>
 8004c86:	1b40      	subs	r0, r0, r5
 8004c88:	2802      	cmp	r0, #2
 8004c8a:	d8be      	bhi.n	8004c0a <HAL_RCC_OscConfig+0x26e>
        while(__HAL_RCC_GET_FLAG(RCC_FLAG_HSIRDY) != RESET)
 8004c8c:	6833      	ldr	r3, [r6, #0]
 8004c8e:	0799      	lsls	r1, r3, #30
 8004c90:	d4f7      	bmi.n	8004c82 <HAL_RCC_OscConfig+0x2e6>
  if(((RCC_OscInitStruct->OscillatorType) & RCC_OSCILLATORTYPE_LSI) == RCC_OSCILLATORTYPE_LSI)
 8004c92:	6823      	ldr	r3, [r4, #0]
 8004c94:	e6f5      	b.n	8004a82 <HAL_RCC_OscConfig+0xe6>
      if((RCC_OscInitStruct->PLL.PLLState) == RCC_PLL_OFF)
 8004c96:	2b01      	cmp	r3, #1
 8004c98:	f43f af69 	beq.w	8004b6e <HAL_RCC_OscConfig+0x1d2>
        pll_config = RCC->PLLCFGR;
 8004c9c:	686b      	ldr	r3, [r5, #4]
        if (((RCC_OscInitStruct->PLL.PLLState) == RCC_PLL_OFF) ||
 8004c9e:	69e2      	ldr	r2, [r4, #28]
            (READ_BIT(pll_config, RCC_PLLCFGR_PLLSRC) != RCC_OscInitStruct->PLL.PLLSource) ||
 8004ca0:	f403 0180 	and.w	r1, r3, #4194304	@ 0x400000
        if (((RCC_OscInitStruct->PLL.PLLState) == RCC_PLL_OFF) ||
 8004ca4:	4291      	cmp	r1, r2
 8004ca6:	f47f af62 	bne.w	8004b6e <HAL_RCC_OscConfig+0x1d2>
            (READ_BIT(pll_config, RCC_PLLCFGR_PLLSRC) != RCC_OscInitStruct->PLL.PLLSource) ||
 8004caa:	6a22      	ldr	r2, [r4, #32]
            (READ_BIT(pll_config, RCC_PLLCFGR_PLLM) != (RCC_OscInitStruct->PLL.PLLM) << RCC_PLLCFGR_PLLM_Pos) ||
 8004cac:	f003 013f 	and.w	r1, r3, #63	@ 0x3f
            (READ_BIT(pll_config, RCC_PLLCFGR_PLLSRC) != RCC_OscInitStruct->PLL.PLLSource) ||
 8004cb0:	4291      	cmp	r1, r2
 8004cb2:	f47f af5c 	bne.w	8004b6e <HAL_RCC_OscConfig+0x1d2>
            (READ_BIT(pll_config, RCC_PLLCFGR_PLLN) != (RCC_OscInitStruct->PLL.PLLN) << RCC_PLLCFGR_PLLN_Pos) ||
 8004cb6:	6a61      	ldr	r1, [r4, #36]	@ 0x24
 8004cb8:	f647 72c0 	movw	r2, #32704	@ 0x7fc0
 8004cbc:	401a      	ands	r2, r3
            (READ_BIT(pll_config, RCC_PLLCFGR_PLLM) != (RCC_OscInitStruct->PLL.PLLM) << RCC_PLLCFGR_PLLM_Pos) ||
 8004cbe:	ebb2 1f81 	cmp.w	r2, r1, lsl #6
 8004cc2:	f47f af54 	bne.w	8004b6e <HAL_RCC_OscConfig+0x1d2>
            (READ_BIT(pll_config, RCC_PLLCFGR_PLLP) != (((RCC_OscInitStruct->PLL.PLLP >> 1U) - 1U)) << RCC_PLLCFGR_PLLP_Pos) ||
 8004cc6:	6aa2      	ldr	r2, [r4, #40]	@ 0x28
 8004cc8:	0852      	lsrs	r2, r2, #1
 8004cca:	f403 3140 	and.w	r1, r3, #196608	@ 0x30000
 8004cce:	3a01      	subs	r2, #1
            (READ_BIT(pll_config, RCC_PLLCFGR_PLLN) != (RCC_OscInitStruct->PLL.PLLN) << RCC_PLLCFGR_PLLN_Pos) ||
 8004cd0:	ebb1 4f02 	cmp.w	r1, r2, lsl #16
 8004cd4:	f47f af4b 	bne.w	8004b6e <HAL_RCC_OscConfig+0x1d2>
            (READ_BIT(pll_config, RCC_PLLCFGR_PLLQ) != (RCC_OscInitStruct->PLL.PLLQ << RCC_PLLCFGR_PLLQ_Pos)) ||
 8004cd8:	6ae1      	ldr	r1, [r4, #44]	@ 0x2c
 8004cda:	f003 6270 	and.w	r2, r3, #251658240	@ 0xf000000
            (READ_BIT(pll_config, RCC_PLLCFGR_PLLP) != (((RCC_OscInitStruct->PLL.PLLP >> 1U) - 1U)) << RCC_PLLCFGR_PLLP_Pos) ||
 8004cde:	ebb2 6f01 	cmp.w	r2, r1, lsl #24
 8004ce2:	f47f af44 	bne.w	8004b6e <HAL_RCC_OscConfig+0x1d2>
            (READ_BIT(pll_config, RCC_PLLCFGR_PLLR) != (RCC_OscInitStruct->PLL.PLLR << RCC_PLLCFGR_PLLR_Pos)))
 8004ce6:	6b22      	ldr	r2, [r4, #48]	@ 0x30
 8004ce8:	f003 43e0 	and.w	r3, r3, #1879048192	@ 0x70000000
            (READ_BIT(pll_config, RCC_PLLCFGR_PLLQ) != (RCC_OscInitStruct->PLL.PLLQ << RCC_PLLCFGR_PLLQ_Pos)) ||
 8004cec:	ebb3 7f02 	cmp.w	r3, r2, lsl #28
 8004cf0:	bf14      	ite	ne
 8004cf2:	2001      	movne	r0, #1
 8004cf4:	2000      	moveq	r0, #0
 8004cf6:	e716      	b.n	8004b26 <HAL_RCC_OscConfig+0x18a>
      __HAL_RCC_PWR_CLK_DISABLE();
 8004cf8:	4a28      	ldr	r2, [pc, #160]	@ (8004d9c <HAL_RCC_OscConfig+0x400>)
 8004cfa:	6c13      	ldr	r3, [r2, #64]	@ 0x40
 8004cfc:	f023 5380 	bic.w	r3, r3, #268435456	@ 0x10000000
 8004d00:	6413      	str	r3, [r2, #64]	@ 0x40
 8004d02:	e6f3      	b.n	8004aec <HAL_RCC_OscConfig+0x150>
      ((__HAL_RCC_GET_SYSCLK_SOURCE() == RCC_CFGR_SWS_PLLR) && ((RCC->PLLCFGR & RCC_PLLCFGR_PLLSRC) == RCC_PLLCFGR_PLLSRC_HSI)))
 8004d04:	684a      	ldr	r2, [r1, #4]
 8004d06:	0251      	lsls	r1, r2, #9
 8004d08:	f53f ae9e 	bmi.w	8004a48 <HAL_RCC_OscConfig+0xac>
 8004d0c:	e728      	b.n	8004b60 <HAL_RCC_OscConfig+0x1c4>
      __HAL_RCC_HSE_CONFIG(RCC_OscInitStruct->HSEState);
 8004d0e:	4b23      	ldr	r3, [pc, #140]	@ (8004d9c <HAL_RCC_OscConfig+0x400>)
 8004d10:	681a      	ldr	r2, [r3, #0]
 8004d12:	f442 2280 	orr.w	r2, r2, #262144	@ 0x40000
 8004d16:	601a      	str	r2, [r3, #0]
 8004d18:	681a      	ldr	r2, [r3, #0]
 8004d1a:	f442 3280 	orr.w	r2, r2, #65536	@ 0x10000
 8004d1e:	601a      	str	r2, [r3, #0]
      if((RCC_OscInitStruct->HSEState) != RCC_HSE_OFF)
 8004d20:	e77c      	b.n	8004c1c <HAL_RCC_OscConfig+0x280>
    __HAL_RCC_LSE_CONFIG(RCC_OscInitStruct->LSEState);
 8004d22:	4b1e      	ldr	r3, [pc, #120]	@ (8004d9c <HAL_RCC_OscConfig+0x400>)
 8004d24:	6f1a      	ldr	r2, [r3, #112]	@ 0x70
 8004d26:	f042 0204 	orr.w	r2, r2, #4
 8004d2a:	671a      	str	r2, [r3, #112]	@ 0x70
 8004d2c:	6f1a      	ldr	r2, [r3, #112]	@ 0x70
 8004d2e:	f042 0201 	orr.w	r2, r2, #1
 8004d32:	671a      	str	r2, [r3, #112]	@ 0x70
    if((RCC_OscInitStruct->LSEState) != RCC_LSE_OFF)
 8004d34:	e78b      	b.n	8004c4e <HAL_RCC_OscConfig+0x2b2>
        tickstart = HAL_GetTick();
 8004d36:	f7ff f867 	bl	8003e08 <HAL_GetTick>
 8004d3a:	4606      	mov	r6, r0
        while(__HAL_RCC_GET_FLAG(RCC_FLAG_PLLRDY) != RESET)
 8004d3c:	e005      	b.n	8004d4a <HAL_RCC_OscConfig+0x3ae>
          if((HAL_GetTick() - tickstart ) > PLL_TIMEOUT_VALUE)
 8004d3e:	f7ff f863 	bl	8003e08 <HAL_GetTick>
 8004d42:	1b80      	subs	r0, r0, r6
 8004d44:	2802      	cmp	r0, #2
 8004d46:	f63f af60 	bhi.w	8004c0a <HAL_RCC_OscConfig+0x26e>
        while(__HAL_RCC_GET_FLAG(RCC_FLAG_PLLRDY) != RESET)
 8004d4a:	682b      	ldr	r3, [r5, #0]
 8004d4c:	0199      	lsls	r1, r3, #6
 8004d4e:	d4f6      	bmi.n	8004d3e <HAL_RCC_OscConfig+0x3a2>
        WRITE_REG(RCC->PLLCFGR, (RCC_OscInitStruct->PLL.PLLSource                                            | \
 8004d50:	e9d4 3107 	ldrd	r3, r1, [r4, #28]
 8004d54:	6a62      	ldr	r2, [r4, #36]	@ 0x24
 8004d56:	430b      	orrs	r3, r1
 8004d58:	ea43 1382 	orr.w	r3, r3, r2, lsl #6
 8004d5c:	e9d4 200a 	ldrd	r2, r0, [r4, #40]	@ 0x28
 8004d60:	6b21      	ldr	r1, [r4, #48]	@ 0x30
 8004d62:	ea43 6300 	orr.w	r3, r3, r0, lsl #24
 8004d66:	0852      	lsrs	r2, r2, #1
 8004d68:	ea43 7301 	orr.w	r3, r3, r1, lsl #28
 8004d6c:	3a01      	subs	r2, #1
        __HAL_RCC_PLL_ENABLE();
 8004d6e:	490c      	ldr	r1, [pc, #48]	@ (8004da0 <HAL_RCC_OscConfig+0x404>)
        WRITE_REG(RCC->PLLCFGR, (RCC_OscInitStruct->PLL.PLLSource                                            | \
 8004d70:	ea43 4302 	orr.w	r3, r3, r2, lsl #16
        __HAL_RCC_PLL_ENABLE();
 8004d74:	2201      	movs	r2, #1
        WRITE_REG(RCC->PLLCFGR, (RCC_OscInitStruct->PLL.PLLSource                                            | \
 8004d76:	606b      	str	r3, [r5, #4]
        __HAL_RCC_PLL_ENABLE();
 8004d78:	660a      	str	r2, [r1, #96]	@ 0x60
        tickstart = HAL_GetTick();
 8004d7a:	f7ff f845 	bl	8003e08 <HAL_GetTick>
        while(__HAL_RCC_GET_FLAG(RCC_FLAG_PLLRDY) == RESET)
 8004d7e:	4d07      	ldr	r5, [pc, #28]	@ (8004d9c <HAL_RCC_OscConfig+0x400>)
        tickstart = HAL_GetTick();
 8004d80:	4604      	mov	r4, r0
        while(__HAL_RCC_GET_FLAG(RCC_FLAG_PLLRDY) == RESET)
 8004d82:	e005      	b.n	8004d90 <HAL_RCC_OscConfig+0x3f4>
          if((HAL_GetTick() - tickstart ) > PLL_TIMEOUT_VALUE)
 8004d84:	f7ff f840 	bl	8003e08 <HAL_GetTick>
 8004d88:	1b00      	subs	r0, r0, r4
 8004d8a:	2802      	cmp	r0, #2
 8004d8c:	f63f af3d 	bhi.w	8004c0a <HAL_RCC_OscConfig+0x26e>
        while(__HAL_RCC_GET_FLAG(RCC_FLAG_PLLRDY) == RESET)
 8004d90:	682b      	ldr	r3, [r5, #0]
 8004d92:	019a      	lsls	r2, r3, #6
 8004d94:	d5f6      	bpl.n	8004d84 <HAL_RCC_OscConfig+0x3e8>
 8004d96:	e6c5      	b.n	8004b24 <HAL_RCC_OscConfig+0x188>
    return HAL_ERROR;
 8004d98:	2001      	movs	r0, #1
}
 8004d9a:	4770      	bx	lr
 8004d9c:	40023800 	.word	0x40023800
 8004da0:	42470000 	.word	0x42470000

08004da4 <HAL_TIM_Base_Init>:
  * @retval HAL status
  */
HAL_StatusTypeDef HAL_TIM_Base_Init(TIM_HandleTypeDef *htim)
{
  /* Check the TIM handle allocation */
  if (htim == NULL)
 8004da4:	2800      	cmp	r0, #0
 8004da6:	f000 808f 	beq.w	8004ec8 <HAL_TIM_Base_Init+0x124>
{
 8004daa:	b538      	push	{r3, r4, r5, lr}
  assert_param(IS_TIM_COUNTER_MODE(htim->Init.CounterMode));
  assert_param(IS_TIM_CLOCKDIVISION_DIV(htim->Init.ClockDivision));
  assert_param(IS_TIM_PERIOD(htim, htim->Init.Period));
  assert_param(IS_TIM_AUTORELOAD_PRELOAD(htim->Init.AutoReloadPreload));

  if (htim->State == HAL_TIM_STATE_RESET)
 8004dac:	f890 303d 	ldrb.w	r3, [r0, #61]	@ 0x3d
 8004db0:	4604      	mov	r4, r0
 8004db2:	f003 02ff 	and.w	r2, r3, #255	@ 0xff
 8004db6:	2b00      	cmp	r3, #0
 8004db8:	f000 8081 	beq.w	8004ebe <HAL_TIM_Base_Init+0x11a>

  /* Set the TIM state */
  htim->State = HAL_TIM_STATE_BUSY;

  /* Set the Time Base configuration */
  TIM_Base_SetConfig(htim->Instance, &htim->Init);
 8004dbc:	6822      	ldr	r2, [r4, #0]
{
  uint32_t tmpcr1;
  tmpcr1 = TIMx->CR1;

  /* Set TIM Time Base Unit parameters ---------------------------------------*/
  if (IS_TIM_COUNTER_MODE_SELECT_INSTANCE(TIMx))
 8004dbe:	4943      	ldr	r1, [pc, #268]	@ (8004ecc <HAL_TIM_Base_Init+0x128>)
  htim->State = HAL_TIM_STATE_BUSY;
 8004dc0:	2302      	movs	r3, #2
 8004dc2:	f884 303d 	strb.w	r3, [r4, #61]	@ 0x3d
  if (IS_TIM_COUNTER_MODE_SELECT_INSTANCE(TIMx))
 8004dc6:	428a      	cmp	r2, r1
  tmpcr1 = TIMx->CR1;
 8004dc8:	6813      	ldr	r3, [r2, #0]
  if (IS_TIM_COUNTER_MODE_SELECT_INSTANCE(TIMx))
 8004dca:	d064      	beq.n	8004e96 <HAL_TIM_Base_Init+0xf2>
 8004dcc:	f1b2 4f80 	cmp.w	r2, #1073741824	@ 0x40000000
 8004dd0:	d030      	beq.n	8004e34 <HAL_TIM_Base_Init+0x90>
 8004dd2:	f5a1 417c 	sub.w	r1, r1, #64512	@ 0xfc00
 8004dd6:	428a      	cmp	r2, r1
 8004dd8:	d02c      	beq.n	8004e34 <HAL_TIM_Base_Init+0x90>
 8004dda:	f501 6180 	add.w	r1, r1, #1024	@ 0x400
 8004dde:	428a      	cmp	r2, r1
 8004de0:	d028      	beq.n	8004e34 <HAL_TIM_Base_Init+0x90>
 8004de2:	f501 6180 	add.w	r1, r1, #1024	@ 0x400
 8004de6:	428a      	cmp	r2, r1
 8004de8:	d024      	beq.n	8004e34 <HAL_TIM_Base_Init+0x90>
 8004dea:	f501 4178 	add.w	r1, r1, #63488	@ 0xf800
 8004dee:	428a      	cmp	r2, r1
 8004df0:	d051      	beq.n	8004e96 <HAL_TIM_Base_Init+0xf2>
    /* Select the Counter Mode */
    tmpcr1 &= ~(TIM_CR1_DIR | TIM_CR1_CMS);
    tmpcr1 |= Structure->CounterMode;
  }

  if (IS_TIM_CLOCK_DIVISION_INSTANCE(TIMx))
 8004df2:	f501 5170 	add.w	r1, r1, #15360	@ 0x3c00
 8004df6:	428a      	cmp	r2, r1
 8004df8:	d020      	beq.n	8004e3c <HAL_TIM_Base_Init+0x98>
 8004dfa:	4935      	ldr	r1, [pc, #212]	@ (8004ed0 <HAL_TIM_Base_Init+0x12c>)
 8004dfc:	428a      	cmp	r2, r1
 8004dfe:	d01d      	beq.n	8004e3c <HAL_TIM_Base_Init+0x98>
 8004e00:	f501 6180 	add.w	r1, r1, #1024	@ 0x400
 8004e04:	428a      	cmp	r2, r1
 8004e06:	d019      	beq.n	8004e3c <HAL_TIM_Base_Init+0x98>
 8004e08:	f5a1 3198 	sub.w	r1, r1, #77824	@ 0x13000
 8004e0c:	428a      	cmp	r2, r1
 8004e0e:	d015      	beq.n	8004e3c <HAL_TIM_Base_Init+0x98>
 8004e10:	f501 6180 	add.w	r1, r1, #1024	@ 0x400
 8004e14:	428a      	cmp	r2, r1
 8004e16:	d011      	beq.n	8004e3c <HAL_TIM_Base_Init+0x98>
 8004e18:	f501 6180 	add.w	r1, r1, #1024	@ 0x400
 8004e1c:	428a      	cmp	r2, r1
 8004e1e:	d00d      	beq.n	8004e3c <HAL_TIM_Base_Init+0x98>
    tmpcr1 &= ~TIM_CR1_CKD;
    tmpcr1 |= (uint32_t)Structure->ClockDivision;
  }

  /* Set the auto-reload preload */
  MODIFY_REG(tmpcr1, TIM_CR1_ARPE, Structure->AutoReloadPreload);
 8004e20:	69a5      	ldr	r5, [r4, #24]

  /* Set the Autoreload value */
  TIMx->ARR = (uint32_t)Structure->Period ;

  /* Set the Prescaler value */
  TIMx->PSC = Structure->Prescaler;
 8004e22:	6861      	ldr	r1, [r4, #4]
  TIMx->ARR = (uint32_t)Structure->Period ;
 8004e24:	68e0      	ldr	r0, [r4, #12]
  MODIFY_REG(tmpcr1, TIM_CR1_ARPE, Structure->AutoReloadPreload);
 8004e26:	f023 0380 	bic.w	r3, r3, #128	@ 0x80
 8004e2a:	432b      	orrs	r3, r5
  TIMx->CR1 = tmpcr1;
 8004e2c:	6013      	str	r3, [r2, #0]
  TIMx->ARR = (uint32_t)Structure->Period ;
 8004e2e:	62d0      	str	r0, [r2, #44]	@ 0x2c
  TIMx->PSC = Structure->Prescaler;
 8004e30:	6291      	str	r1, [r2, #40]	@ 0x28

  if (IS_TIM_REPETITION_COUNTER_INSTANCE(TIMx))
 8004e32:	e010      	b.n	8004e56 <HAL_TIM_Base_Init+0xb2>
    tmpcr1 |= Structure->CounterMode;
 8004e34:	68a1      	ldr	r1, [r4, #8]
    tmpcr1 &= ~(TIM_CR1_DIR | TIM_CR1_CMS);
 8004e36:	f023 0370 	bic.w	r3, r3, #112	@ 0x70
    tmpcr1 |= Structure->CounterMode;
 8004e3a:	430b      	orrs	r3, r1
    tmpcr1 |= (uint32_t)Structure->ClockDivision;
 8004e3c:	6920      	ldr	r0, [r4, #16]
  MODIFY_REG(tmpcr1, TIM_CR1_ARPE, Structure->AutoReloadPreload);
 8004e3e:	69a1      	ldr	r1, [r4, #24]
    tmpcr1 &= ~TIM_CR1_CKD;
 8004e40:	f423 7340 	bic.w	r3, r3, #768	@ 0x300
    tmpcr1 |= (uint32_t)Structure->ClockDivision;
 8004e44:	4303      	orrs	r3, r0
  MODIFY_REG(tmpcr1, TIM_CR1_ARPE, Structure->AutoReloadPreload);
 8004e46:	f023 0380 	bic.w	r3, r3, #128	@ 0x80
  TIMx->ARR = (uint32_t)Structure->Period ;
 8004e4a:	68e0      	ldr	r0, [r4, #12]
  MODIFY_REG(tmpcr1, TIM_CR1_ARPE, Structure->AutoReloadPreload);
 8004e4c:	430b      	orrs	r3, r1
  TIMx->PSC = Structure->Prescaler;
 8004e4e:	6861      	ldr	r1, [r4, #4]
  TIMx->CR1 = tmpcr1;
 8004e50:	6013      	str	r3, [r2, #0]
  TIMx->ARR = (uint32_t)Structure->Period ;
 8004e52:	62d0      	str	r0, [r2, #44]	@ 0x2c
  TIMx->PSC = Structure->Prescaler;
 8004e54:	6291      	str	r1, [r2, #40]	@ 0x28
    TIMx->RCR = Structure->RepetitionCounter;
  }

  /* Generate an update event to reload the Prescaler
     and the repetition counter (only for advanced timer) value immediately */
  TIMx->EGR = TIM_EGR_UG;
 8004e56:	2301      	movs	r3, #1
 8004e58:	6153      	str	r3, [r2, #20]

  /* Check if the update flag is set after the Update Generation, if so clear the UIF flag */
  if (HAL_IS_BIT_SET(TIMx->SR, TIM_FLAG_UPDATE))
 8004e5a:	6913      	ldr	r3, [r2, #16]
 8004e5c:	07db      	lsls	r3, r3, #31
 8004e5e:	d503      	bpl.n	8004e68 <HAL_TIM_Base_Init+0xc4>
  {
    /* Clear the update flag */
    CLEAR_BIT(TIMx->SR, TIM_FLAG_UPDATE);
 8004e60:	6913      	ldr	r3, [r2, #16]
 8004e62:	f023 0301 	bic.w	r3, r3, #1
 8004e66:	6113      	str	r3, [r2, #16]
  htim->DMABurstState = HAL_DMA_BURST_STATE_READY;
 8004e68:	2301      	movs	r3, #1
 8004e6a:	f884 3046 	strb.w	r3, [r4, #70]	@ 0x46
  TIM_CHANNEL_STATE_SET_ALL(htim, HAL_TIM_CHANNEL_STATE_READY);
 8004e6e:	f884 303e 	strb.w	r3, [r4, #62]	@ 0x3e
 8004e72:	f884 303f 	strb.w	r3, [r4, #63]	@ 0x3f
 8004e76:	f884 3040 	strb.w	r3, [r4, #64]	@ 0x40
 8004e7a:	f884 3041 	strb.w	r3, [r4, #65]	@ 0x41
  TIM_CHANNEL_N_STATE_SET_ALL(htim, HAL_TIM_CHANNEL_STATE_READY);
 8004e7e:	f884 3042 	strb.w	r3, [r4, #66]	@ 0x42
 8004e82:	f884 3043 	strb.w	r3, [r4, #67]	@ 0x43
 8004e86:	f884 3044 	strb.w	r3, [r4, #68]	@ 0x44
 8004e8a:	f884 3045 	strb.w	r3, [r4, #69]	@ 0x45
  htim->State = HAL_TIM_STATE_READY;
 8004e8e:	f884 303d 	strb.w	r3, [r4, #61]	@ 0x3d
  return HAL_OK;
 8004e92:	2000      	movs	r0, #0
}
 8004e94:	bd38      	pop	{r3, r4, r5, pc}
    tmpcr1 |= Structure->CounterMode;
 8004e96:	68a0      	ldr	r0, [r4, #8]
    tmpcr1 |= (uint32_t)Structure->ClockDivision;
 8004e98:	6921      	ldr	r1, [r4, #16]
    tmpcr1 &= ~(TIM_CR1_DIR | TIM_CR1_CMS);
 8004e9a:	f023 0370 	bic.w	r3, r3, #112	@ 0x70
    tmpcr1 |= Structure->CounterMode;
 8004e9e:	4303      	orrs	r3, r0
    tmpcr1 &= ~TIM_CR1_CKD;
 8004ea0:	f423 7340 	bic.w	r3, r3, #768	@ 0x300
    tmpcr1 |= (uint32_t)Structure->ClockDivision;
 8004ea4:	430b      	orrs	r3, r1
  MODIFY_REG(tmpcr1, TIM_CR1_ARPE, Structure->AutoReloadPreload);
 8004ea6:	69a1      	ldr	r1, [r4, #24]
 8004ea8:	f023 0380 	bic.w	r3, r3, #128	@ 0x80
 8004eac:	430b      	orrs	r3, r1
  TIMx->CR1 = tmpcr1;
 8004eae:	6013      	str	r3, [r2, #0]
  TIMx->ARR = (uint32_t)Structure->Period ;
 8004eb0:	68e3      	ldr	r3, [r4, #12]
 8004eb2:	62d3      	str	r3, [r2, #44]	@ 0x2c
  TIMx->PSC = Structure->Prescaler;
 8004eb4:	6863      	ldr	r3, [r4, #4]
 8004eb6:	6293      	str	r3, [r2, #40]	@ 0x28
    TIMx->RCR = Structure->RepetitionCounter;
 8004eb8:	6963      	ldr	r3, [r4, #20]
 8004eba:	6313      	str	r3, [r2, #48]	@ 0x30
 8004ebc:	e7cb      	b.n	8004e56 <HAL_TIM_Base_Init+0xb2>
    htim->Lock = HAL_UNLOCKED;
 8004ebe:	f880 203c 	strb.w	r2, [r0, #60]	@ 0x3c
    HAL_TIM_Base_MspInit(htim);
 8004ec2:	f7fe fc71 	bl	80037a8 <HAL_TIM_Base_MspInit>
 8004ec6:	e779      	b.n	8004dbc <HAL_TIM_Base_Init+0x18>
    return HAL_ERROR;
 8004ec8:	2001      	movs	r0, #1
}
 8004eca:	4770      	bx	lr
 8004ecc:	40010000 	.word	0x40010000
 8004ed0:	40014400 	.word	0x40014400

08004ed4 <HAL_TIM_PWM_MspInit>:
__weak void HAL_TIM_PWM_MspInit(TIM_HandleTypeDef *htim)
 8004ed4:	4770      	bx	lr
 8004ed6:	bf00      	nop

08004ed8 <HAL_TIM_PWM_Init>:
  if (htim == NULL)
 8004ed8:	2800      	cmp	r0, #0
 8004eda:	f000 808f 	beq.w	8004ffc <HAL_TIM_PWM_Init+0x124>
{
 8004ede:	b538      	push	{r3, r4, r5, lr}
  if (htim->State == HAL_TIM_STATE_RESET)
 8004ee0:	f890 303d 	ldrb.w	r3, [r0, #61]	@ 0x3d
 8004ee4:	4604      	mov	r4, r0
 8004ee6:	f003 02ff 	and.w	r2, r3, #255	@ 0xff
 8004eea:	2b00      	cmp	r3, #0
 8004eec:	f000 8081 	beq.w	8004ff2 <HAL_TIM_PWM_Init+0x11a>
  TIM_Base_SetConfig(htim->Instance, &htim->Init);
 8004ef0:	6822      	ldr	r2, [r4, #0]
  if (IS_TIM_COUNTER_MODE_SELECT_INSTANCE(TIMx))
 8004ef2:	4943      	ldr	r1, [pc, #268]	@ (8005000 <HAL_TIM_PWM_Init+0x128>)
  htim->State = HAL_TIM_STATE_BUSY;
 8004ef4:	2302      	movs	r3, #2
 8004ef6:	f884 303d 	strb.w	r3, [r4, #61]	@ 0x3d
  if (IS_TIM_COUNTER_MODE_SELECT_INSTANCE(TIMx))
 8004efa:	428a      	cmp	r2, r1
  tmpcr1 = TIMx->CR1;
 8004efc:	6813      	ldr	r3, [r2, #0]
  if (IS_TIM_COUNTER_MODE_SELECT_INSTANCE(TIMx))
 8004efe:	d064      	beq.n	8004fca <HAL_TIM_PWM_Init+0xf2>
 8004f00:	f1b2 4f80 	cmp.w	r2, #1073741824	@ 0x40000000
 8004f04:	d030      	beq.n	8004f68 <HAL_TIM_PWM_Init+0x90>
 8004f06:	f5a1 417c 	sub.w	r1, r1, #64512	@ 0xfc00
 8004f0a:	428a      	cmp	r2, r1
 8004f0c:	d02c      	beq.n	8004f68 <HAL_TIM_PWM_Init+0x90>
 8004f0e:	f501 6180 	add.w	r1, r1, #1024	@ 0x400
 8004f12:	428a      	cmp	r2, r1
 8004f14:	d028      	beq.n	8004f68 <HAL_TIM_PWM_Init+0x90>
 8004f16:	f501 6180 	add.w	r1, r1, #1024	@ 0x400
 8004f1a:	428a      	cmp	r2, r1
 8004f1c:	d024      	beq.n	8004f68 <HAL_TIM_PWM_Init+0x90>
 8004f1e:	f501 4178 	add.w	r1, r1, #63488	@ 0xf800
 8004f22:	428a      	cmp	r2, r1
 8004f24:	d051      	beq.n	8004fca <HAL_TIM_PWM_Init+0xf2>
  if (IS_TIM_CLOCK_DIVISION_INSTANCE(TIMx))
 8004f26:	f501 5170 	add.w	r1, r1, #15360	@ 0x3c00
 8004f2a:	428a      	cmp	r2, r1
 8004f2c:	d020      	beq.n	8004f70 <HAL_TIM_PWM_Init+0x98>
 8004f2e:	4935      	ldr	r1, [pc, #212]	@ (8005004 <HAL_TIM_PWM_Init+0x12c>)
 8004f30:	428a      	cmp	r2, r1
 8004f32:	d01d      	beq.n	8004f70 <HAL_TIM_PWM_Init+0x98>
 8004f34:	f501 6180 	add.w	r1, r1, #1024	@ 0x400
 8004f38:	428a      	cmp	r2, r1
 8004f3a:	d019      	beq.n	8004f70 <HAL_TIM_PWM_Init+0x98>
 8004f3c:	f5a1 3198 	sub.w	r1, r1, #77824	@ 0x13000
 8004f40:	428a      	cmp	r2, r1
 8004f42:	d015      	beq.n	8004f70 <HAL_TIM_PWM_Init+0x98>
 8004f44:	f501 6180 	add.w	r1, r1, #1024	@ 0x400
 8004f48:	428a      	cmp	r2, r1
 8004f4a:	d011      	beq.n	8004f70 <HAL_TIM_PWM_Init+0x98>
 8004f4c:	f501 6180 	add.w	r1, r1, #1024	@ 0x400
 8004f50:	428a      	cmp	r2, r1
 8004f52:	d00d      	beq.n	8004f70 <HAL_TIM_PWM_Init+0x98>
  MODIFY_REG(tmpcr1, TIM_CR1_ARPE, Structure->AutoReloadPreload);
 8004f54:	69a5      	ldr	r5, [r4, #24]
  TIMx->PSC = Structure->Prescaler;
 8004f56:	6861      	ldr	r1, [r4, #4]
  TIMx->ARR = (uint32_t)Structure->Period ;
 8004f58:	68e0      	ldr	r0, [r4, #12]
  MODIFY_REG(tmpcr1, TIM_CR1_ARPE, Structure->AutoReloadPreload);
 8004f5a:	f023 0380 	bic.w	r3, r3, #128	@ 0x80
 8004f5e:	432b      	orrs	r3, r5
  TIMx->CR1 = tmpcr1;
 8004f60:	6013      	str	r3, [r2, #0]
  TIMx->ARR = (uint32_t)Structure->Period ;
 8004f62:	62d0      	str	r0, [r2, #44]	@ 0x2c
  TIMx->PSC = Structure->Prescaler;
 8004f64:	6291      	str	r1, [r2, #40]	@ 0x28
  if (IS_TIM_REPETITION_COUNTER_INSTANCE(TIMx))
 8004f66:	e010      	b.n	8004f8a <HAL_TIM_PWM_Init+0xb2>
    tmpcr1 |= Structure->CounterMode;
 8004f68:	68a1      	ldr	r1, [r4, #8]
    tmpcr1 &= ~(TIM_CR1_DIR | TIM_CR1_CMS);
 8004f6a:	f023 0370 	bic.w	r3, r3, #112	@ 0x70
    tmpcr1 |= Structure->CounterMode;
 8004f6e:	430b      	orrs	r3, r1
    tmpcr1 |= (uint32_t)Structure->ClockDivision;
 8004f70:	6920      	ldr	r0, [r4, #16]
  MODIFY_REG(tmpcr1, TIM_CR1_ARPE, Structure->AutoReloadPreload);
 8004f72:	69a1      	ldr	r1, [r4, #24]
    tmpcr1 &= ~TIM_CR1_CKD;
 8004f74:	f423 7340 	bic.w	r3, r3, #768	@ 0x300
    tmpcr1 |= (uint32_t)Structure->ClockDivision;
 8004f78:	4303      	orrs	r3, r0
  MODIFY_REG(tmpcr1, TIM_CR1_ARPE, Structure->AutoReloadPreload);
 8004f7a:	f023 0380 	bic.w	r3, r3, #128	@ 0x80
  TIMx->ARR = (uint32_t)Structure->Period ;
 8004f7e:	68e0      	ldr	r0, [r4, #12]
  MODIFY_REG(tmpcr1, TIM_CR1_ARPE, Structure->AutoReloadPreload);
 8004f80:	430b      	orrs	r3, r1
  TIMx->PSC = Structure->Prescaler;
 8004f82:	6861      	ldr	r1, [r4, #4]
  TIMx->CR1 = tmpcr1;
 8004f84:	6013      	str	r3, [r2, #0]
  TIMx->ARR = (uint32_t)Structure->Period ;
 8004f86:	62d0      	str	r0, [r2, #44]	@ 0x2c
  TIMx->PSC = Structure->Prescaler;
 8004f88:	6291      	str	r1, [r2, #40]	@ 0x28
  TIMx->EGR = TIM_EGR_UG;
 8004f8a:	2301      	movs	r3, #1
 8004f8c:	6153      	str	r3, [r2, #20]
  if (HAL_IS_BIT_SET(TIMx->SR, TIM_FLAG_UPDATE))
 8004f8e:	6913      	ldr	r3, [r2, #16]
 8004f90:	07db      	lsls	r3, r3, #31
 8004f92:	d503      	bpl.n	8004f9c <HAL_TIM_PWM_Init+0xc4>
    CLEAR_BIT(TIMx->SR, TIM_FLAG_UPDATE);
 8004f94:	6913      	ldr	r3, [r2, #16]
 8004f96:	f023 0301 	bic.w	r3, r3, #1
 8004f9a:	6113      	str	r3, [r2, #16]
  htim->DMABurstState = HAL_DMA_BURST_STATE_READY;
 8004f9c:	2301      	movs	r3, #1
 8004f9e:	f884 3046 	strb.w	r3, [r4, #70]	@ 0x46
  TIM_CHANNEL_STATE_SET_ALL(htim, HAL_TIM_CHANNEL_STATE_READY);
 8004fa2:	f884 303e 	strb.w	r3, [r4, #62]	@ 0x3e
 8004fa6:	f884 303f 	strb.w	r3, [r4, #63]	@ 0x3f
 8004faa:	f884 3040 	strb.w	r3, [r4, #64]	@ 0x40
 8004fae:	f884 3041 	strb.w	r3, [r4, #65]	@ 0x41
  TIM_CHANNEL_N_STATE_SET_ALL(htim, HAL_TIM_CHANNEL_STATE_READY);
 8004fb2:	f884 3042 	strb.w	r3, [r4, #66]	@ 0x42
 8004fb6:	f884 3043 	strb.w	r3, [r4, #67]	@ 0x43
 8004fba:	f884 3044 	strb.w	r3, [r4, #68]	@ 0x44
 8004fbe:	f884 3045 	strb.w	r3, [r4, #69]	@ 0x45
  htim->State = HAL_TIM_STATE_READY;
 8004fc2:	f884 303d 	strb.w	r3, [r4, #61]	@ 0x3d
  return HAL_OK;
 8004fc6:	2000      	movs	r0, #0
}
 8004fc8:	bd38      	pop	{r3, r4, r5, pc}
    tmpcr1 |= Structure->CounterMode;
 8004fca:	68a0      	ldr	r0, [r4, #8]
    tmpcr1 |= (uint32_t)Structure->ClockDivision;
 8004fcc:	6921      	ldr	r1, [r4, #16]
    tmpcr1 &= ~(TIM_CR1_DIR | TIM_CR1_CMS);
 8004fce:	f023 0370 	bic.w	r3, r3, #112	@ 0x70
    tmpcr1 |= Structure->CounterMode;
 8004fd2:	4303      	orrs	r3, r0
    tmpcr1 &= ~TIM_CR1_CKD;
 8004fd4:	f423 7340 	bic.w	r3, r3, #768	@ 0x300
    tmpcr1 |= (uint32_t)Structure->ClockDivision;
 8004fd8:	430b      	orrs	r3, r1
  MODIFY_REG(tmpcr1, TIM_CR1_ARPE, Structure->AutoReloadPreload);
 8004fda:	69a1      	ldr	r1, [r4, #24]
 8004fdc:	f023 0380 	bic.w	r3, r3, #128	@ 0x80
 8004fe0:	430b      	orrs	r3, r1
  TIMx->CR1 = tmpcr1;
 8004fe2:	6013      	str	r3, [r2, #0]
  TIMx->ARR = (uint32_t)Structure->Period ;
 8004fe4:	68e3      	ldr	r3, [r4, #12]
 8004fe6:	62d3      	str	r3, [r2, #44]	@ 0x2c
  TIMx->PSC = Structure->Prescaler;
 8004fe8:	6863      	ldr	r3, [r4, #4]
 8004fea:	6293      	str	r3, [r2, #40]	@ 0x28
    TIMx->RCR = Structure->RepetitionCounter;
 8004fec:	6963      	ldr	r3, [r4, #20]
 8004fee:	6313      	str	r3, [r2, #48]	@ 0x30
 8004ff0:	e7cb      	b.n	8004f8a <HAL_TIM_PWM_Init+0xb2>
    htim->Lock = HAL_UNLOCKED;
 8004ff2:	f880 203c 	strb.w	r2, [r0, #60]	@ 0x3c
    HAL_TIM_PWM_MspInit(htim);
 8004ff6:	f7ff ff6d 	bl	8004ed4 <HAL_TIM_PWM_MspInit>
 8004ffa:	e779      	b.n	8004ef0 <HAL_TIM_PWM_Init+0x18>
    return HAL_ERROR;
 8004ffc:	2001      	movs	r0, #1
}
 8004ffe:	4770      	bx	lr
 8005000:	40010000 	.word	0x40010000
 8005004:	40014400 	.word	0x40014400

08005008 <HAL_TIM_Encoder_Init>:
  if (htim == NULL)
 8005008:	2800      	cmp	r0, #0
 800500a:	f000 80b6 	beq.w	800517a <HAL_TIM_Encoder_Init+0x172>
{
 800500e:	b5f8      	push	{r3, r4, r5, r6, r7, lr}
  if (htim->State == HAL_TIM_STATE_RESET)
 8005010:	f890 303d 	ldrb.w	r3, [r0, #61]	@ 0x3d
 8005014:	460d      	mov	r5, r1
 8005016:	4604      	mov	r4, r0
 8005018:	f003 02ff 	and.w	r2, r3, #255	@ 0xff
 800501c:	2b00      	cmp	r3, #0
 800501e:	f000 80a7 	beq.w	8005170 <HAL_TIM_Encoder_Init+0x168>
  htim->Instance->SMCR &= ~(TIM_SMCR_SMS | TIM_SMCR_ECE);
 8005022:	6823      	ldr	r3, [r4, #0]
  if (IS_TIM_COUNTER_MODE_SELECT_INSTANCE(TIMx))
 8005024:	4956      	ldr	r1, [pc, #344]	@ (8005180 <HAL_TIM_Encoder_Init+0x178>)
  htim->State = HAL_TIM_STATE_BUSY;
 8005026:	2202      	movs	r2, #2
 8005028:	f884 203d 	strb.w	r2, [r4, #61]	@ 0x3d
  htim->Instance->SMCR &= ~(TIM_SMCR_SMS | TIM_SMCR_ECE);
 800502c:	689a      	ldr	r2, [r3, #8]
 800502e:	f422 4280 	bic.w	r2, r2, #16384	@ 0x4000
 8005032:	f022 0207 	bic.w	r2, r2, #7
 8005036:	609a      	str	r2, [r3, #8]
  if (IS_TIM_COUNTER_MODE_SELECT_INSTANCE(TIMx))
 8005038:	428b      	cmp	r3, r1
  tmpcr1 = TIMx->CR1;
 800503a:	681a      	ldr	r2, [r3, #0]
  if (IS_TIM_COUNTER_MODE_SELECT_INSTANCE(TIMx))
 800503c:	f000 8084 	beq.w	8005148 <HAL_TIM_Encoder_Init+0x140>
 8005040:	f1b3 4f80 	cmp.w	r3, #1073741824	@ 0x40000000
 8005044:	d030      	beq.n	80050a8 <HAL_TIM_Encoder_Init+0xa0>
 8005046:	f5a1 417c 	sub.w	r1, r1, #64512	@ 0xfc00
 800504a:	428b      	cmp	r3, r1
 800504c:	d02c      	beq.n	80050a8 <HAL_TIM_Encoder_Init+0xa0>
 800504e:	f501 6180 	add.w	r1, r1, #1024	@ 0x400
 8005052:	428b      	cmp	r3, r1
 8005054:	d028      	beq.n	80050a8 <HAL_TIM_Encoder_Init+0xa0>
 8005056:	f501 6180 	add.w	r1, r1, #1024	@ 0x400
 800505a:	428b      	cmp	r3, r1
 800505c:	d024      	beq.n	80050a8 <HAL_TIM_Encoder_Init+0xa0>
 800505e:	f501 4178 	add.w	r1, r1, #63488	@ 0xf800
 8005062:	428b      	cmp	r3, r1
 8005064:	d070      	beq.n	8005148 <HAL_TIM_Encoder_Init+0x140>
  if (IS_TIM_CLOCK_DIVISION_INSTANCE(TIMx))
 8005066:	f501 5170 	add.w	r1, r1, #15360	@ 0x3c00
 800506a:	428b      	cmp	r3, r1
 800506c:	d020      	beq.n	80050b0 <HAL_TIM_Encoder_Init+0xa8>
 800506e:	4945      	ldr	r1, [pc, #276]	@ (8005184 <HAL_TIM_Encoder_Init+0x17c>)
 8005070:	428b      	cmp	r3, r1
 8005072:	d01d      	beq.n	80050b0 <HAL_TIM_Encoder_Init+0xa8>
 8005074:	f501 6180 	add.w	r1, r1, #1024	@ 0x400
 8005078:	428b      	cmp	r3, r1
 800507a:	d019      	beq.n	80050b0 <HAL_TIM_Encoder_Init+0xa8>
 800507c:	f5a1 3198 	sub.w	r1, r1, #77824	@ 0x13000
 8005080:	428b      	cmp	r3, r1
 8005082:	d015      	beq.n	80050b0 <HAL_TIM_Encoder_Init+0xa8>
 8005084:	f501 6180 	add.w	r1, r1, #1024	@ 0x400
 8005088:	428b      	cmp	r3, r1
 800508a:	d011      	beq.n	80050b0 <HAL_TIM_Encoder_Init+0xa8>
 800508c:	f501 6180 	add.w	r1, r1, #1024	@ 0x400
 8005090:	428b      	cmp	r3, r1
 8005092:	d00d      	beq.n	80050b0 <HAL_TIM_Encoder_Init+0xa8>
  MODIFY_REG(tmpcr1, TIM_CR1_ARPE, Structure->AutoReloadPreload);
 8005094:	69a0      	ldr	r0, [r4, #24]
  TIMx->PSC = Structure->Prescaler;
 8005096:	6861      	ldr	r1, [r4, #4]
  MODIFY_REG(tmpcr1, TIM_CR1_ARPE, Structure->AutoReloadPreload);
 8005098:	f022 0280 	bic.w	r2, r2, #128	@ 0x80
 800509c:	4302      	orrs	r2, r0
  TIMx->ARR = (uint32_t)Structure->Period ;
 800509e:	68e0      	ldr	r0, [r4, #12]
  TIMx->CR1 = tmpcr1;
 80050a0:	601a      	str	r2, [r3, #0]
  TIMx->ARR = (uint32_t)Structure->Period ;
 80050a2:	62d8      	str	r0, [r3, #44]	@ 0x2c
  TIMx->PSC = Structure->Prescaler;
 80050a4:	6299      	str	r1, [r3, #40]	@ 0x28
  if (IS_TIM_REPETITION_COUNTER_INSTANCE(TIMx))
 80050a6:	e010      	b.n	80050ca <HAL_TIM_Encoder_Init+0xc2>
    tmpcr1 |= Structure->CounterMode;
 80050a8:	68a1      	ldr	r1, [r4, #8]
    tmpcr1 &= ~(TIM_CR1_DIR | TIM_CR1_CMS);
 80050aa:	f022 0270 	bic.w	r2, r2, #112	@ 0x70
    tmpcr1 |= Structure->CounterMode;
 80050ae:	430a      	orrs	r2, r1
    tmpcr1 |= (uint32_t)Structure->ClockDivision;
 80050b0:	6921      	ldr	r1, [r4, #16]
    tmpcr1 &= ~TIM_CR1_CKD;
 80050b2:	f422 7240 	bic.w	r2, r2, #768	@ 0x300
    tmpcr1 |= (uint32_t)Structure->ClockDivision;
 80050b6:	430a      	orrs	r2, r1
  MODIFY_REG(tmpcr1, TIM_CR1_ARPE, Structure->AutoReloadPreload);
 80050b8:	69a1      	ldr	r1, [r4, #24]
 80050ba:	f022 0280 	bic.w	r2, r2, #128	@ 0x80
 80050be:	430a      	orrs	r2, r1
  TIMx->ARR = (uint32_t)Structure->Period ;
 80050c0:	68e1      	ldr	r1, [r4, #12]
  TIMx->CR1 = tmpcr1;
 80050c2:	601a      	str	r2, [r3, #0]
  TIMx->PSC = Structure->Prescaler;
 80050c4:	6862      	ldr	r2, [r4, #4]
  TIMx->ARR = (uint32_t)Structure->Period ;
 80050c6:	62d9      	str	r1, [r3, #44]	@ 0x2c
  TIMx->PSC = Structure->Prescaler;
 80050c8:	629a      	str	r2, [r3, #40]	@ 0x28
  TIMx->EGR = TIM_EGR_UG;
 80050ca:	2201      	movs	r2, #1
 80050cc:	615a      	str	r2, [r3, #20]
  if (HAL_IS_BIT_SET(TIMx->SR, TIM_FLAG_UPDATE))
 80050ce:	691a      	ldr	r2, [r3, #16]
 80050d0:	07d2      	lsls	r2, r2, #31
 80050d2:	d503      	bpl.n	80050dc <HAL_TIM_Encoder_Init+0xd4>
    CLEAR_BIT(TIMx->SR, TIM_FLAG_UPDATE);
 80050d4:	691a      	ldr	r2, [r3, #16]
 80050d6:	f022 0201 	bic.w	r2, r2, #1
 80050da:	611a      	str	r2, [r3, #16]
  tmpsmcr = htim->Instance->SMCR;
 80050dc:	689e      	ldr	r6, [r3, #8]
  tmpccmr1 = htim->Instance->CCMR1;
 80050de:	6999      	ldr	r1, [r3, #24]
  tmpccmr1 |= (sConfig->IC1Selection | (sConfig->IC2Selection << 8U));
 80050e0:	69a8      	ldr	r0, [r5, #24]
 80050e2:	68aa      	ldr	r2, [r5, #8]
  tmpccmr1 |= (sConfig->IC1Filter << 4U) | (sConfig->IC2Filter << 12U);
 80050e4:	6a2f      	ldr	r7, [r5, #32]
  tmpccmr1 &= ~(TIM_CCMR1_CC1S | TIM_CCMR1_CC2S);
 80050e6:	f421 7140 	bic.w	r1, r1, #768	@ 0x300
 80050ea:	f021 0103 	bic.w	r1, r1, #3
  tmpccmr1 |= (sConfig->IC1Selection | (sConfig->IC2Selection << 8U));
 80050ee:	ea42 2200 	orr.w	r2, r2, r0, lsl #8
 80050f2:	430a      	orrs	r2, r1
  tmpccmr1 &= ~(TIM_CCMR1_IC1F | TIM_CCMR1_IC2F);
 80050f4:	f422 417c 	bic.w	r1, r2, #64512	@ 0xfc00
  tmpccmr1 |= (sConfig->IC1Filter << 4U) | (sConfig->IC2Filter << 12U);
 80050f8:	692a      	ldr	r2, [r5, #16]
  tmpccmr1 |= sConfig->IC1Prescaler | (sConfig->IC2Prescaler << 8U);
 80050fa:	69e8      	ldr	r0, [r5, #28]
  tmpccmr1 |= (sConfig->IC1Filter << 4U) | (sConfig->IC2Filter << 12U);
 80050fc:	0112      	lsls	r2, r2, #4
 80050fe:	ea42 2200 	orr.w	r2, r2, r0, lsl #8
 8005102:	68e8      	ldr	r0, [r5, #12]
 8005104:	4302      	orrs	r2, r0
  tmpccmr1 &= ~(TIM_CCMR1_IC1F | TIM_CCMR1_IC2F);
 8005106:	f021 01fc 	bic.w	r1, r1, #252	@ 0xfc
  tmpccmr1 |= (sConfig->IC1Filter << 4U) | (sConfig->IC2Filter << 12U);
 800510a:	ea42 3207 	orr.w	r2, r2, r7, lsl #12
  tmpccer = htim->Instance->CCER;
 800510e:	6a18      	ldr	r0, [r3, #32]
  tmpccer |= sConfig->IC1Polarity | (sConfig->IC2Polarity << 4U);
 8005110:	696f      	ldr	r7, [r5, #20]
  tmpccmr1 |= (sConfig->IC1Filter << 4U) | (sConfig->IC2Filter << 12U);
 8005112:	430a      	orrs	r2, r1
  tmpccer |= sConfig->IC1Polarity | (sConfig->IC2Polarity << 4U);
 8005114:	6869      	ldr	r1, [r5, #4]
  tmpccer &= ~(TIM_CCER_CC1NP | TIM_CCER_CC2NP);
 8005116:	f020 00aa 	bic.w	r0, r0, #170	@ 0xaa
  tmpccer |= sConfig->IC1Polarity | (sConfig->IC2Polarity << 4U);
 800511a:	ea41 1107 	orr.w	r1, r1, r7, lsl #4
 800511e:	4308      	orrs	r0, r1
  tmpsmcr |= sConfig->EncoderMode;
 8005120:	6829      	ldr	r1, [r5, #0]
 8005122:	430e      	orrs	r6, r1
  htim->DMABurstState = HAL_DMA_BURST_STATE_READY;
 8005124:	2101      	movs	r1, #1
  htim->Instance->SMCR = tmpsmcr;
 8005126:	609e      	str	r6, [r3, #8]
  htim->Instance->CCMR1 = tmpccmr1;
 8005128:	619a      	str	r2, [r3, #24]
  htim->Instance->CCER = tmpccer;
 800512a:	6218      	str	r0, [r3, #32]
  htim->DMABurstState = HAL_DMA_BURST_STATE_READY;
 800512c:	f884 1046 	strb.w	r1, [r4, #70]	@ 0x46
  TIM_CHANNEL_STATE_SET(htim, TIM_CHANNEL_1, HAL_TIM_CHANNEL_STATE_READY);
 8005130:	f884 103e 	strb.w	r1, [r4, #62]	@ 0x3e
  TIM_CHANNEL_STATE_SET(htim, TIM_CHANNEL_2, HAL_TIM_CHANNEL_STATE_READY);
 8005134:	f884 103f 	strb.w	r1, [r4, #63]	@ 0x3f
  TIM_CHANNEL_N_STATE_SET(htim, TIM_CHANNEL_1, HAL_TIM_CHANNEL_STATE_READY);
 8005138:	f884 1042 	strb.w	r1, [r4, #66]	@ 0x42
  TIM_CHANNEL_N_STATE_SET(htim, TIM_CHANNEL_2, HAL_TIM_CHANNEL_STATE_READY);
 800513c:	f884 1043 	strb.w	r1, [r4, #67]	@ 0x43
  htim->State = HAL_TIM_STATE_READY;
 8005140:	f884 103d 	strb.w	r1, [r4, #61]	@ 0x3d
  return HAL_OK;
 8005144:	2000      	movs	r0, #0
}
 8005146:	bdf8      	pop	{r3, r4, r5, r6, r7, pc}
    tmpcr1 |= Structure->CounterMode;
 8005148:	68a1      	ldr	r1, [r4, #8]
    tmpcr1 &= ~(TIM_CR1_DIR | TIM_CR1_CMS);
 800514a:	f022 0270 	bic.w	r2, r2, #112	@ 0x70
    tmpcr1 |= Structure->CounterMode;
 800514e:	430a      	orrs	r2, r1
    tmpcr1 |= (uint32_t)Structure->ClockDivision;
 8005150:	6921      	ldr	r1, [r4, #16]
    tmpcr1 &= ~TIM_CR1_CKD;
 8005152:	f422 7240 	bic.w	r2, r2, #768	@ 0x300
    tmpcr1 |= (uint32_t)Structure->ClockDivision;
 8005156:	430a      	orrs	r2, r1
  MODIFY_REG(tmpcr1, TIM_CR1_ARPE, Structure->AutoReloadPreload);
 8005158:	69a1      	ldr	r1, [r4, #24]
 800515a:	f022 0280 	bic.w	r2, r2, #128	@ 0x80
 800515e:	430a      	orrs	r2, r1
  TIMx->CR1 = tmpcr1;
 8005160:	601a      	str	r2, [r3, #0]
  TIMx->ARR = (uint32_t)Structure->Period ;
 8005162:	68e2      	ldr	r2, [r4, #12]
 8005164:	62da      	str	r2, [r3, #44]	@ 0x2c
  TIMx->PSC = Structure->Prescaler;
 8005166:	6862      	ldr	r2, [r4, #4]
 8005168:	629a      	str	r2, [r3, #40]	@ 0x28
    TIMx->RCR = Structure->RepetitionCounter;
 800516a:	6962      	ldr	r2, [r4, #20]
 800516c:	631a      	str	r2, [r3, #48]	@ 0x30
 800516e:	e7ac      	b.n	80050ca <HAL_TIM_Encoder_Init+0xc2>
    htim->Lock = HAL_UNLOCKED;
 8005170:	f880 203c 	strb.w	r2, [r0, #60]	@ 0x3c
    HAL_TIM_Encoder_MspInit(htim);
 8005174:	f7fe fb30 	bl	80037d8 <HAL_TIM_Encoder_MspInit>
 8005178:	e753      	b.n	8005022 <HAL_TIM_Encoder_Init+0x1a>
    return HAL_ERROR;
 800517a:	2001      	movs	r0, #1
}
 800517c:	4770      	bx	lr
 800517e:	bf00      	nop
 8005180:	40010000 	.word	0x40010000
 8005184:	40014400 	.word	0x40014400

08005188 <HAL_TIM_PWM_ConfigChannel>:
  __HAL_LOCK(htim);
 8005188:	f890 303c 	ldrb.w	r3, [r0, #60]	@ 0x3c
 800518c:	2b01      	cmp	r3, #1
 800518e:	f000 80c6 	beq.w	800531e <HAL_TIM_PWM_ConfigChannel+0x196>
 8005192:	2301      	movs	r3, #1
{
 8005194:	b570      	push	{r4, r5, r6, lr}
 8005196:	4684      	mov	ip, r0
  __HAL_LOCK(htim);
 8005198:	f880 303c 	strb.w	r3, [r0, #60]	@ 0x3c
  switch (Channel)
 800519c:	2a0c      	cmp	r2, #12
 800519e:	d808      	bhi.n	80051b2 <HAL_TIM_PWM_ConfigChannel+0x2a>
 80051a0:	e8df f002 	tbb	[pc, r2]
 80051a4:	0707073e 	.word	0x0707073e
 80051a8:	07070767 	.word	0x07070767
 80051ac:	07070793 	.word	0x07070793
 80051b0:	0c          	.byte	0x0c
 80051b1:	00          	.byte	0x00
  __HAL_UNLOCK(htim);
 80051b2:	2300      	movs	r3, #0
 80051b4:	f88c 303c 	strb.w	r3, [ip, #60]	@ 0x3c
  switch (Channel)
 80051b8:	2001      	movs	r0, #1
}
 80051ba:	bd70      	pop	{r4, r5, r6, pc}
      TIM_OC4_SetConfig(htim->Instance, sConfig);
 80051bc:	6803      	ldr	r3, [r0, #0]
  /* Reset the Output Compare mode and Capture/Compare selection Bits */
  tmpccmrx &= ~TIM_CCMR2_OC4M;
  tmpccmrx &= ~TIM_CCMR2_CC4S;

  /* Select the Output Compare Mode */
  tmpccmrx |= (OC_Config->OCMode << 8U);
 80051be:	680d      	ldr	r5, [r1, #0]
  tmpccer = TIMx->CCER;
 80051c0:	6a1a      	ldr	r2, [r3, #32]
  TIMx->CCER &= ~TIM_CCER_CC4E;
 80051c2:	6a18      	ldr	r0, [r3, #32]
 80051c4:	f420 5080 	bic.w	r0, r0, #4096	@ 0x1000
 80051c8:	6218      	str	r0, [r3, #32]
  tmpcr2 =  TIMx->CR2;
 80051ca:	685c      	ldr	r4, [r3, #4]
  tmpccmrx = TIMx->CCMR2;
 80051cc:	69d8      	ldr	r0, [r3, #28]
  tmpccmrx &= ~TIM_CCMR2_CC4S;
 80051ce:	f420 40e6 	bic.w	r0, r0, #29440	@ 0x7300
  tmpccmrx |= (OC_Config->OCMode << 8U);
 80051d2:	ea40 2005 	orr.w	r0, r0, r5, lsl #8

  /* Reset the Output Polarity level */
  tmpccer &= ~TIM_CCER_CC4P;
  /* Set the Output Compare Polarity */
  tmpccer |= (OC_Config->OCPolarity << 12U);
 80051d6:	688d      	ldr	r5, [r1, #8]
  tmpccer &= ~TIM_CCER_CC4P;
 80051d8:	f422 5200 	bic.w	r2, r2, #8192	@ 0x2000
  tmpccer |= (OC_Config->OCPolarity << 12U);
 80051dc:	ea42 3205 	orr.w	r2, r2, r5, lsl #12

  if (IS_TIM_BREAK_INSTANCE(TIMx))
 80051e0:	4d6a      	ldr	r5, [pc, #424]	@ (800538c <HAL_TIM_PWM_ConfigChannel+0x204>)
 80051e2:	42ab      	cmp	r3, r5
 80051e4:	f000 80bc 	beq.w	8005360 <HAL_TIM_PWM_ConfigChannel+0x1d8>
 80051e8:	f505 6580 	add.w	r5, r5, #1024	@ 0x400
 80051ec:	42ab      	cmp	r3, r5
 80051ee:	f000 80b7 	beq.w	8005360 <HAL_TIM_PWM_ConfigChannel+0x1d8>
    /* Set the Output Idle state */
    tmpcr2 |= (OC_Config->OCIdleState << 6U);
  }

  /* Write to TIMx CR2 */
  TIMx->CR2 = tmpcr2;
 80051f2:	605c      	str	r4, [r3, #4]

  /* Write to TIMx CCMR2 */
  TIMx->CCMR2 = tmpccmrx;
 80051f4:	61d8      	str	r0, [r3, #28]

  /* Set the Capture Compare Register value */
  TIMx->CCR4 = OC_Config->Pulse;
 80051f6:	6848      	ldr	r0, [r1, #4]
 80051f8:	6418      	str	r0, [r3, #64]	@ 0x40

  /* Write to TIMx CCER */
  TIMx->CCER = tmpccer;
 80051fa:	621a      	str	r2, [r3, #32]
      htim->Instance->CCMR2 |= TIM_CCMR2_OC4PE;
 80051fc:	69da      	ldr	r2, [r3, #28]
      htim->Instance->CCMR2 |= sConfig->OCFastMode << 8U;
 80051fe:	6909      	ldr	r1, [r1, #16]
      htim->Instance->CCMR2 |= TIM_CCMR2_OC4PE;
 8005200:	f442 6200 	orr.w	r2, r2, #2048	@ 0x800
 8005204:	61da      	str	r2, [r3, #28]
      htim->Instance->CCMR2 &= ~TIM_CCMR2_OC4FE;
 8005206:	69da      	ldr	r2, [r3, #28]
 8005208:	f422 6280 	bic.w	r2, r2, #1024	@ 0x400
 800520c:	61da      	str	r2, [r3, #28]
      htim->Instance->CCMR2 |= sConfig->OCFastMode << 8U;
 800520e:	69da      	ldr	r2, [r3, #28]
 8005210:	ea42 2201 	orr.w	r2, r2, r1, lsl #8
 8005214:	61da      	str	r2, [r3, #28]
  __HAL_UNLOCK(htim);
 8005216:	2300      	movs	r3, #0
 8005218:	f88c 303c 	strb.w	r3, [ip, #60]	@ 0x3c
  HAL_StatusTypeDef status = HAL_OK;
 800521c:	2000      	movs	r0, #0
}
 800521e:	bd70      	pop	{r4, r5, r6, pc}
      TIM_OC1_SetConfig(htim->Instance, sConfig);
 8005220:	6803      	ldr	r3, [r0, #0]
  tmpccmrx |= OC_Config->OCMode;
 8005222:	680d      	ldr	r5, [r1, #0]
  tmpccer = TIMx->CCER;
 8005224:	6a1a      	ldr	r2, [r3, #32]
  TIMx->CCER &= ~TIM_CCER_CC1E;
 8005226:	6a18      	ldr	r0, [r3, #32]
 8005228:	f020 0001 	bic.w	r0, r0, #1
 800522c:	6218      	str	r0, [r3, #32]
  tmpcr2 =  TIMx->CR2;
 800522e:	685c      	ldr	r4, [r3, #4]
  tmpccmrx = TIMx->CCMR1;
 8005230:	6998      	ldr	r0, [r3, #24]
  tmpccmrx &= ~TIM_CCMR1_CC1S;
 8005232:	f020 0073 	bic.w	r0, r0, #115	@ 0x73
  tmpccmrx |= OC_Config->OCMode;
 8005236:	4328      	orrs	r0, r5
  tmpccer |= OC_Config->OCPolarity;
 8005238:	688d      	ldr	r5, [r1, #8]
  tmpccer &= ~TIM_CCER_CC1P;
 800523a:	f022 0202 	bic.w	r2, r2, #2
  tmpccer |= OC_Config->OCPolarity;
 800523e:	432a      	orrs	r2, r5
  if (IS_TIM_CCXN_INSTANCE(TIMx, TIM_CHANNEL_1))
 8005240:	4d52      	ldr	r5, [pc, #328]	@ (800538c <HAL_TIM_PWM_ConfigChannel+0x204>)
 8005242:	42ab      	cmp	r3, r5
 8005244:	d06d      	beq.n	8005322 <HAL_TIM_PWM_ConfigChannel+0x19a>
 8005246:	f505 6580 	add.w	r5, r5, #1024	@ 0x400
 800524a:	42ab      	cmp	r3, r5
 800524c:	d069      	beq.n	8005322 <HAL_TIM_PWM_ConfigChannel+0x19a>
  TIMx->CR2 = tmpcr2;
 800524e:	605c      	str	r4, [r3, #4]
  TIMx->CCMR1 = tmpccmrx;
 8005250:	6198      	str	r0, [r3, #24]
  TIMx->CCR1 = OC_Config->Pulse;
 8005252:	6848      	ldr	r0, [r1, #4]
 8005254:	6358      	str	r0, [r3, #52]	@ 0x34
  TIMx->CCER = tmpccer;
 8005256:	621a      	str	r2, [r3, #32]
      htim->Instance->CCMR1 |= TIM_CCMR1_OC1PE;
 8005258:	699a      	ldr	r2, [r3, #24]
      htim->Instance->CCMR1 |= sConfig->OCFastMode;
 800525a:	6909      	ldr	r1, [r1, #16]
      htim->Instance->CCMR1 |= TIM_CCMR1_OC1PE;
 800525c:	f042 0208 	orr.w	r2, r2, #8
 8005260:	619a      	str	r2, [r3, #24]
      htim->Instance->CCMR1 &= ~TIM_CCMR1_OC1FE;
 8005262:	699a      	ldr	r2, [r3, #24]
 8005264:	f022 0204 	bic.w	r2, r2, #4
 8005268:	619a      	str	r2, [r3, #24]
      htim->Instance->CCMR1 |= sConfig->OCFastMode;
 800526a:	699a      	ldr	r2, [r3, #24]
 800526c:	430a      	orrs	r2, r1
 800526e:	619a      	str	r2, [r3, #24]
      break;
 8005270:	e7d1      	b.n	8005216 <HAL_TIM_PWM_ConfigChannel+0x8e>
      TIM_OC2_SetConfig(htim->Instance, sConfig);
 8005272:	6803      	ldr	r3, [r0, #0]
  tmpccmrx |= (OC_Config->OCMode << 8U);
 8005274:	680d      	ldr	r5, [r1, #0]
  tmpccer = TIMx->CCER;
 8005276:	6a1a      	ldr	r2, [r3, #32]
  TIMx->CCER &= ~TIM_CCER_CC2E;
 8005278:	6a18      	ldr	r0, [r3, #32]
 800527a:	f020 0010 	bic.w	r0, r0, #16
 800527e:	6218      	str	r0, [r3, #32]
  tmpcr2 =  TIMx->CR2;
 8005280:	685c      	ldr	r4, [r3, #4]
  tmpccmrx = TIMx->CCMR1;
 8005282:	6998      	ldr	r0, [r3, #24]
  tmpccmrx &= ~TIM_CCMR1_CC2S;
 8005284:	f420 40e6 	bic.w	r0, r0, #29440	@ 0x7300
  tmpccmrx |= (OC_Config->OCMode << 8U);
 8005288:	ea40 2005 	orr.w	r0, r0, r5, lsl #8
  tmpccer |= (OC_Config->OCPolarity << 4U);
 800528c:	688d      	ldr	r5, [r1, #8]
  tmpccer &= ~TIM_CCER_CC2P;
 800528e:	f022 0220 	bic.w	r2, r2, #32
  tmpccer |= (OC_Config->OCPolarity << 4U);
 8005292:	ea42 1205 	orr.w	r2, r2, r5, lsl #4
  if (IS_TIM_CCXN_INSTANCE(TIMx, TIM_CHANNEL_2))
 8005296:	4d3d      	ldr	r5, [pc, #244]	@ (800538c <HAL_TIM_PWM_ConfigChannel+0x204>)
 8005298:	42ab      	cmp	r3, r5
 800529a:	d051      	beq.n	8005340 <HAL_TIM_PWM_ConfigChannel+0x1b8>
 800529c:	f505 6580 	add.w	r5, r5, #1024	@ 0x400
 80052a0:	42ab      	cmp	r3, r5
 80052a2:	d04d      	beq.n	8005340 <HAL_TIM_PWM_ConfigChannel+0x1b8>
  TIMx->CR2 = tmpcr2;
 80052a4:	605c      	str	r4, [r3, #4]
  TIMx->CCMR1 = tmpccmrx;
 80052a6:	6198      	str	r0, [r3, #24]
  TIMx->CCR2 = OC_Config->Pulse;
 80052a8:	6848      	ldr	r0, [r1, #4]
 80052aa:	6398      	str	r0, [r3, #56]	@ 0x38
  TIMx->CCER = tmpccer;
 80052ac:	621a      	str	r2, [r3, #32]
      htim->Instance->CCMR1 |= TIM_CCMR1_OC2PE;
 80052ae:	699a      	ldr	r2, [r3, #24]
      htim->Instance->CCMR1 |= sConfig->OCFastMode << 8U;
 80052b0:	6909      	ldr	r1, [r1, #16]
      htim->Instance->CCMR1 |= TIM_CCMR1_OC2PE;
 80052b2:	f442 6200 	orr.w	r2, r2, #2048	@ 0x800
 80052b6:	619a      	str	r2, [r3, #24]
      htim->Instance->CCMR1 &= ~TIM_CCMR1_OC2FE;
 80052b8:	699a      	ldr	r2, [r3, #24]
 80052ba:	f422 6280 	bic.w	r2, r2, #1024	@ 0x400
 80052be:	619a      	str	r2, [r3, #24]
      htim->Instance->CCMR1 |= sConfig->OCFastMode << 8U;
 80052c0:	699a      	ldr	r2, [r3, #24]
 80052c2:	ea42 2201 	orr.w	r2, r2, r1, lsl #8
 80052c6:	619a      	str	r2, [r3, #24]
      break;
 80052c8:	e7a5      	b.n	8005216 <HAL_TIM_PWM_ConfigChannel+0x8e>
      TIM_OC3_SetConfig(htim->Instance, sConfig);
 80052ca:	6803      	ldr	r3, [r0, #0]
  tmpccmrx |= OC_Config->OCMode;
 80052cc:	680d      	ldr	r5, [r1, #0]
  tmpccer = TIMx->CCER;
 80052ce:	6a1a      	ldr	r2, [r3, #32]
  TIMx->CCER &= ~TIM_CCER_CC3E;
 80052d0:	6a18      	ldr	r0, [r3, #32]
 80052d2:	f420 7080 	bic.w	r0, r0, #256	@ 0x100
 80052d6:	6218      	str	r0, [r3, #32]
  tmpcr2 =  TIMx->CR2;
 80052d8:	685c      	ldr	r4, [r3, #4]
  tmpccmrx = TIMx->CCMR2;
 80052da:	69d8      	ldr	r0, [r3, #28]
  tmpccmrx &= ~TIM_CCMR2_CC3S;
 80052dc:	f020 0073 	bic.w	r0, r0, #115	@ 0x73
  tmpccmrx |= OC_Config->OCMode;
 80052e0:	4328      	orrs	r0, r5
  tmpccer |= (OC_Config->OCPolarity << 8U);
 80052e2:	688d      	ldr	r5, [r1, #8]
  tmpccer &= ~TIM_CCER_CC3P;
 80052e4:	f422 7200 	bic.w	r2, r2, #512	@ 0x200
  tmpccer |= (OC_Config->OCPolarity << 8U);
 80052e8:	ea42 2205 	orr.w	r2, r2, r5, lsl #8
  if (IS_TIM_CCXN_INSTANCE(TIMx, TIM_CHANNEL_3))
 80052ec:	4d27      	ldr	r5, [pc, #156]	@ (800538c <HAL_TIM_PWM_ConfigChannel+0x204>)
 80052ee:	42ab      	cmp	r3, r5
 80052f0:	d03c      	beq.n	800536c <HAL_TIM_PWM_ConfigChannel+0x1e4>
 80052f2:	f505 6580 	add.w	r5, r5, #1024	@ 0x400
 80052f6:	42ab      	cmp	r3, r5
 80052f8:	d038      	beq.n	800536c <HAL_TIM_PWM_ConfigChannel+0x1e4>
  TIMx->CR2 = tmpcr2;
 80052fa:	605c      	str	r4, [r3, #4]
  TIMx->CCMR2 = tmpccmrx;
 80052fc:	61d8      	str	r0, [r3, #28]
  TIMx->CCR3 = OC_Config->Pulse;
 80052fe:	6848      	ldr	r0, [r1, #4]
 8005300:	63d8      	str	r0, [r3, #60]	@ 0x3c
  TIMx->CCER = tmpccer;
 8005302:	621a      	str	r2, [r3, #32]
      htim->Instance->CCMR2 |= TIM_CCMR2_OC3PE;
 8005304:	69da      	ldr	r2, [r3, #28]
      htim->Instance->CCMR2 |= sConfig->OCFastMode;
 8005306:	6909      	ldr	r1, [r1, #16]
      htim->Instance->CCMR2 |= TIM_CCMR2_OC3PE;
 8005308:	f042 0208 	orr.w	r2, r2, #8
 800530c:	61da      	str	r2, [r3, #28]
      htim->Instance->CCMR2 &= ~TIM_CCMR2_OC3FE;
 800530e:	69da      	ldr	r2, [r3, #28]
 8005310:	f022 0204 	bic.w	r2, r2, #4
 8005314:	61da      	str	r2, [r3, #28]
      htim->Instance->CCMR2 |= sConfig->OCFastMode;
 8005316:	69da      	ldr	r2, [r3, #28]
 8005318:	430a      	orrs	r2, r1
 800531a:	61da      	str	r2, [r3, #28]
      break;
 800531c:	e77b      	b.n	8005216 <HAL_TIM_PWM_ConfigChannel+0x8e>
  __HAL_LOCK(htim);
 800531e:	2002      	movs	r0, #2
}
 8005320:	4770      	bx	lr
    tmpccer |= OC_Config->OCNPolarity;
 8005322:	68cd      	ldr	r5, [r1, #12]
    tmpccer &= ~TIM_CCER_CC1NP;
 8005324:	f022 0208 	bic.w	r2, r2, #8
    tmpccer |= OC_Config->OCNPolarity;
 8005328:	432a      	orrs	r2, r5
    tmpcr2 |= OC_Config->OCNIdleState;
 800532a:	e9d1 6505 	ldrd	r6, r5, [r1, #20]
    tmpcr2 &= ~TIM_CR2_OIS1N;
 800532e:	f424 7440 	bic.w	r4, r4, #768	@ 0x300
    tmpcr2 |= OC_Config->OCNIdleState;
 8005332:	ea46 0e05 	orr.w	lr, r6, r5
    tmpccer &= ~TIM_CCER_CC1NE;
 8005336:	f022 0204 	bic.w	r2, r2, #4
    tmpcr2 |= OC_Config->OCNIdleState;
 800533a:	ea4e 0404 	orr.w	r4, lr, r4
 800533e:	e786      	b.n	800524e <HAL_TIM_PWM_ConfigChannel+0xc6>
    tmpccer |= (OC_Config->OCNPolarity << 4U);
 8005340:	68cd      	ldr	r5, [r1, #12]
    tmpccer &= ~TIM_CCER_CC2NP;
 8005342:	f022 0280 	bic.w	r2, r2, #128	@ 0x80
    tmpccer |= (OC_Config->OCNPolarity << 4U);
 8005346:	ea42 1205 	orr.w	r2, r2, r5, lsl #4
    tmpcr2 |= (OC_Config->OCNIdleState << 2U);
 800534a:	e9d1 6505 	ldrd	r6, r5, [r1, #20]
    tmpcr2 &= ~TIM_CR2_OIS2N;
 800534e:	f424 6440 	bic.w	r4, r4, #3072	@ 0xc00
    tmpcr2 |= (OC_Config->OCNIdleState << 2U);
 8005352:	ea46 0e05 	orr.w	lr, r6, r5
    tmpccer &= ~TIM_CCER_CC2NE;
 8005356:	f022 0240 	bic.w	r2, r2, #64	@ 0x40
    tmpcr2 |= (OC_Config->OCNIdleState << 2U);
 800535a:	ea44 048e 	orr.w	r4, r4, lr, lsl #2
 800535e:	e7a1      	b.n	80052a4 <HAL_TIM_PWM_ConfigChannel+0x11c>
    tmpcr2 |= (OC_Config->OCIdleState << 6U);
 8005360:	694d      	ldr	r5, [r1, #20]
    tmpcr2 &= ~TIM_CR2_OIS4;
 8005362:	f424 4480 	bic.w	r4, r4, #16384	@ 0x4000
    tmpcr2 |= (OC_Config->OCIdleState << 6U);
 8005366:	ea44 1485 	orr.w	r4, r4, r5, lsl #6
 800536a:	e742      	b.n	80051f2 <HAL_TIM_PWM_ConfigChannel+0x6a>
    tmpccer |= (OC_Config->OCNPolarity << 8U);
 800536c:	68cd      	ldr	r5, [r1, #12]
    tmpccer &= ~TIM_CCER_CC3NP;
 800536e:	f422 6200 	bic.w	r2, r2, #2048	@ 0x800
    tmpccer |= (OC_Config->OCNPolarity << 8U);
 8005372:	ea42 2205 	orr.w	r2, r2, r5, lsl #8
    tmpcr2 |= (OC_Config->OCNIdleState << 4U);
 8005376:	e9d1 6505 	ldrd	r6, r5, [r1, #20]
    tmpcr2 &= ~TIM_CR2_OIS3N;
 800537a:	f424 5440 	bic.w	r4, r4, #12288	@ 0x3000
    tmpcr2 |= (OC_Config->OCNIdleState << 4U);
 800537e:	ea46 0e05 	orr.w	lr, r6, r5
    tmpccer &= ~TIM_CCER_CC3NE;
 8005382:	f422 6280 	bic.w	r2, r2, #1024	@ 0x400
    tmpcr2 |= (OC_Config->OCNIdleState << 4U);
 8005386:	ea44 140e 	orr.w	r4, r4, lr, lsl #4
 800538a:	e7b6      	b.n	80052fa <HAL_TIM_PWM_ConfigChannel+0x172>
 800538c:	40010000 	.word	0x40010000

08005390 <HAL_TIM_SlaveConfigSynchro>:
  __HAL_LOCK(htim);
 8005390:	f890 203c 	ldrb.w	r2, [r0, #60]	@ 0x3c
 8005394:	2a01      	cmp	r2, #1
 8005396:	d050      	beq.n	800543a <HAL_TIM_SlaveConfigSynchro+0xaa>
 8005398:	4603      	mov	r3, r0
{
 800539a:	b430      	push	{r4, r5}
  htim->State = HAL_TIM_STATE_BUSY;
 800539c:	2202      	movs	r2, #2
  uint32_t tmpsmcr;
  uint32_t tmpccmr1;
  uint32_t tmpccer;

  /* Get the TIMx SMCR register value */
  tmpsmcr = htim->Instance->SMCR;
 800539e:	6804      	ldr	r4, [r0, #0]
  htim->State = HAL_TIM_STATE_BUSY;
 80053a0:	f883 203d 	strb.w	r2, [r3, #61]	@ 0x3d
  __HAL_LOCK(htim);
 80053a4:	2001      	movs	r0, #1
 80053a6:	f883 003c 	strb.w	r0, [r3, #60]	@ 0x3c
  tmpsmcr = htim->Instance->SMCR;
 80053aa:	68a2      	ldr	r2, [r4, #8]

  /* Reset the Trigger Selection Bits */
  tmpsmcr &= ~TIM_SMCR_TS;
  /* Set the Input Trigger source */
  tmpsmcr |= sSlaveConfig->InputTrigger;
 80053ac:	6848      	ldr	r0, [r1, #4]

  /* Reset the slave mode Bits */
  tmpsmcr &= ~TIM_SMCR_SMS;
  /* Set the slave mode */
  tmpsmcr |= sSlaveConfig->SlaveMode;
 80053ae:	680d      	ldr	r5, [r1, #0]
  tmpsmcr &= ~TIM_SMCR_TS;
 80053b0:	f022 0270 	bic.w	r2, r2, #112	@ 0x70
  tmpsmcr |= sSlaveConfig->InputTrigger;
 80053b4:	4302      	orrs	r2, r0
  tmpsmcr &= ~TIM_SMCR_SMS;
 80053b6:	f022 0207 	bic.w	r2, r2, #7
  tmpsmcr |= sSlaveConfig->SlaveMode;
 80053ba:	432a      	orrs	r2, r5

  /* Write to TIMx SMCR */
  htim->Instance->SMCR = tmpsmcr;

  /* Configure the trigger prescaler, filter, and polarity */
  switch (sSlaveConfig->InputTrigger)
 80053bc:	2850      	cmp	r0, #80	@ 0x50
  htim->Instance->SMCR = tmpsmcr;
 80053be:	60a2      	str	r2, [r4, #8]
  switch (sSlaveConfig->InputTrigger)
 80053c0:	d060      	beq.n	8005484 <HAL_TIM_SlaveConfigSynchro+0xf4>
 80053c2:	d90f      	bls.n	80053e4 <HAL_TIM_SlaveConfigSynchro+0x54>
 80053c4:	2860      	cmp	r0, #96	@ 0x60
 80053c6:	d03a      	beq.n	800543e <HAL_TIM_SlaveConfigSynchro+0xae>
 80053c8:	2870      	cmp	r0, #112	@ 0x70
 80053ca:	d10e      	bne.n	80053ea <HAL_TIM_SlaveConfigSynchro+0x5a>

  /* Reset the ETR Bits */
  tmpsmcr &= ~(TIM_SMCR_ETF | TIM_SMCR_ETPS | TIM_SMCR_ECE | TIM_SMCR_ETP);

  /* Set the Prescaler, the Filter value and the Polarity */
  tmpsmcr |= (uint32_t)(TIM_ExtTRGPrescaler | (TIM_ExtTRGPolarity | (ExtTRGFilter << 8U)));
 80053cc:	e9d1 5202 	ldrd	r5, r2, [r1, #8]
  tmpsmcr = TIMx->SMCR;
 80053d0:	68a0      	ldr	r0, [r4, #8]
  tmpsmcr |= (uint32_t)(TIM_ExtTRGPrescaler | (TIM_ExtTRGPolarity | (ExtTRGFilter << 8U)));
 80053d2:	432a      	orrs	r2, r5
 80053d4:	690d      	ldr	r5, [r1, #16]
  tmpsmcr &= ~(TIM_SMCR_ETF | TIM_SMCR_ETPS | TIM_SMCR_ECE | TIM_SMCR_ETP);
 80053d6:	f420 417f 	bic.w	r1, r0, #65280	@ 0xff00
  tmpsmcr |= (uint32_t)(TIM_ExtTRGPrescaler | (TIM_ExtTRGPolarity | (ExtTRGFilter << 8U)));
 80053da:	ea42 2205 	orr.w	r2, r2, r5, lsl #8
 80053de:	430a      	orrs	r2, r1

  /* Write to TIMx SMCR */
  TIMx->SMCR = tmpsmcr;
 80053e0:	60a2      	str	r2, [r4, #8]
 80053e2:	e00f      	b.n	8005404 <HAL_TIM_SlaveConfigSynchro+0x74>
  switch (sSlaveConfig->InputTrigger)
 80053e4:	2840      	cmp	r0, #64	@ 0x40
 80053e6:	d03d      	beq.n	8005464 <HAL_TIM_SlaveConfigSynchro+0xd4>
 80053e8:	d907      	bls.n	80053fa <HAL_TIM_SlaveConfigSynchro+0x6a>
    htim->State = HAL_TIM_STATE_READY;
 80053ea:	2001      	movs	r0, #1
    __HAL_UNLOCK(htim);
 80053ec:	2200      	movs	r2, #0
    htim->State = HAL_TIM_STATE_READY;
 80053ee:	f883 003d 	strb.w	r0, [r3, #61]	@ 0x3d
    __HAL_UNLOCK(htim);
 80053f2:	f883 203c 	strb.w	r2, [r3, #60]	@ 0x3c
}
 80053f6:	bc30      	pop	{r4, r5}
 80053f8:	4770      	bx	lr
  switch (sSlaveConfig->InputTrigger)
 80053fa:	2820      	cmp	r0, #32
 80053fc:	d002      	beq.n	8005404 <HAL_TIM_SlaveConfigSynchro+0x74>
 80053fe:	d912      	bls.n	8005426 <HAL_TIM_SlaveConfigSynchro+0x96>
 8005400:	2830      	cmp	r0, #48	@ 0x30
 8005402:	d1f2      	bne.n	80053ea <HAL_TIM_SlaveConfigSynchro+0x5a>
  __HAL_TIM_DISABLE_IT(htim, TIM_IT_TRIGGER);
 8005404:	68e2      	ldr	r2, [r4, #12]
 8005406:	f022 0240 	bic.w	r2, r2, #64	@ 0x40
 800540a:	60e2      	str	r2, [r4, #12]
  __HAL_TIM_DISABLE_DMA(htim, TIM_DMA_TRIGGER);
 800540c:	68e2      	ldr	r2, [r4, #12]
  __HAL_UNLOCK(htim);
 800540e:	2100      	movs	r1, #0
  htim->State = HAL_TIM_STATE_READY;
 8005410:	2501      	movs	r5, #1
  __HAL_TIM_DISABLE_DMA(htim, TIM_DMA_TRIGGER);
 8005412:	f422 4280 	bic.w	r2, r2, #16384	@ 0x4000
 8005416:	60e2      	str	r2, [r4, #12]
  htim->State = HAL_TIM_STATE_READY;
 8005418:	f883 503d 	strb.w	r5, [r3, #61]	@ 0x3d
  __HAL_UNLOCK(htim);
 800541c:	f883 103c 	strb.w	r1, [r3, #60]	@ 0x3c
  return HAL_OK;
 8005420:	4608      	mov	r0, r1
}
 8005422:	bc30      	pop	{r4, r5}
 8005424:	4770      	bx	lr
  switch (sSlaveConfig->InputTrigger)
 8005426:	f030 0210 	bics.w	r2, r0, #16
 800542a:	d0eb      	beq.n	8005404 <HAL_TIM_SlaveConfigSynchro+0x74>
    htim->State = HAL_TIM_STATE_READY;
 800542c:	2001      	movs	r0, #1
    __HAL_UNLOCK(htim);
 800542e:	2200      	movs	r2, #0
    htim->State = HAL_TIM_STATE_READY;
 8005430:	f883 003d 	strb.w	r0, [r3, #61]	@ 0x3d
    __HAL_UNLOCK(htim);
 8005434:	f883 203c 	strb.w	r2, [r3, #60]	@ 0x3c
    return HAL_ERROR;
 8005438:	e7dd      	b.n	80053f6 <HAL_TIM_SlaveConfigSynchro+0x66>
  __HAL_LOCK(htim);
 800543a:	2002      	movs	r0, #2
}
 800543c:	4770      	bx	lr
  tmpccer = TIMx->CCER;
 800543e:	6a22      	ldr	r2, [r4, #32]
                               sSlaveConfig->TriggerPolarity,
 8005440:	688d      	ldr	r5, [r1, #8]
                               sSlaveConfig->TriggerFilter);
 8005442:	6908      	ldr	r0, [r1, #16]
  TIMx->CCER &= ~TIM_CCER_CC2E;
 8005444:	6a21      	ldr	r1, [r4, #32]
 8005446:	f021 0110 	bic.w	r1, r1, #16
 800544a:	6221      	str	r1, [r4, #32]
  tmpccmr1 = TIMx->CCMR1;
 800544c:	69a1      	ldr	r1, [r4, #24]
  tmpccer &= ~(TIM_CCER_CC2P | TIM_CCER_CC2NP);
 800544e:	f022 02a0 	bic.w	r2, r2, #160	@ 0xa0
  tmpccmr1 &= ~TIM_CCMR1_IC2F;
 8005452:	f421 4170 	bic.w	r1, r1, #61440	@ 0xf000
  tmpccer |= (TIM_ICPolarity << 4U);
 8005456:	ea42 1205 	orr.w	r2, r2, r5, lsl #4
  tmpccmr1 |= (TIM_ICFilter << 12U);
 800545a:	ea41 3100 	orr.w	r1, r1, r0, lsl #12
  TIMx->CCMR1 = tmpccmr1 ;
 800545e:	61a1      	str	r1, [r4, #24]
  TIMx->CCER = tmpccer;
 8005460:	6222      	str	r2, [r4, #32]
 8005462:	e7cf      	b.n	8005404 <HAL_TIM_SlaveConfigSynchro+0x74>
      if (sSlaveConfig->SlaveMode == TIM_SLAVEMODE_GATED)
 8005464:	2d05      	cmp	r5, #5
 8005466:	d0c0      	beq.n	80053ea <HAL_TIM_SlaveConfigSynchro+0x5a>
      tmpccer = htim->Instance->CCER;
 8005468:	6a20      	ldr	r0, [r4, #32]
      htim->Instance->CCER &= ~TIM_CCER_CC1E;
 800546a:	6a22      	ldr	r2, [r4, #32]
      tmpccmr1 |= ((sSlaveConfig->TriggerFilter) << 4U);
 800546c:	6909      	ldr	r1, [r1, #16]
      htim->Instance->CCER &= ~TIM_CCER_CC1E;
 800546e:	f022 0201 	bic.w	r2, r2, #1
 8005472:	6222      	str	r2, [r4, #32]
      tmpccmr1 = htim->Instance->CCMR1;
 8005474:	69a2      	ldr	r2, [r4, #24]
      tmpccmr1 &= ~TIM_CCMR1_IC1F;
 8005476:	f022 02f0 	bic.w	r2, r2, #240	@ 0xf0
      tmpccmr1 |= ((sSlaveConfig->TriggerFilter) << 4U);
 800547a:	ea42 1201 	orr.w	r2, r2, r1, lsl #4
      htim->Instance->CCMR1 = tmpccmr1;
 800547e:	61a2      	str	r2, [r4, #24]
      htim->Instance->CCER = tmpccer;
 8005480:	6220      	str	r0, [r4, #32]
      break;
 8005482:	e7bf      	b.n	8005404 <HAL_TIM_SlaveConfigSynchro+0x74>
                               sSlaveConfig->TriggerPolarity,
 8005484:	688a      	ldr	r2, [r1, #8]
                               sSlaveConfig->TriggerFilter);
 8005486:	6908      	ldr	r0, [r1, #16]
  tmpccer = TIMx->CCER;
 8005488:	6a21      	ldr	r1, [r4, #32]
  tmpccer &= ~(TIM_CCER_CC1P | TIM_CCER_CC1NP);
 800548a:	f021 010a 	bic.w	r1, r1, #10
  tmpccer |= TIM_ICPolarity;
 800548e:	4311      	orrs	r1, r2
  TIMx->CCER &= ~TIM_CCER_CC1E;
 8005490:	6a22      	ldr	r2, [r4, #32]
 8005492:	f022 0201 	bic.w	r2, r2, #1
 8005496:	6222      	str	r2, [r4, #32]
  tmpccmr1 = TIMx->CCMR1;
 8005498:	69a2      	ldr	r2, [r4, #24]
  tmpccmr1 &= ~TIM_CCMR1_IC1F;
 800549a:	f022 02f0 	bic.w	r2, r2, #240	@ 0xf0
  tmpccmr1 |= (TIM_ICFilter << 4U);
 800549e:	ea42 1200 	orr.w	r2, r2, r0, lsl #4
  TIMx->CCMR1 = tmpccmr1;
 80054a2:	61a2      	str	r2, [r4, #24]
  TIMx->CCER = tmpccer;
 80054a4:	6221      	str	r1, [r4, #32]
 80054a6:	e7ad      	b.n	8005404 <HAL_TIM_SlaveConfigSynchro+0x74>

080054a8 <HAL_TIMEx_MasterConfigSynchronization>:
  assert_param(IS_TIM_MASTER_INSTANCE(htim->Instance));
  assert_param(IS_TIM_TRGO_SOURCE(sMasterConfig->MasterOutputTrigger));
  assert_param(IS_TIM_MSM_STATE(sMasterConfig->MasterSlaveMode));

  /* Check input state */
  __HAL_LOCK(htim);
 80054a8:	f890 203c 	ldrb.w	r2, [r0, #60]	@ 0x3c
 80054ac:	2a01      	cmp	r2, #1
 80054ae:	d037      	beq.n	8005520 <HAL_TIMEx_MasterConfigSynchronization+0x78>
 80054b0:	4603      	mov	r3, r0

  /* Change the handler state */
  htim->State = HAL_TIM_STATE_BUSY;

  /* Get the TIMx CR2 register value */
  tmpcr2 = htim->Instance->CR2;
 80054b2:	6802      	ldr	r2, [r0, #0]
  htim->State = HAL_TIM_STATE_BUSY;
 80054b4:	2002      	movs	r0, #2
{
 80054b6:	b430      	push	{r4, r5}
  htim->State = HAL_TIM_STATE_BUSY;
 80054b8:	f883 003d 	strb.w	r0, [r3, #61]	@ 0x3d
  tmpcr2 = htim->Instance->CR2;
 80054bc:	6850      	ldr	r0, [r2, #4]
  tmpsmcr = htim->Instance->SMCR;

  /* Reset the MMS Bits */
  tmpcr2 &= ~TIM_CR2_MMS;
  /* Select the TRGO source */
  tmpcr2 |=  sMasterConfig->MasterOutputTrigger;
 80054be:	680d      	ldr	r5, [r1, #0]
  tmpsmcr = htim->Instance->SMCR;
 80054c0:	6894      	ldr	r4, [r2, #8]
  tmpcr2 &= ~TIM_CR2_MMS;
 80054c2:	f020 0070 	bic.w	r0, r0, #112	@ 0x70
  tmpcr2 |=  sMasterConfig->MasterOutputTrigger;
 80054c6:	4328      	orrs	r0, r5

  /* Update TIMx CR2 */
  htim->Instance->CR2 = tmpcr2;
 80054c8:	6050      	str	r0, [r2, #4]

  if (IS_TIM_SLAVE_INSTANCE(htim->Instance))
 80054ca:	4816      	ldr	r0, [pc, #88]	@ (8005524 <HAL_TIMEx_MasterConfigSynchronization+0x7c>)
 80054cc:	4282      	cmp	r2, r0
 80054ce:	d01a      	beq.n	8005506 <HAL_TIMEx_MasterConfigSynchronization+0x5e>
 80054d0:	f1b2 4f80 	cmp.w	r2, #1073741824	@ 0x40000000
 80054d4:	d017      	beq.n	8005506 <HAL_TIMEx_MasterConfigSynchronization+0x5e>
 80054d6:	f5a0 407c 	sub.w	r0, r0, #64512	@ 0xfc00
 80054da:	4282      	cmp	r2, r0
 80054dc:	d013      	beq.n	8005506 <HAL_TIMEx_MasterConfigSynchronization+0x5e>
 80054de:	f500 6080 	add.w	r0, r0, #1024	@ 0x400
 80054e2:	4282      	cmp	r2, r0
 80054e4:	d00f      	beq.n	8005506 <HAL_TIMEx_MasterConfigSynchronization+0x5e>
 80054e6:	f500 6080 	add.w	r0, r0, #1024	@ 0x400
 80054ea:	4282      	cmp	r2, r0
 80054ec:	d00b      	beq.n	8005506 <HAL_TIMEx_MasterConfigSynchronization+0x5e>
 80054ee:	f500 4078 	add.w	r0, r0, #63488	@ 0xf800
 80054f2:	4282      	cmp	r2, r0
 80054f4:	d007      	beq.n	8005506 <HAL_TIMEx_MasterConfigSynchronization+0x5e>
 80054f6:	f500 5070 	add.w	r0, r0, #15360	@ 0x3c00
 80054fa:	4282      	cmp	r2, r0
 80054fc:	d003      	beq.n	8005506 <HAL_TIMEx_MasterConfigSynchronization+0x5e>
 80054fe:	f5a0 3094 	sub.w	r0, r0, #75776	@ 0x12800
 8005502:	4282      	cmp	r2, r0
 8005504:	d104      	bne.n	8005510 <HAL_TIMEx_MasterConfigSynchronization+0x68>
  {
    /* Reset the MSM Bit */
    tmpsmcr &= ~TIM_SMCR_MSM;
    /* Set master mode */
    tmpsmcr |= sMasterConfig->MasterSlaveMode;
 8005506:	6849      	ldr	r1, [r1, #4]
    tmpsmcr &= ~TIM_SMCR_MSM;
 8005508:	f024 0480 	bic.w	r4, r4, #128	@ 0x80
    tmpsmcr |= sMasterConfig->MasterSlaveMode;
 800550c:	430c      	orrs	r4, r1

    /* Update TIMx SMCR */
    htim->Instance->SMCR = tmpsmcr;
 800550e:	6094      	str	r4, [r2, #8]
  }

  /* Change the htim state */
  htim->State = HAL_TIM_STATE_READY;

  __HAL_UNLOCK(htim);
 8005510:	2000      	movs	r0, #0
  htim->State = HAL_TIM_STATE_READY;
 8005512:	2201      	movs	r2, #1
 8005514:	f883 203d 	strb.w	r2, [r3, #61]	@ 0x3d
  __HAL_UNLOCK(htim);
 8005518:	f883 003c 	strb.w	r0, [r3, #60]	@ 0x3c

  return HAL_OK;
}
 800551c:	bc30      	pop	{r4, r5}
 800551e:	4770      	bx	lr
  __HAL_LOCK(htim);
 8005520:	2002      	movs	r0, #2
}
 8005522:	4770      	bx	lr
 8005524:	40010000 	.word	0x40010000

08005528 <HAL_TIMEx_ConfigBreakDeadTime>:
  assert_param(IS_TIM_BREAK_STATE(sBreakDeadTimeConfig->BreakState));
  assert_param(IS_TIM_BREAK_POLARITY(sBreakDeadTimeConfig->BreakPolarity));
  assert_param(IS_TIM_AUTOMATIC_OUTPUT_STATE(sBreakDeadTimeConfig->AutomaticOutput));

  /* Check input state */
  __HAL_LOCK(htim);
 8005528:	f890 303c 	ldrb.w	r3, [r0, #60]	@ 0x3c
 800552c:	2b01      	cmp	r3, #1
 800552e:	d023      	beq.n	8005578 <HAL_TIMEx_ConfigBreakDeadTime+0x50>
{
 8005530:	b410      	push	{r4}
  /* Set the Lock level, the Break enable Bit and the Polarity, the OSSR State,
     the OSSI State, the dead time value and the Automatic Output Enable Bit */

  /* Set the BDTR bits */
  MODIFY_REG(tmpbdtr, TIM_BDTR_DTG, sBreakDeadTimeConfig->DeadTime);
  MODIFY_REG(tmpbdtr, TIM_BDTR_LOCK, sBreakDeadTimeConfig->LockLevel);
 8005532:	e9d1 4302 	ldrd	r4, r3, [r1, #8]
 8005536:	f423 7340 	bic.w	r3, r3, #768	@ 0x300
 800553a:	4602      	mov	r2, r0
 800553c:	4323      	orrs	r3, r4
  MODIFY_REG(tmpbdtr, TIM_BDTR_OSSI, sBreakDeadTimeConfig->OffStateIDLEMode);
 800553e:	6848      	ldr	r0, [r1, #4]
  MODIFY_REG(tmpbdtr, TIM_BDTR_OSSR, sBreakDeadTimeConfig->OffStateRunMode);
 8005540:	680c      	ldr	r4, [r1, #0]
  MODIFY_REG(tmpbdtr, TIM_BDTR_OSSI, sBreakDeadTimeConfig->OffStateIDLEMode);
 8005542:	f423 6380 	bic.w	r3, r3, #1024	@ 0x400
 8005546:	4303      	orrs	r3, r0
  MODIFY_REG(tmpbdtr, TIM_BDTR_OSSR, sBreakDeadTimeConfig->OffStateRunMode);
 8005548:	f423 6300 	bic.w	r3, r3, #2048	@ 0x800
  MODIFY_REG(tmpbdtr, TIM_BDTR_BKE, sBreakDeadTimeConfig->BreakState);
 800554c:	6908      	ldr	r0, [r1, #16]
  MODIFY_REG(tmpbdtr, TIM_BDTR_OSSR, sBreakDeadTimeConfig->OffStateRunMode);
 800554e:	4323      	orrs	r3, r4
  MODIFY_REG(tmpbdtr, TIM_BDTR_BKE, sBreakDeadTimeConfig->BreakState);
 8005550:	f423 5380 	bic.w	r3, r3, #4096	@ 0x1000
 8005554:	4303      	orrs	r3, r0
  MODIFY_REG(tmpbdtr, TIM_BDTR_BKP, sBreakDeadTimeConfig->BreakPolarity);
 8005556:	6948      	ldr	r0, [r1, #20]
  MODIFY_REG(tmpbdtr, TIM_BDTR_AOE, sBreakDeadTimeConfig->AutomaticOutput);
 8005558:	69cc      	ldr	r4, [r1, #28]
  MODIFY_REG(tmpbdtr, TIM_BDTR_BKP, sBreakDeadTimeConfig->BreakPolarity);
 800555a:	f423 5300 	bic.w	r3, r3, #8192	@ 0x2000
 800555e:	4303      	orrs	r3, r0
  MODIFY_REG(tmpbdtr, TIM_BDTR_AOE, sBreakDeadTimeConfig->AutomaticOutput);
 8005560:	f423 4380 	bic.w	r3, r3, #16384	@ 0x4000


  /* Set TIMx_BDTR */
  htim->Instance->BDTR = tmpbdtr;
 8005564:	6810      	ldr	r0, [r2, #0]

  __HAL_UNLOCK(htim);
 8005566:	2100      	movs	r1, #0
  MODIFY_REG(tmpbdtr, TIM_BDTR_AOE, sBreakDeadTimeConfig->AutomaticOutput);
 8005568:	4323      	orrs	r3, r4
  htim->Instance->BDTR = tmpbdtr;
 800556a:	6443      	str	r3, [r0, #68]	@ 0x44
  __HAL_UNLOCK(htim);
 800556c:	f882 103c 	strb.w	r1, [r2, #60]	@ 0x3c

  return HAL_OK;
 8005570:	4608      	mov	r0, r1
}
 8005572:	f85d 4b04 	ldr.w	r4, [sp], #4
 8005576:	4770      	bx	lr
  __HAL_LOCK(htim);
 8005578:	2002      	movs	r0, #2
}
 800557a:	4770      	bx	lr

0800557c <HAL_UART_Init>:
  * @retval HAL status
  */
HAL_StatusTypeDef HAL_UART_Init(UART_HandleTypeDef *huart)
{
  /* Check the UART handle allocation */
  if (huart == NULL)
 800557c:	2800      	cmp	r0, #0
 800557e:	f000 8087 	beq.w	8005690 <HAL_UART_Init+0x114>
{
 8005582:	b538      	push	{r3, r4, r5, lr}
    assert_param(IS_UART_INSTANCE(huart->Instance));
  }
  assert_param(IS_UART_WORD_LENGTH(huart->Init.WordLength));
  assert_param(IS_UART_OVERSAMPLING(huart->Init.OverSampling));

  if (huart->gState == HAL_UART_STATE_RESET)
 8005584:	f890 3041 	ldrb.w	r3, [r0, #65]	@ 0x41
 8005588:	4604      	mov	r4, r0
 800558a:	f003 02ff 	and.w	r2, r3, #255	@ 0xff
 800558e:	2b00      	cmp	r3, #0
 8005590:	d079      	beq.n	8005686 <HAL_UART_Init+0x10a>
  }

  huart->gState = HAL_UART_STATE_BUSY;

  /* Disable the peripheral */
  __HAL_UART_DISABLE(huart);
 8005592:	6823      	ldr	r3, [r4, #0]
  assert_param(IS_UART_MODE(huart->Init.Mode));

  /*-------------------------- USART CR2 Configuration -----------------------*/
  /* Configure the UART Stop Bits: Set STOP[13:12] bits
     according to huart->Init.StopBits value */
  MODIFY_REG(huart->Instance->CR2, USART_CR2_STOP, huart->Init.StopBits);
 8005594:	68e0      	ldr	r0, [r4, #12]
  huart->gState = HAL_UART_STATE_BUSY;
 8005596:	2224      	movs	r2, #36	@ 0x24
 8005598:	f884 2041 	strb.w	r2, [r4, #65]	@ 0x41
  __HAL_UART_DISABLE(huart);
 800559c:	68da      	ldr	r2, [r3, #12]
 800559e:	f422 5200 	bic.w	r2, r2, #8192	@ 0x2000
 80055a2:	60da      	str	r2, [r3, #12]
  MODIFY_REG(huart->Instance->CR2, USART_CR2_STOP, huart->Init.StopBits);
 80055a4:	6919      	ldr	r1, [r3, #16]
     Set the M bits according to huart->Init.WordLength value
     Set PCE and PS bits according to huart->Init.Parity value
     Set TE and RE bits according to huart->Init.Mode value
     Set OVER8 bit according to huart->Init.OverSampling value */

  tmpreg = (uint32_t)huart->Init.WordLength | huart->Init.Parity | huart->Init.Mode | huart->Init.OverSampling;
 80055a6:	68a2      	ldr	r2, [r4, #8]
  MODIFY_REG(huart->Instance->CR2, USART_CR2_STOP, huart->Init.StopBits);
 80055a8:	f421 5140 	bic.w	r1, r1, #12288	@ 0x3000
 80055ac:	4301      	orrs	r1, r0
  tmpreg = (uint32_t)huart->Init.WordLength | huart->Init.Parity | huart->Init.Mode | huart->Init.OverSampling;
 80055ae:	6920      	ldr	r0, [r4, #16]
  MODIFY_REG(huart->Instance->CR2, USART_CR2_STOP, huart->Init.StopBits);
 80055b0:	6119      	str	r1, [r3, #16]
  tmpreg = (uint32_t)huart->Init.WordLength | huart->Init.Parity | huart->Init.Mode | huart->Init.OverSampling;
 80055b2:	4302      	orrs	r2, r0
 80055b4:	6960      	ldr	r0, [r4, #20]
  MODIFY_REG(huart->Instance->CR1,
 80055b6:	68d9      	ldr	r1, [r3, #12]
  tmpreg = (uint32_t)huart->Init.WordLength | huart->Init.Parity | huart->Init.Mode | huart->Init.OverSampling;
 80055b8:	4302      	orrs	r2, r0
 80055ba:	69e0      	ldr	r0, [r4, #28]
  MODIFY_REG(huart->Instance->CR1,
 80055bc:	f421 4116 	bic.w	r1, r1, #38400	@ 0x9600
 80055c0:	f021 010c 	bic.w	r1, r1, #12
  tmpreg = (uint32_t)huart->Init.WordLength | huart->Init.Parity | huart->Init.Mode | huart->Init.OverSampling;
 80055c4:	4302      	orrs	r2, r0
  MODIFY_REG(huart->Instance->CR1,
 80055c6:	430a      	orrs	r2, r1
 80055c8:	60da      	str	r2, [r3, #12]
             (uint32_t)(USART_CR1_M | USART_CR1_PCE | USART_CR1_PS | USART_CR1_TE | USART_CR1_RE | USART_CR1_OVER8),
             tmpreg);

  /*-------------------------- USART CR3 Configuration -----------------------*/
  /* Configure the UART HFC: Set CTSE and RTSE bits according to huart->Init.HwFlowCtl value */
  MODIFY_REG(huart->Instance->CR3, (USART_CR3_RTSE | USART_CR3_CTSE), huart->Init.HwFlowCtl);
 80055ca:	695a      	ldr	r2, [r3, #20]
 80055cc:	69a0      	ldr	r0, [r4, #24]
    if ((huart->Instance == USART1) || (huart->Instance == USART6) || (huart->Instance == UART9) || (huart->Instance == UART10))
    {
      pclk = HAL_RCC_GetPCLK2Freq();
    }
#elif defined(USART6)
    if ((huart->Instance == USART1) || (huart->Instance == USART6))
 80055ce:	4931      	ldr	r1, [pc, #196]	@ (8005694 <HAL_UART_Init+0x118>)
  MODIFY_REG(huart->Instance->CR3, (USART_CR3_RTSE | USART_CR3_CTSE), huart->Init.HwFlowCtl);
 80055d0:	f422 7240 	bic.w	r2, r2, #768	@ 0x300
 80055d4:	4302      	orrs	r2, r0
    if ((huart->Instance == USART1) || (huart->Instance == USART6))
 80055d6:	428b      	cmp	r3, r1
  MODIFY_REG(huart->Instance->CR3, (USART_CR3_RTSE | USART_CR3_CTSE), huart->Init.HwFlowCtl);
 80055d8:	615a      	str	r2, [r3, #20]
    if ((huart->Instance == USART1) || (huart->Instance == USART6))
 80055da:	d036      	beq.n	800564a <HAL_UART_Init+0xce>
 80055dc:	4a2e      	ldr	r2, [pc, #184]	@ (8005698 <HAL_UART_Init+0x11c>)
 80055de:	4293      	cmp	r3, r2
 80055e0:	d033      	beq.n	800564a <HAL_UART_Init+0xce>
      pclk = HAL_RCC_GetPCLK2Freq();
    }
#endif /* USART6 */
    else
    {
      pclk = HAL_RCC_GetPCLK1Freq();
 80055e2:	f7ff f965 	bl	80048b0 <HAL_RCC_GetPCLK1Freq>
    }
  /*-------------------------- USART BRR Configuration ---------------------*/
  if (huart->Init.OverSampling == UART_OVERSAMPLING_8)
 80055e6:	69e2      	ldr	r2, [r4, #28]
  {
    huart->Instance->BRR = UART_BRR_SAMPLING8(pclk, huart->Init.BaudRate);
 80055e8:	2119      	movs	r1, #25
  if (huart->Init.OverSampling == UART_OVERSAMPLING_8)
 80055ea:	f5b2 4f00 	cmp.w	r2, #32768	@ 0x8000
    huart->Instance->BRR = UART_BRR_SAMPLING8(pclk, huart->Init.BaudRate);
 80055ee:	e9d4 5300 	ldrd	r5, r3, [r4]
 80055f2:	fba0 0101 	umull	r0, r1, r0, r1
  if (huart->Init.OverSampling == UART_OVERSAMPLING_8)
 80055f6:	d02b      	beq.n	8005650 <HAL_UART_Init+0xd4>
  }
  else
  {
    huart->Instance->BRR = UART_BRR_SAMPLING16(pclk, huart->Init.BaudRate);
 80055f8:	009a      	lsls	r2, r3, #2
 80055fa:	0f9b      	lsrs	r3, r3, #30
 80055fc:	f7fa fe04 	bl	8000208 <__aeabi_uldivmod>
 8005600:	4a26      	ldr	r2, [pc, #152]	@ (800569c <HAL_UART_Init+0x120>)
 8005602:	fba2 1300 	umull	r1, r3, r2, r0
 8005606:	095b      	lsrs	r3, r3, #5
 8005608:	2164      	movs	r1, #100	@ 0x64
 800560a:	fb01 0013 	mls	r0, r1, r3, r0
 800560e:	0100      	lsls	r0, r0, #4
 8005610:	3032      	adds	r0, #50	@ 0x32
 8005612:	fba2 2000 	umull	r2, r0, r2, r0
 8005616:	011b      	lsls	r3, r3, #4
 8005618:	eb03 1350 	add.w	r3, r3, r0, lsr #5
 800561c:	60ab      	str	r3, [r5, #8]
  CLEAR_BIT(huart->Instance->CR2, (USART_CR2_LINEN | USART_CR2_CLKEN));
 800561e:	692a      	ldr	r2, [r5, #16]
 8005620:	f422 4290 	bic.w	r2, r2, #18432	@ 0x4800
 8005624:	612a      	str	r2, [r5, #16]
  CLEAR_BIT(huart->Instance->CR3, (USART_CR3_SCEN | USART_CR3_HDSEL | USART_CR3_IREN));
 8005626:	696a      	ldr	r2, [r5, #20]
 8005628:	f022 022a 	bic.w	r2, r2, #42	@ 0x2a
 800562c:	616a      	str	r2, [r5, #20]
  __HAL_UART_ENABLE(huart);
 800562e:	68ea      	ldr	r2, [r5, #12]
  huart->ErrorCode = HAL_UART_ERROR_NONE;
 8005630:	2300      	movs	r3, #0
  huart->gState = HAL_UART_STATE_READY;
 8005632:	2120      	movs	r1, #32
  __HAL_UART_ENABLE(huart);
 8005634:	f442 5200 	orr.w	r2, r2, #8192	@ 0x2000
 8005638:	60ea      	str	r2, [r5, #12]
  huart->ErrorCode = HAL_UART_ERROR_NONE;
 800563a:	6463      	str	r3, [r4, #68]	@ 0x44
  huart->gState = HAL_UART_STATE_READY;
 800563c:	f884 1041 	strb.w	r1, [r4, #65]	@ 0x41
  huart->RxState = HAL_UART_STATE_READY;
 8005640:	f884 1042 	strb.w	r1, [r4, #66]	@ 0x42
  return HAL_OK;
 8005644:	4618      	mov	r0, r3
  huart->RxEventType = HAL_UART_RXEVENT_TC;
 8005646:	6363      	str	r3, [r4, #52]	@ 0x34
}
 8005648:	bd38      	pop	{r3, r4, r5, pc}
      pclk = HAL_RCC_GetPCLK2Freq();
 800564a:	f7ff f941 	bl	80048d0 <HAL_RCC_GetPCLK2Freq>
 800564e:	e7ca      	b.n	80055e6 <HAL_UART_Init+0x6a>
    huart->Instance->BRR = UART_BRR_SAMPLING8(pclk, huart->Init.BaudRate);
 8005650:	18da      	adds	r2, r3, r3
 8005652:	f04f 0300 	mov.w	r3, #0
 8005656:	415b      	adcs	r3, r3
 8005658:	f7fa fdd6 	bl	8000208 <__aeabi_uldivmod>
 800565c:	4a0f      	ldr	r2, [pc, #60]	@ (800569c <HAL_UART_Init+0x120>)
 800565e:	fba2 3100 	umull	r3, r1, r2, r0
 8005662:	0949      	lsrs	r1, r1, #5
 8005664:	2364      	movs	r3, #100	@ 0x64
 8005666:	fb03 0311 	mls	r3, r3, r1, r0
 800566a:	00db      	lsls	r3, r3, #3
 800566c:	3332      	adds	r3, #50	@ 0x32
 800566e:	fba2 2303 	umull	r2, r3, r2, r3
 8005672:	f3c3 1242 	ubfx	r2, r3, #5, #3
 8005676:	091b      	lsrs	r3, r3, #4
 8005678:	eb02 1201 	add.w	r2, r2, r1, lsl #4
 800567c:	f403 73f8 	and.w	r3, r3, #496	@ 0x1f0
 8005680:	4413      	add	r3, r2
 8005682:	60ab      	str	r3, [r5, #8]
 8005684:	e7cb      	b.n	800561e <HAL_UART_Init+0xa2>
    huart->Lock = HAL_UNLOCKED;
 8005686:	f880 2040 	strb.w	r2, [r0, #64]	@ 0x40
    HAL_UART_MspInit(huart);
 800568a:	f7fe f925 	bl	80038d8 <HAL_UART_MspInit>
 800568e:	e780      	b.n	8005592 <HAL_UART_Init+0x16>
    return HAL_ERROR;
 8005690:	2001      	movs	r0, #1
}
 8005692:	4770      	bx	lr
 8005694:	40011000 	.word	0x40011000
 8005698:	40011400 	.word	0x40011400
 800569c:	51eb851f 	.word	0x51eb851f

080056a0 <VBS_GetAvBusVoltage_d>:
  }
  return (temp_avBusVoltage_d);
#else
  return (pHandle->AvBusVoltage_d);
#endif
}
 80056a0:	88c0      	ldrh	r0, [r0, #6]
 80056a2:	4770      	bx	lr

080056a4 <VBS_GetAvBusVoltage_V>:
    temp = 0U;
  }
  else
  {
#endif
    temp = (uint32_t)(pHandle->AvBusVoltage_d);
 80056a4:	88c3      	ldrh	r3, [r0, #6]
    temp *= pHandle->ConversionFactor;
 80056a6:	8840      	ldrh	r0, [r0, #2]
 80056a8:	fb03 f000 	mul.w	r0, r3, r0
    temp /= 65536U;
#ifdef NULL_PTR_CHECK_BUS_VOLT
  }
#endif
  return ((uint16_t)temp);
}
 80056ac:	0c00      	lsrs	r0, r0, #16
 80056ae:	4770      	bx	lr

080056b0 <Circle_Limitation>:
  *  @f$v_q = \sqrt(MaxModule^2-v_d^2\ ) @f$

  *
  */
__weak qd_t Circle_Limitation(const CircleLimitation_Handle_t *pHandle, qd_t Vqd)
{
 80056b0:	b570      	push	{r4, r5, r6, lr}
    int32_t square_limit;
    int32_t vd_square_limit;
    int32_t new_q;
    int32_t new_d;

    maxModule = (int32_t)pHandle->MaxModule;
 80056b2:	8803      	ldrh	r3, [r0, #0]
 80056b4:	140d      	asrs	r5, r1, #16
 80056b6:	b20c      	sxth	r4, r1

    square_q = ((int32_t)(Vqd.q)) * Vqd.q;
    square_d = ((int32_t)(Vqd.d)) * Vqd.d;
 80056b8:	fb05 f205 	mul.w	r2, r5, r5
    square_limit = maxModule * maxModule;
 80056bc:	fb03 f303 	mul.w	r3, r3, r3
    vd_square_limit = ((int32_t)pHandle->MaxVd) * ((int32_t)pHandle->MaxVd);
    square_sum = square_q + square_d;
 80056c0:	fb04 2104 	mla	r1, r4, r4, r2

    if (square_sum > square_limit)
 80056c4:	428b      	cmp	r3, r1
{
 80056c6:	b084      	sub	sp, #16
    if (square_sum > square_limit)
 80056c8:	da0f      	bge.n	80056ea <Circle_Limitation+0x3a>
    vd_square_limit = ((int32_t)pHandle->MaxVd) * ((int32_t)pHandle->MaxVd);
 80056ca:	8846      	ldrh	r6, [r0, #2]
 80056cc:	fb06 f006 	mul.w	r0, r6, r6
    {
      if (square_d <= vd_square_limit)
 80056d0:	4282      	cmp	r2, r0
 80056d2:	dd13      	ble.n	80056fc <Circle_Limitation+0x4c>
        new_d = Vqd.d;
      }
      else
      {
        new_d = (int32_t)pHandle->MaxVd;
        if (Vqd.d < 0)
 80056d4:	2d00      	cmp	r5, #0
#if defined CIRCLE_LIMITATION_SQRT_M0
        square_temp = (square_limit - vd_square_limit) / 1048576;
        new_q = SqrtTable[square_temp];
#else
        square_temp = square_limit - vd_square_limit;
        new_q = MCM_Sqrt(square_temp);
 80056d6:	eba3 0000 	sub.w	r0, r3, r0
          new_d = -new_d;
 80056da:	bfb8      	it	lt
 80056dc:	4276      	neglt	r6, r6
        new_q = MCM_Sqrt(square_temp);
 80056de:	f7fb ff27 	bl	8001530 <MCM_Sqrt>
#endif
        if (Vqd.q < 0)
 80056e2:	2c00      	cmp	r4, #0
        {
          /* Nothing to do */
        }
      }
      local_vqd.q = (int16_t)new_q;
      local_vqd.d = (int16_t)new_d;
 80056e4:	b235      	sxth	r5, r6
        if (Vqd.q < 0)
 80056e6:	db0e      	blt.n	8005706 <Circle_Limitation+0x56>
      local_vqd.q = (int16_t)new_q;
 80056e8:	b204      	sxth	r4, r0
    }
#ifdef NULL_PTR_CHECK_CRC_LIM
  }
#endif
  return (local_vqd);
 80056ea:	b2a4      	uxth	r4, r4
 80056ec:	2000      	movs	r0, #0
 80056ee:	f364 000f 	bfi	r0, r4, #0, #16
 80056f2:	b2ad      	uxth	r5, r5
 80056f4:	f365 401f 	bfi	r0, r5, #16, #16
}
 80056f8:	b004      	add	sp, #16
 80056fa:	bd70      	pop	{r4, r5, r6, pc}
        new_q = MCM_Sqrt(square_temp);
 80056fc:	1a98      	subs	r0, r3, r2
 80056fe:	f7fb ff17 	bl	8001530 <MCM_Sqrt>
        if (Vqd.q < 0)
 8005702:	2c00      	cmp	r4, #0
 8005704:	daf0      	bge.n	80056e8 <Circle_Limitation+0x38>
          new_q = - new_q;
 8005706:	4240      	negs	r0, r0
      local_vqd.q = (int16_t)new_q;
 8005708:	b204      	sxth	r4, r0
      local_vqd.d = (int16_t)new_d;
 800570a:	e7ee      	b.n	80056ea <Circle_Limitation+0x3a>

0800570c <EAC_Init>:
  {
#endif
    pHandle->pSTC = pSTC;
    pHandle->pVSS = pVSS;
    pHandle->pENC = pENC;
    pHandle->EncAligned = false;
 800570c:	f04f 0c00 	mov.w	ip, #0
    pHandle->pVSS = pVSS;
 8005710:	e9c0 1200 	strd	r1, r2, [r0]
    pHandle->pENC = pENC;
 8005714:	6083      	str	r3, [r0, #8]
    pHandle->EncAligned = false;
 8005716:	f8a0 c00e 	strh.w	ip, [r0, #14]
    pHandle->EncRestart = false;
#ifdef NULL_PTR_CHECK_ENC_ALI_CTRL
  }
#endif
}
 800571a:	4770      	bx	lr

0800571c <EAC_StartAlignment>:
  * It configures the VSS (Virtual Speed Sensor) with the required angle and sets the
  * STC (Speed and Torque Controller) to execute the required torque ramp.
  * @param  pHandle: handler of the current instance of the EncAlignCtrl component.
  */
__weak void EAC_StartAlignment(EncAlign_Handle_t *pHandle)
{
 800571c:	b510      	push	{r4, lr}
  {
#endif
    uint32_t wAux;

    /* Set pVSS mechanical speed to zero */
    VSS_SetMecAcceleration(pHandle->pVSS, 0, 0U);
 800571e:	2200      	movs	r2, #0
{
 8005720:	4604      	mov	r4, r0
    VSS_SetMecAcceleration(pHandle->pVSS, 0, 0U);
 8005722:	4611      	mov	r1, r2
 8005724:	6840      	ldr	r0, [r0, #4]
 8005726:	f001 fe59 	bl	80073dc <VSS_SetMecAcceleration>

    /* Set pVSS mechanical angle */
    VSS_SetMecAngle(pHandle->pVSS, pHandle->hElAngle);
 800572a:	f9b4 1014 	ldrsh.w	r1, [r4, #20]
 800572e:	6860      	ldr	r0, [r4, #4]
 8005730:	f001 fe4c 	bl	80073cc <VSS_SetMecAngle>

    /* Set pSTC in MCM_TORQUE_MODE */
    STC_SetControlMode(pHandle->pSTC, MCM_TORQUE_MODE);
 8005734:	6820      	ldr	r0, [r4, #0]
 8005736:	2104      	movs	r1, #4
 8005738:	f001 fa34 	bl	8006ba4 <STC_SetControlMode>

    /* Set starting torque to Zero */
    (void)STC_ExecRamp(pHandle->pSTC, 0, 0U);
 800573c:	2200      	movs	r2, #0
 800573e:	4611      	mov	r1, r2
 8005740:	6820      	ldr	r0, [r4, #0]
 8005742:	f001 fa33 	bl	8006bac <STC_ExecRamp>

    /* Execute the torque ramp */
    (void)STC_ExecRamp(pHandle->pSTC, pHandle->hFinalTorque, (uint32_t)pHandle->hDurationms);
 8005746:	8ae2      	ldrh	r2, [r4, #22]
 8005748:	f9b4 1012 	ldrsh.w	r1, [r4, #18]
 800574c:	6820      	ldr	r0, [r4, #0]
 800574e:	f001 fa2d 	bl	8006bac <STC_ExecRamp>
    /* Compute hRemainingTicks, the number of thick of alignment phase */
    wAux = ((uint32_t)pHandle->hDurationms) * ((uint32_t)pHandle->hEACFrequencyHz);
 8005752:	8ae3      	ldrh	r3, [r4, #22]
 8005754:	8a21      	ldrh	r1, [r4, #16]
    wAux /= 1000U;
 8005756:	4a04      	ldr	r2, [pc, #16]	@ (8005768 <EAC_StartAlignment+0x4c>)
    wAux = ((uint32_t)pHandle->hDurationms) * ((uint32_t)pHandle->hEACFrequencyHz);
 8005758:	fb01 f303 	mul.w	r3, r1, r3
    wAux /= 1000U;
 800575c:	fba2 2303 	umull	r2, r3, r2, r3
 8005760:	099b      	lsrs	r3, r3, #6
    pHandle->hRemainingTicks = (uint16_t)wAux;
    pHandle->hRemainingTicks++;
 8005762:	3301      	adds	r3, #1
 8005764:	81a3      	strh	r3, [r4, #12]
#ifdef NULL_PTR_CHECK_ENC_ALI_CTRL
  }
#endif
}
 8005766:	bd10      	pop	{r4, pc}
 8005768:	10624dd3 	.word	0x10624dd3

0800576c <EAC_Exec>:
    retVal = false;
  }
  else
  {
#endif
    if (pHandle->hRemainingTicks > 0U)
 800576c:	8983      	ldrh	r3, [r0, #12]
 800576e:	b90b      	cbnz	r3, 8005774 <EAC_Exec+0x8>
  bool retVal = true;
 8005770:	2001      	movs	r0, #1
#ifdef NULL_PTR_CHECK_ENC_ALI_CTRL
  }
#endif

  return (retVal);
}
 8005772:	4770      	bx	lr
      pHandle->hRemainingTicks--;
 8005774:	3b01      	subs	r3, #1
 8005776:	b29b      	uxth	r3, r3
{
 8005778:	b510      	push	{r4, lr}
 800577a:	4604      	mov	r4, r0
      pHandle->hRemainingTicks--;
 800577c:	8183      	strh	r3, [r0, #12]
      if (0U == pHandle->hRemainingTicks)
 800577e:	b10b      	cbz	r3, 8005784 <EAC_Exec+0x18>
        retVal = false;
 8005780:	2000      	movs	r0, #0
}
 8005782:	bd10      	pop	{r4, pc}
        ENC_SetMecAngle(pHandle->pENC, pHandle->hElAngle / ((int16_t)pHandle->bElToMecRatio));
 8005784:	7e03      	ldrb	r3, [r0, #24]
 8005786:	f9b0 1014 	ldrsh.w	r1, [r0, #20]
 800578a:	6880      	ldr	r0, [r0, #8]
 800578c:	fb91 f1f3 	sdiv	r1, r1, r3
 8005790:	f000 f930 	bl	80059f4 <ENC_SetMecAngle>
        pHandle->EncAligned = true;
 8005794:	2301      	movs	r3, #1
 8005796:	73a3      	strb	r3, [r4, #14]
  bool retVal = true;
 8005798:	2001      	movs	r0, #1
}
 800579a:	bd10      	pop	{r4, pc}

0800579c <EAC_IsAligned>:
#ifdef NULL_PTR_CHECK_ENC_ALI_CTRL
  return ((NULL == pHandle) ? false : pHandle->EncAligned);
#else
  return (pHandle->EncAligned);
#endif
}
 800579c:	7b80      	ldrb	r0, [r0, #14]
 800579e:	4770      	bx	lr

080057a0 <EAC_SetRestartState>:
    /* Nothing to do */
  }
  else
  {
#endif
    pHandle->EncRestart = restart;
 80057a0:	73c1      	strb	r1, [r0, #15]
#ifdef NULL_PTR_CHECK_ENC_ALI_CTRL
  }
#endif
}
 80057a2:	4770      	bx	lr

080057a4 <ENC_Init>:
    /* Reset counter */
    LL_TIM_SetCounter(TIMx, 0);

    /*Calculations of convenience*/
    pHandle->U32MAXdivPulseNumber = UINT32_MAX / ((uint32_t) pHandle->PulseNumber);
    pHandle->SpeedSamplingFreqUnit = ((uint32_t)pHandle->SpeedSamplingFreqHz * (uint32_t)SPEED_UNIT);
 80057a4:	f8b0 206c 	ldrh.w	r2, [r0, #108]	@ 0x6c
    TIM_TypeDef *TIMx = pHandle->TIMx;
 80057a8:	6a03      	ldr	r3, [r0, #32]
    pHandle->SpeedSamplingFreqUnit = ((uint32_t)pHandle->SpeedSamplingFreqHz * (uint32_t)SPEED_UNIT);
 80057aa:	eb02 0282 	add.w	r2, r2, r2, lsl #2
 80057ae:	0052      	lsls	r2, r2, #1
  WRITE_REG(TIMx->CNT, Counter);
 80057b0:	2100      	movs	r1, #0
{
 80057b2:	b410      	push	{r4}
 80057b4:	6259      	str	r1, [r3, #36]	@ 0x24
    pHandle->U32MAXdivPulseNumber = UINT32_MAX / ((uint32_t) pHandle->PulseNumber);
 80057b6:	f8b0 406e 	ldrh.w	r4, [r0, #110]	@ 0x6e
    pHandle->SpeedSamplingFreqUnit = ((uint32_t)pHandle->SpeedSamplingFreqHz * (uint32_t)SPEED_UNIT);
 80057ba:	6242      	str	r2, [r0, #36]	@ 0x24
    pHandle->U32MAXdivPulseNumber = UINT32_MAX / ((uint32_t) pHandle->PulseNumber);
 80057bc:	f04f 32ff 	mov.w	r2, #4294967295
 80057c0:	fbb2 f2f4 	udiv	r2, r2, r4
 80057c4:	6682      	str	r2, [r0, #104]	@ 0x68
  MODIFY_REG(*pReg, ((TIM_CCMR1_IC1F) << SHIFT_TAB_ICxx[iChannel]), (ICFilter >> 16U) << SHIFT_TAB_ICxx[iChannel]);
 80057c6:	699c      	ldr	r4, [r3, #24]
 80057c8:	f8b0 207a 	ldrh.w	r2, [r0, #122]	@ 0x7a
 80057cc:	f024 0cf0 	bic.w	ip, r4, #240	@ 0xf0
 80057d0:	ea42 020c 	orr.w	r2, r2, ip
 80057d4:	619a      	str	r2, [r3, #24]
 80057d6:	699a      	ldr	r2, [r3, #24]
 80057d8:	f8b0 407a 	ldrh.w	r4, [r0, #122]	@ 0x7a
 80057dc:	f422 4270 	bic.w	r2, r2, #61440	@ 0xf000
 80057e0:	ea42 2204 	orr.w	r2, r2, r4, lsl #8
  WRITE_REG(TIMx->SR, ~(TIM_SR_UIF));
 80057e4:	f06f 0401 	mvn.w	r4, #1
  MODIFY_REG(*pReg, ((TIM_CCMR1_IC1F) << SHIFT_TAB_ICxx[iChannel]), (ICFilter >> 16U) << SHIFT_TAB_ICxx[iChannel]);
 80057e8:	619a      	str	r2, [r3, #24]
  WRITE_REG(TIMx->SR, ~(TIM_SR_UIF));
 80057ea:	611c      	str	r4, [r3, #16]
  SET_BIT(TIMx->DIER, TIM_DIER_UIE);
 80057ec:	68da      	ldr	r2, [r3, #12]
 80057ee:	f042 0201 	orr.w	r2, r2, #1
 80057f2:	60da      	str	r2, [r3, #12]
  SET_BIT(TIMx->CR1, TIM_CR1_CEN);
 80057f4:	681a      	ldr	r2, [r3, #0]
 80057f6:	f042 0201 	orr.w	r2, r2, #1
 80057fa:	601a      	str	r2, [r3, #0]

    /* Enable the counting timer */
    LL_TIM_EnableCounter(TIMx);

    /* Erase speed buffer */
    bufferSize = pHandle->SpeedBufferSize;
 80057fc:	f890 2074 	ldrb.w	r2, [r0, #116]	@ 0x74

    for (index = 0U; index < bufferSize; index++)
 8005800:	b12a      	cbz	r2, 800580e <ENC_Init+0x6a>
      pHandle->DeltaCapturesBuffer[index] = 0;
    }
#ifdef NULL_PTR_CHECK_ENC_SPD_POS_FDB
  }
#endif
}
 8005802:	f85d 4b04 	ldr.w	r4, [sp], #4
      pHandle->DeltaCapturesBuffer[index] = 0;
 8005806:	0092      	lsls	r2, r2, #2
 8005808:	3028      	adds	r0, #40	@ 0x28
 800580a:	f001 be23 	b.w	8007454 <memset>
}
 800580e:	f85d 4b04 	ldr.w	r4, [sp], #4
 8005812:	4770      	bx	lr

08005814 <ENC_Clear>:
  *         This function must be called before starting the motor to initialize
  *         the speed measurement process.
  * @param  pHandle: handler of the current instance of the encoder component
  */
__weak void ENC_Clear(ENCODER_Handle_t *pHandle)
{
 8005814:	b510      	push	{r4, lr}
  else
  {
#endif
    uint8_t index;

    for (index = 0u; index < pHandle->SpeedBufferSize; index++)
 8005816:	f890 2074 	ldrb.w	r2, [r0, #116]	@ 0x74
{
 800581a:	4604      	mov	r4, r0
    for (index = 0u; index < pHandle->SpeedBufferSize; index++)
 800581c:	b122      	cbz	r2, 8005828 <ENC_Clear+0x14>
    {
      pHandle->DeltaCapturesBuffer[index] = 0;
 800581e:	0092      	lsls	r2, r2, #2
 8005820:	2100      	movs	r1, #0
 8005822:	3028      	adds	r0, #40	@ 0x28
 8005824:	f001 fe16 	bl	8007454 <memset>
    }
    pHandle->SensorIsReliable = true;
 8005828:	2301      	movs	r3, #1
 800582a:	f884 3075 	strb.w	r3, [r4, #117]	@ 0x75
#ifdef NULL_PTR_CHECK_ENC_SPD_POS_FDB
  }
#endif
}
 800582e:	bd10      	pop	{r4, pc}

08005830 <ENC_CalcAngle>:
  *         of the instantaneous value of the timer counter.
  * @param  pHandle: handler of the current instance of the encoder component
  * @retval Measured electrical angle in [s16degree](measurement_units.md) format.
  */
__weak int16_t ENC_CalcAngle(ENCODER_Handle_t *pHandle)
{
 8005830:	b410      	push	{r4}
    int16_t mecAngle; /* s16degree format */
    uint32_t uwtemp1;
    int32_t wtemp1;
    /* PR 52926 We need to keep only the 16 LSB, bit 31 could be at 1
     if the overflow occurs just after the entry in the High frequency task */
    uwtemp1 = (LL_TIM_GetCounter(pHandle->TIMx) & 0xffffU) * (pHandle->U32MAXdivPulseNumber);
 8005832:	6a02      	ldr	r2, [r0, #32]
    wtemp1 = (int32_t)uwtemp1 / 65536;
#endif
    /* Computes and stores the rotor mechanical angle */
    mecAngle = (int16_t)wtemp1;

    int16_t hMecAnglePrev = pHandle->_Super.hMecAngle;
 8005834:	f9b0 1006 	ldrsh.w	r1, [r0, #6]
  return (uint32_t)(READ_REG(TIMx->CNT));
 8005838:	6a52      	ldr	r2, [r2, #36]	@ 0x24
{
 800583a:	4603      	mov	r3, r0
    uwtemp1 = (LL_TIM_GetCounter(pHandle->TIMx) & 0xffffU) * (pHandle->U32MAXdivPulseNumber);
 800583c:	b292      	uxth	r2, r2
 800583e:	6e9c      	ldr	r4, [r3, #104]	@ 0x68

    pHandle->_Super.hMecAngle = mecAngle;

    /* Computes and stores the rotor electrical angle */
    elAngle = mecAngle * (int16_t)(pHandle->_Super.bElToMecRatio);
 8005840:	7840      	ldrb	r0, [r0, #1]
    uwtemp1 = (LL_TIM_GetCounter(pHandle->TIMx) & 0xffffU) * (pHandle->U32MAXdivPulseNumber);
 8005842:	fb04 f202 	mul.w	r2, r4, r2
    wtemp1 = (int32_t)uwtemp1 >> 16U;  //cstat !MISRAC2012-Rule-1.3_n !ATH-shift-neg !MISRAC2012-Rule-10.1_R6
 8005846:	1412      	asrs	r2, r2, #16
    elAngle = mecAngle * (int16_t)(pHandle->_Super.bElToMecRatio);
 8005848:	fb02 f000 	mul.w	r0, r2, r0

    pHandle->_Super.hElAngle = elAngle;

    int16_t hMecSpeedDpp = mecAngle - hMecAnglePrev;
 800584c:	1a51      	subs	r1, r2, r1
    mecAngle = (int16_t)wtemp1;
 800584e:	80da      	strh	r2, [r3, #6]
    pHandle->_Super.wMecAngle += ((int32_t)hMecSpeedDpp);
 8005850:	689a      	ldr	r2, [r3, #8]
#ifdef NULL_PTR_CHECK_ENC_SPD_POS_FDB
  }
#endif
  /*Returns rotor electrical angle*/
  return (elAngle);
}
 8005852:	f85d 4b04 	ldr.w	r4, [sp], #4
    elAngle = mecAngle * (int16_t)(pHandle->_Super.bElToMecRatio);
 8005856:	b200      	sxth	r0, r0
    pHandle->_Super.wMecAngle += ((int32_t)hMecSpeedDpp);
 8005858:	fa02 f281 	sxtah	r2, r2, r1
    pHandle->_Super.hElAngle = elAngle;
 800585c:	8098      	strh	r0, [r3, #4]
    pHandle->_Super.wMecAngle += ((int32_t)hMecSpeedDpp);
 800585e:	609a      	str	r2, [r3, #8]
}
 8005860:	4770      	bx	lr
 8005862:	bf00      	nop

08005864 <ENC_CalcAvrgMecSpeedUnit>:
  * @param  pMecSpeedUnit pointer used to return the rotor average mechanical speed
  *         expressed in the unit defined by #SPEED_UNIT
  * @retval true = sensor information is reliable. false = sensor information is not reliable
  */
__weak bool ENC_CalcAvrgMecSpeedUnit(ENCODER_Handle_t *pHandle, int16_t *pMecSpeedUnit)
{
 8005864:	b5f0      	push	{r4, r5, r6, r7, lr}
 8005866:	4603      	mov	r3, r0
    int32_t wtemp2;
    uint32_t OverflowCntSample;
    uint32_t CntCapture;
    uint32_t directionSample;
    int32_t wOverallAngleVariation = 0;
    TIM_TypeDef *TIMx = pHandle->TIMx;
 8005868:	6a02      	ldr	r2, [r0, #32]
    uint8_t bBufferSize = pHandle->SpeedBufferSize;
 800586a:	f890 0074 	ldrb.w	r0, [r0, #116]	@ 0x74
 800586e:	6a55      	ldr	r5, [r2, #36]	@ 0x24
#ifdef TIM_CNT_UIFCPY
    /* disable Interrupt generation */
    LL_TIM_DisableIT_UPDATE(TIMx);
#endif
    CntCapture = LL_TIM_GetCounter(TIMx);
    OverflowCntSample = pHandle->TimerOverflowNb;
 8005870:	f8b3 4070 	ldrh.w	r4, [r3, #112]	@ 0x70
    if (LL_TIM_COUNTERDIRECTION_DOWN == directionSample)
    {
      /* Encoder timer down-counting */
      /* If UIFCPY not present Overflow counter can not be safely used -> limitation to 1 OF */
#ifndef TIM_CNT_UIFCPY
      OverflowCntSample = (CntCapture > pHandle->PreviousCapture) ? 1 : 0;
 8005874:	f8b3 e072 	ldrh.w	lr, [r3, #114]	@ 0x72
#endif
      pHandle->DeltaCapturesBuffer[pHandle->DeltaCapturesIndex] =
        ((int32_t)CntCapture) - ((int32_t)pHandle->PreviousCapture)
        - ((((int32_t)OverflowCntSample) + (int32_t)OFbit) * ((int32_t)pHandle->PulseNumber));
 8005878:	f8b3 c06e 	ldrh.w	ip, [r3, #110]	@ 0x6e
    pHandle->TimerOverflowNb = 0;
 800587c:	2600      	movs	r6, #0
 800587e:	f8a3 6070 	strh.w	r6, [r3, #112]	@ 0x70
    OverflowCntSample = pHandle->TimerOverflowNb;
 8005882:	b2a4      	uxth	r4, r4
  return (uint32_t)(READ_BIT(TIMx->CR1, TIM_CR1_DIR));
 8005884:	6812      	ldr	r2, [r2, #0]
    if ((OverflowCntSample + OFbit) > ENC_MAX_OVERFLOW_NB)
 8005886:	2c01      	cmp	r4, #1
      pHandle->TimerOverflowError = true;
 8005888:	bf88      	it	hi
 800588a:	2401      	movhi	r4, #1
 800588c:	f002 0210 	and.w	r2, r2, #16
    {
      /* Nothing to do */
    }

    /* Checks the reliability status, then stores and returns it */
    if (pHandle->TimerOverflowError)
 8005890:	bf94      	ite	ls
 8005892:	f893 407d 	ldrbls.w	r4, [r3, #125]	@ 0x7d
      pHandle->TimerOverflowError = true;
 8005896:	f883 407d 	strbhi.w	r4, [r3, #125]	@ 0x7d
        ((int32_t)CntCapture) - ((int32_t)pHandle->PreviousCapture)
 800589a:	eba5 060e 	sub.w	r6, r5, lr
    if (LL_TIM_COUNTERDIRECTION_DOWN == directionSample)
 800589e:	2a00      	cmp	r2, #0
 80058a0:	f000 8092 	beq.w	80059c8 <ENC_CalcAvrgMecSpeedUnit+0x164>
        - ((((int32_t)OverflowCntSample) + (int32_t)OFbit) * ((int32_t)pHandle->PulseNumber));
 80058a4:	4575      	cmp	r5, lr
 80058a6:	bf8c      	ite	hi
 80058a8:	4662      	movhi	r2, ip
 80058aa:	2200      	movls	r2, #0
 80058ac:	1ab6      	subs	r6, r6, r2
      pHandle->DeltaCapturesBuffer[pHandle->DeltaCapturesIndex] =
 80058ae:	f893 207c 	ldrb.w	r2, [r3, #124]	@ 0x7c
 80058b2:	320a      	adds	r2, #10
 80058b4:	f843 6022 	str.w	r6, [r3, r2, lsl #2]
    for (bBufferIndex = 0U; bBufferIndex < bBufferSize; bBufferIndex++)
 80058b8:	2800      	cmp	r0, #0
 80058ba:	f000 8092 	beq.w	80059e2 <ENC_CalcAvrgMecSpeedUnit+0x17e>
 80058be:	2801      	cmp	r0, #1
      wOverallAngleVariation += pHandle->DeltaCapturesBuffer[bBufferIndex];
 80058c0:	6a9a      	ldr	r2, [r3, #40]	@ 0x28
    for (bBufferIndex = 0U; bBufferIndex < bBufferSize; bBufferIndex++)
 80058c2:	d039      	beq.n	8005938 <ENC_CalcAvrgMecSpeedUnit+0xd4>
      wOverallAngleVariation += pHandle->DeltaCapturesBuffer[bBufferIndex];
 80058c4:	6ade      	ldr	r6, [r3, #44]	@ 0x2c
    for (bBufferIndex = 0U; bBufferIndex < bBufferSize; bBufferIndex++)
 80058c6:	2802      	cmp	r0, #2
      wOverallAngleVariation += pHandle->DeltaCapturesBuffer[bBufferIndex];
 80058c8:	4432      	add	r2, r6
    for (bBufferIndex = 0U; bBufferIndex < bBufferSize; bBufferIndex++)
 80058ca:	d035      	beq.n	8005938 <ENC_CalcAvrgMecSpeedUnit+0xd4>
      wOverallAngleVariation += pHandle->DeltaCapturesBuffer[bBufferIndex];
 80058cc:	6b1e      	ldr	r6, [r3, #48]	@ 0x30
    for (bBufferIndex = 0U; bBufferIndex < bBufferSize; bBufferIndex++)
 80058ce:	2803      	cmp	r0, #3
      wOverallAngleVariation += pHandle->DeltaCapturesBuffer[bBufferIndex];
 80058d0:	4432      	add	r2, r6
    for (bBufferIndex = 0U; bBufferIndex < bBufferSize; bBufferIndex++)
 80058d2:	d031      	beq.n	8005938 <ENC_CalcAvrgMecSpeedUnit+0xd4>
      wOverallAngleVariation += pHandle->DeltaCapturesBuffer[bBufferIndex];
 80058d4:	6b5e      	ldr	r6, [r3, #52]	@ 0x34
    for (bBufferIndex = 0U; bBufferIndex < bBufferSize; bBufferIndex++)
 80058d6:	2804      	cmp	r0, #4
      wOverallAngleVariation += pHandle->DeltaCapturesBuffer[bBufferIndex];
 80058d8:	4432      	add	r2, r6
    for (bBufferIndex = 0U; bBufferIndex < bBufferSize; bBufferIndex++)
 80058da:	d02d      	beq.n	8005938 <ENC_CalcAvrgMecSpeedUnit+0xd4>
      wOverallAngleVariation += pHandle->DeltaCapturesBuffer[bBufferIndex];
 80058dc:	6b9e      	ldr	r6, [r3, #56]	@ 0x38
    for (bBufferIndex = 0U; bBufferIndex < bBufferSize; bBufferIndex++)
 80058de:	2805      	cmp	r0, #5
      wOverallAngleVariation += pHandle->DeltaCapturesBuffer[bBufferIndex];
 80058e0:	4432      	add	r2, r6
    for (bBufferIndex = 0U; bBufferIndex < bBufferSize; bBufferIndex++)
 80058e2:	d029      	beq.n	8005938 <ENC_CalcAvrgMecSpeedUnit+0xd4>
      wOverallAngleVariation += pHandle->DeltaCapturesBuffer[bBufferIndex];
 80058e4:	6bde      	ldr	r6, [r3, #60]	@ 0x3c
    for (bBufferIndex = 0U; bBufferIndex < bBufferSize; bBufferIndex++)
 80058e6:	2806      	cmp	r0, #6
      wOverallAngleVariation += pHandle->DeltaCapturesBuffer[bBufferIndex];
 80058e8:	4432      	add	r2, r6
    for (bBufferIndex = 0U; bBufferIndex < bBufferSize; bBufferIndex++)
 80058ea:	d025      	beq.n	8005938 <ENC_CalcAvrgMecSpeedUnit+0xd4>
      wOverallAngleVariation += pHandle->DeltaCapturesBuffer[bBufferIndex];
 80058ec:	6c1e      	ldr	r6, [r3, #64]	@ 0x40
    for (bBufferIndex = 0U; bBufferIndex < bBufferSize; bBufferIndex++)
 80058ee:	2807      	cmp	r0, #7
      wOverallAngleVariation += pHandle->DeltaCapturesBuffer[bBufferIndex];
 80058f0:	4432      	add	r2, r6
    for (bBufferIndex = 0U; bBufferIndex < bBufferSize; bBufferIndex++)
 80058f2:	d021      	beq.n	8005938 <ENC_CalcAvrgMecSpeedUnit+0xd4>
      wOverallAngleVariation += pHandle->DeltaCapturesBuffer[bBufferIndex];
 80058f4:	6c5e      	ldr	r6, [r3, #68]	@ 0x44
    for (bBufferIndex = 0U; bBufferIndex < bBufferSize; bBufferIndex++)
 80058f6:	2808      	cmp	r0, #8
      wOverallAngleVariation += pHandle->DeltaCapturesBuffer[bBufferIndex];
 80058f8:	4432      	add	r2, r6
    for (bBufferIndex = 0U; bBufferIndex < bBufferSize; bBufferIndex++)
 80058fa:	d01d      	beq.n	8005938 <ENC_CalcAvrgMecSpeedUnit+0xd4>
      wOverallAngleVariation += pHandle->DeltaCapturesBuffer[bBufferIndex];
 80058fc:	6c9e      	ldr	r6, [r3, #72]	@ 0x48
    for (bBufferIndex = 0U; bBufferIndex < bBufferSize; bBufferIndex++)
 80058fe:	2809      	cmp	r0, #9
      wOverallAngleVariation += pHandle->DeltaCapturesBuffer[bBufferIndex];
 8005900:	4432      	add	r2, r6
    for (bBufferIndex = 0U; bBufferIndex < bBufferSize; bBufferIndex++)
 8005902:	d019      	beq.n	8005938 <ENC_CalcAvrgMecSpeedUnit+0xd4>
      wOverallAngleVariation += pHandle->DeltaCapturesBuffer[bBufferIndex];
 8005904:	6cde      	ldr	r6, [r3, #76]	@ 0x4c
    for (bBufferIndex = 0U; bBufferIndex < bBufferSize; bBufferIndex++)
 8005906:	280a      	cmp	r0, #10
      wOverallAngleVariation += pHandle->DeltaCapturesBuffer[bBufferIndex];
 8005908:	4432      	add	r2, r6
    for (bBufferIndex = 0U; bBufferIndex < bBufferSize; bBufferIndex++)
 800590a:	d015      	beq.n	8005938 <ENC_CalcAvrgMecSpeedUnit+0xd4>
      wOverallAngleVariation += pHandle->DeltaCapturesBuffer[bBufferIndex];
 800590c:	6d1e      	ldr	r6, [r3, #80]	@ 0x50
    for (bBufferIndex = 0U; bBufferIndex < bBufferSize; bBufferIndex++)
 800590e:	280b      	cmp	r0, #11
      wOverallAngleVariation += pHandle->DeltaCapturesBuffer[bBufferIndex];
 8005910:	4432      	add	r2, r6
    for (bBufferIndex = 0U; bBufferIndex < bBufferSize; bBufferIndex++)
 8005912:	d011      	beq.n	8005938 <ENC_CalcAvrgMecSpeedUnit+0xd4>
      wOverallAngleVariation += pHandle->DeltaCapturesBuffer[bBufferIndex];
 8005914:	6d5e      	ldr	r6, [r3, #84]	@ 0x54
    for (bBufferIndex = 0U; bBufferIndex < bBufferSize; bBufferIndex++)
 8005916:	280c      	cmp	r0, #12
      wOverallAngleVariation += pHandle->DeltaCapturesBuffer[bBufferIndex];
 8005918:	4432      	add	r2, r6
    for (bBufferIndex = 0U; bBufferIndex < bBufferSize; bBufferIndex++)
 800591a:	d00d      	beq.n	8005938 <ENC_CalcAvrgMecSpeedUnit+0xd4>
      wOverallAngleVariation += pHandle->DeltaCapturesBuffer[bBufferIndex];
 800591c:	6d9e      	ldr	r6, [r3, #88]	@ 0x58
    for (bBufferIndex = 0U; bBufferIndex < bBufferSize; bBufferIndex++)
 800591e:	280d      	cmp	r0, #13
      wOverallAngleVariation += pHandle->DeltaCapturesBuffer[bBufferIndex];
 8005920:	4432      	add	r2, r6
    for (bBufferIndex = 0U; bBufferIndex < bBufferSize; bBufferIndex++)
 8005922:	d009      	beq.n	8005938 <ENC_CalcAvrgMecSpeedUnit+0xd4>
      wOverallAngleVariation += pHandle->DeltaCapturesBuffer[bBufferIndex];
 8005924:	6dde      	ldr	r6, [r3, #92]	@ 0x5c
    for (bBufferIndex = 0U; bBufferIndex < bBufferSize; bBufferIndex++)
 8005926:	280e      	cmp	r0, #14
      wOverallAngleVariation += pHandle->DeltaCapturesBuffer[bBufferIndex];
 8005928:	4432      	add	r2, r6
    for (bBufferIndex = 0U; bBufferIndex < bBufferSize; bBufferIndex++)
 800592a:	d005      	beq.n	8005938 <ENC_CalcAvrgMecSpeedUnit+0xd4>
      wOverallAngleVariation += pHandle->DeltaCapturesBuffer[bBufferIndex];
 800592c:	6e1e      	ldr	r6, [r3, #96]	@ 0x60
    for (bBufferIndex = 0U; bBufferIndex < bBufferSize; bBufferIndex++)
 800592e:	280f      	cmp	r0, #15
      wOverallAngleVariation += pHandle->DeltaCapturesBuffer[bBufferIndex];
 8005930:	4432      	add	r2, r6
 8005932:	bf1c      	itt	ne
 8005934:	6e5e      	ldrne	r6, [r3, #100]	@ 0x64
 8005936:	1992      	addne	r2, r2, r6
    wtemp1 = wOverallAngleVariation * ((int32_t)pHandle->SpeedSamplingFreqUnit);
 8005938:	6a5f      	ldr	r7, [r3, #36]	@ 0x24
    wtemp2 = ((int32_t)pHandle->PulseNumber) * ((int32_t)pHandle->SpeedBufferSize);
 800593a:	fb0c f600 	mul.w	r6, ip, r0
    wtemp1 = wOverallAngleVariation * ((int32_t)pHandle->SpeedSamplingFreqUnit);
 800593e:	fb07 f202 	mul.w	r2, r7, r2
    wtemp1 = ((0 == wtemp2) ? wtemp1 : (wtemp1 / wtemp2));
 8005942:	b10e      	cbz	r6, 8005948 <ENC_CalcAvrgMecSpeedUnit+0xe4>
 8005944:	fb92 f2f6 	sdiv	r2, r2, r6
    *pMecSpeedUnit = (int16_t)wtemp1;
 8005948:	fa0f fe82 	sxth.w	lr, r2
    pHandle->_Super.hMecAccelUnitP = (int16_t)(wtemp1 - pHandle->_Super.hAvrMecSpeedUnit);
 800594c:	b292      	uxth	r2, r2
    *pMecSpeedUnit = (int16_t)wtemp1;
 800594e:	f8a1 e000 	strh.w	lr, [r1]
    wtemp1 = pHandle->DeltaCapturesBuffer[pHandle->DeltaCapturesIndex] * ((int32_t)pHandle->SpeedSamplingFreqHz)
 8005952:	f893 607c 	ldrb.w	r6, [r3, #124]	@ 0x7c
    pHandle->DeltaCapturesIndex++;
 8005956:	f893 c07c 	ldrb.w	ip, [r3, #124]	@ 0x7c
    wtemp1 = pHandle->DeltaCapturesBuffer[pHandle->DeltaCapturesIndex] * ((int32_t)pHandle->SpeedSamplingFreqHz)
 800595a:	360a      	adds	r6, #10
    pHandle->DeltaCapturesIndex++;
 800595c:	f10c 0c01 	add.w	ip, ip, #1
 8005960:	fa5f fc8c 	uxtb.w	ip, ip
    wtemp1 = pHandle->DeltaCapturesBuffer[pHandle->DeltaCapturesIndex] * ((int32_t)pHandle->SpeedSamplingFreqHz)
 8005964:	f853 6026 	ldr.w	r6, [r3, r6, lsl #2]
    pHandle->DeltaCapturesIndex++;
 8005968:	f883 c07c 	strb.w	ip, [r3, #124]	@ 0x7c
    pHandle->_Super.hMecAccelUnitP = (int16_t)(wtemp1 - pHandle->_Super.hAvrMecSpeedUnit);
 800596c:	f8b3 c00c 	ldrh.w	ip, [r3, #12]
    pHandle->_Super.hAvrMecSpeedUnit = (int16_t)wtemp1;
 8005970:	f8a3 e00c 	strh.w	lr, [r3, #12]
    pHandle->_Super.hMecAccelUnitP = (int16_t)(wtemp1 - pHandle->_Super.hAvrMecSpeedUnit);
 8005974:	eba2 020c 	sub.w	r2, r2, ip
 8005978:	825a      	strh	r2, [r3, #18]
    wtemp1 = pHandle->DeltaCapturesBuffer[pHandle->DeltaCapturesIndex] * ((int32_t)pHandle->SpeedSamplingFreqHz)
 800597a:	f8b3 206c 	ldrh.w	r2, [r3, #108]	@ 0x6c
    if (pHandle->DeltaCapturesIndex >= pHandle->SpeedBufferSize)
 800597e:	f893 e07c 	ldrb.w	lr, [r3, #124]	@ 0x7c
    wtemp1 = pHandle->DeltaCapturesBuffer[pHandle->DeltaCapturesIndex] * ((int32_t)pHandle->SpeedSamplingFreqHz)
 8005982:	fb06 f202 	mul.w	r2, r6, r2
             * ((int32_t)pHandle->_Super.bElToMecRatio);
 8005986:	785e      	ldrb	r6, [r3, #1]
    pHandle->PreviousCapture = (CntCapture >= (uint32_t)65535) ? 65535U : (uint16_t)CntCapture;
 8005988:	f64f 7cff 	movw	ip, #65535	@ 0xffff
 800598c:	4565      	cmp	r5, ip
    wtemp1 = pHandle->DeltaCapturesBuffer[pHandle->DeltaCapturesIndex] * ((int32_t)pHandle->SpeedSamplingFreqHz)
 800598e:	fb06 f202 	mul.w	r2, r6, r2
    wtemp1 *= ((int32_t)pHandle->_Super.DPPConvFactor);
 8005992:	69de      	ldr	r6, [r3, #28]
    pHandle->PreviousCapture = (CntCapture >= (uint32_t)65535) ? 65535U : (uint16_t)CntCapture;
 8005994:	bf28      	it	cs
 8005996:	4665      	movcs	r5, ip
    if (pHandle->DeltaCapturesIndex >= pHandle->SpeedBufferSize)
 8005998:	4586      	cmp	lr, r0
    pHandle->PreviousCapture = (CntCapture >= (uint32_t)65535) ? 65535U : (uint16_t)CntCapture;
 800599a:	f8a3 5072 	strh.w	r5, [r3, #114]	@ 0x72
    wtemp1 /= ((int32_t)pHandle->PulseNumber);
 800599e:	f8b3 506e 	ldrh.w	r5, [r3, #110]	@ 0x6e
 80059a2:	fb92 f2f5 	sdiv	r2, r2, r5
    wtemp1 /= ((int32_t)pHandle->_Super.hMeasurementFrequency);
 80059a6:	8b5d      	ldrh	r5, [r3, #26]
    wtemp1 *= ((int32_t)pHandle->_Super.DPPConvFactor);
 80059a8:	fb06 f202 	mul.w	r2, r6, r2
    wtemp1 /= ((int32_t)pHandle->_Super.hMeasurementFrequency);
 80059ac:	fb92 f2f5 	sdiv	r2, r2, r5
    pHandle->_Super.hElSpeedDpp = (int16_t)wtemp1;
 80059b0:	81da      	strh	r2, [r3, #14]
      pHandle->DeltaCapturesIndex = 0U;
 80059b2:	bf24      	itt	cs
 80059b4:	2200      	movcs	r2, #0
 80059b6:	f883 207c 	strbcs.w	r2, [r3, #124]	@ 0x7c
    if (pHandle->TimerOverflowError)
 80059ba:	b1ac      	cbz	r4, 80059e8 <ENC_CalcAvrgMecSpeedUnit+0x184>
    {
      bReliability = false;
      pHandle->SensorIsReliable = false;
      pHandle->_Super.bSpeedErrorNumber = pHandle->_Super.bMaximumSpeedErrorsNumber;
 80059bc:	78da      	ldrb	r2, [r3, #3]
 80059be:	701a      	strb	r2, [r3, #0]
      pHandle->SensorIsReliable = false;
 80059c0:	2000      	movs	r0, #0
 80059c2:	f883 0075 	strb.w	r0, [r3, #117]	@ 0x75
    }
#ifdef NULL_PTR_CHECK_ENC_SPD_POS_FDB
  }
#endif
  return (bReliability);
}
 80059c6:	bdf0      	pop	{r4, r5, r6, r7, pc}
        + ((((int32_t)OverflowCntSample) + (int32_t)OFbit) * ((int32_t)pHandle->PulseNumber));
 80059c8:	4575      	cmp	r5, lr
 80059ca:	bf34      	ite	cc
 80059cc:	4662      	movcc	r2, ip
 80059ce:	2200      	movcs	r2, #0
 80059d0:	4416      	add	r6, r2
      pHandle->DeltaCapturesBuffer[pHandle->DeltaCapturesIndex] =
 80059d2:	f893 207c 	ldrb.w	r2, [r3, #124]	@ 0x7c
 80059d6:	320a      	adds	r2, #10
 80059d8:	f843 6022 	str.w	r6, [r3, r2, lsl #2]
    for (bBufferIndex = 0U; bBufferIndex < bBufferSize; bBufferIndex++)
 80059dc:	2800      	cmp	r0, #0
 80059de:	f47f af6e 	bne.w	80058be <ENC_CalcAvrgMecSpeedUnit+0x5a>
 80059e2:	4602      	mov	r2, r0
 80059e4:	4686      	mov	lr, r0
 80059e6:	e7b2      	b.n	800594e <ENC_CalcAvrgMecSpeedUnit+0xea>
}
 80059e8:	e8bd 40f0 	ldmia.w	sp!, {r4, r5, r6, r7, lr}
      bReliability = SPD_IsMecSpeedReliable(&pHandle->_Super, pMecSpeedUnit);
 80059ec:	4618      	mov	r0, r3
 80059ee:	f001 b86f 	b.w	8006ad0 <SPD_IsMecSpeedReliable>
 80059f2:	bf00      	nop

080059f4 <ENC_SetMecAngle>:
    uint16_t hAngleCounts;
    uint16_t hMecAngleuint;
    int16_t localhMecAngle = hMecAngle;

    pHandle->_Super.hMecAngle = localhMecAngle;
    pHandle->_Super.hElAngle = localhMecAngle * (int16_t)pHandle->_Super.bElToMecRatio;
 80059f4:	7843      	ldrb	r3, [r0, #1]
    pHandle->_Super.hMecAngle = localhMecAngle;
 80059f6:	80c1      	strh	r1, [r0, #6]
    pHandle->_Super.hElAngle = localhMecAngle * (int16_t)pHandle->_Super.bElToMecRatio;
 80059f8:	b28a      	uxth	r2, r1
 80059fa:	fb01 f303 	mul.w	r3, r1, r3
    if (localhMecAngle < 0)
 80059fe:	2900      	cmp	r1, #0
    pHandle->_Super.hElAngle = localhMecAngle * (int16_t)pHandle->_Super.bElToMecRatio;
 8005a00:	8083      	strh	r3, [r0, #4]
 8005a02:	bfb8      	it	lt
 8005a04:	f102 32ff 	addlt.w	r2, r2, #4294967295
    else
    {
      hMecAngleuint = (uint16_t)localhMecAngle;
    }

    hAngleCounts = (uint16_t)((((uint32_t)hMecAngleuint) * ((uint32_t)pHandle->PulseNumber)) / 65535U);
 8005a08:	f8b0 306e 	ldrh.w	r3, [r0, #110]	@ 0x6e
 8005a0c:	4906      	ldr	r1, [pc, #24]	@ (8005a28 <ENC_SetMecAngle+0x34>)
 8005a0e:	bfb8      	it	lt
 8005a10:	b292      	uxthlt	r2, r2
 8005a12:	fb02 f303 	mul.w	r3, r2, r3
{
 8005a16:	b410      	push	{r4}
    hAngleCounts = (uint16_t)((((uint32_t)hMecAngleuint) * ((uint32_t)pHandle->PulseNumber)) / 65535U);
 8005a18:	fba1 1303 	umull	r1, r3, r1, r3
    TIM_TypeDef *TIMx = pHandle->TIMx;
 8005a1c:	6a04      	ldr	r4, [r0, #32]
    hAngleCounts = (uint16_t)((((uint32_t)hMecAngleuint) * ((uint32_t)pHandle->PulseNumber)) / 65535U);
 8005a1e:	0bdb      	lsrs	r3, r3, #15

    TIMx->CNT = (uint16_t)hAngleCounts;
 8005a20:	6263      	str	r3, [r4, #36]	@ 0x24
#ifdef NULL_PTR_CHECK_ENC_SPD_POS_FDB
  }
#endif
}
 8005a22:	f85d 4b04 	ldr.w	r4, [sp], #4
 8005a26:	4770      	bx	lr
 8005a28:	80008001 	.word	0x80008001

08005a2c <ENC_IRQHandler>:
/**
  * @brief  TIMER ENCODER Overflow interrupt counter update
  * @param  pHandleVoid: handler of the current instance of the encoder component
  */
__weak void *ENC_IRQHandler(void *pHandleVoid)
{
 8005a2c:	4602      	mov	r2, r0
  /* Updates the number of overflows occurred */
  /* The handling of overflow error is done in ENC_CalcAvrgMecSpeedUnit */
  pHandle->TimerOverflowNb += 1U;

  return (MC_NULL);
}
 8005a2e:	2000      	movs	r0, #0
  pHandle->TimerOverflowNb += 1U;
 8005a30:	f8b2 3070 	ldrh.w	r3, [r2, #112]	@ 0x70
 8005a34:	3301      	adds	r3, #1
 8005a36:	b29b      	uxth	r3, r3
 8005a38:	f8a2 3070 	strh.w	r3, [r2, #112]	@ 0x70
}
 8005a3c:	4770      	bx	lr
 8005a3e:	bf00      	nop

08005a40 <MCPA_dataLog>:
  * @brief  Allocates and fills buffer with asynchronous data to be sent to controller
  *
  * @param  *pHandle Pointer to the MCPA Handle
  */
void MCPA_dataLog(MCPA_Handle_t *pHandle)
{
 8005a40:	b5f8      	push	{r3, r4, r5, r6, r7, lr}
#endif
    uint32_t *logValue;
    uint16_t *logValue16;
    uint8_t i;

    if (pHandle->HFIndex == pHandle->HFRateBuff) /*  */
 8005a42:	7fc3      	ldrb	r3, [r0, #31]
 8005a44:	f890 2022 	ldrb.w	r2, [r0, #34]	@ 0x22
 8005a48:	429a      	cmp	r2, r3
{
 8005a4a:	4604      	mov	r4, r0
    if (pHandle->HFIndex == pHandle->HFRateBuff) /*  */
 8005a4c:	d002      	beq.n	8005a54 <MCPA_dataLog+0x14>
      }
    }
    else
    {
      /* Nothing to log just waiting next call to MCPA_datalog */
      pHandle->HFIndex++;
 8005a4e:	3301      	adds	r3, #1
 8005a50:	77c3      	strb	r3, [r0, #31]
    }
#ifdef NULL_PTR_CHECK_MCPA
  }
#endif
}
 8005a52:	bdf8      	pop	{r3, r4, r5, r6, r7, pc}
      if (0U == pHandle->bufferIndex)
 8005a54:	8b05      	ldrh	r5, [r0, #24]
      pHandle->HFIndex = 0U;
 8005a56:	2300      	movs	r3, #0
 8005a58:	77c3      	strb	r3, [r0, #31]
      if (0U == pHandle->bufferIndex)
 8005a5a:	b1a5      	cbz	r5, 8005a86 <MCPA_dataLog+0x46>
 8005a5c:	6961      	ldr	r1, [r4, #20]
      if ((pHandle->bufferIndex > 0U)  && (pHandle->bufferIndex <= pHandle->bufferTxTriggerBuff))
 8005a5e:	8ba2      	ldrh	r2, [r4, #28]
 8005a60:	42aa      	cmp	r2, r5
 8005a62:	d24e      	bcs.n	8005b02 <MCPA_dataLog+0xc2>
 8005a64:	f894 3026 	ldrb.w	r3, [r4, #38]	@ 0x26
        if (pHandle->MFRateBuff == 254U) /* MFRateBuff = 254 means we dump MF data once per buffer */
 8005a68:	2bfe      	cmp	r3, #254	@ 0xfe
 8005a6a:	d066      	beq.n	8005b3a <MCPA_dataLog+0xfa>
        *logValue16 = pHandle->MarkBuff; /* MarkBuff is actually 8 bits, but we add also 8 bits of the ASYNCID=0 after
 8005a6c:	f894 302a 	ldrb.w	r3, [r4, #42]	@ 0x2a
 8005a70:	534b      	strh	r3, [r1, r5]
        pHandle->pTransportLayer->fSendPacket(pHandle->pTransportLayer, pHandle->currentBuffer,
 8005a72:	8b22      	ldrh	r2, [r4, #24]
 8005a74:	6820      	ldr	r0, [r4, #0]
 8005a76:	3202      	adds	r2, #2
 8005a78:	2309      	movs	r3, #9
 8005a7a:	6845      	ldr	r5, [r0, #4]
 8005a7c:	b292      	uxth	r2, r2
 8005a7e:	47a8      	blx	r5
        pHandle->bufferIndex = 0U;
 8005a80:	2300      	movs	r3, #0
 8005a82:	8323      	strh	r3, [r4, #24]
}
 8005a84:	bdf8      	pop	{r3, r4, r5, r6, r7, pc}
        if (0U == pHandle->pTransportLayer->fGetBuffer (pHandle->pTransportLayer,
 8005a86:	4601      	mov	r1, r0
 8005a88:	2209      	movs	r2, #9
 8005a8a:	f851 0b14 	ldr.w	r0, [r1], #20
 8005a8e:	6803      	ldr	r3, [r0, #0]
 8005a90:	4798      	blx	r3
 8005a92:	b390      	cbz	r0, 8005afa <MCPA_dataLog+0xba>
          *logValue = GLOBAL_TIMESTAMP; /* 32 first bits is used to store Timestamp */
 8005a94:	4b49      	ldr	r3, [pc, #292]	@ (8005bbc <MCPA_dataLog+0x17c>)
 8005a96:	6961      	ldr	r1, [r4, #20]
 8005a98:	681b      	ldr	r3, [r3, #0]
 8005a9a:	600b      	str	r3, [r1, #0]
          if (pHandle->Mark == pHandle->MarkBuff)
 8005a9c:	f894 0029 	ldrb.w	r0, [r4, #41]	@ 0x29
 8005aa0:	f894 202a 	ldrb.w	r2, [r4, #42]	@ 0x2a
          pHandle->MFIndex = 0U; /* Restart the motif from scratch at each buffer */
 8005aa4:	f884 5020 	strb.w	r5, [r4, #32]
          pHandle->bufferIndex = 4U;
 8005aa8:	2304      	movs	r3, #4
          if (pHandle->Mark == pHandle->MarkBuff)
 8005aaa:	4282      	cmp	r2, r0
          pHandle->bufferIndex = 4U;
 8005aac:	8323      	strh	r3, [r4, #24]
          if (pHandle->Mark == pHandle->MarkBuff)
 8005aae:	d101      	bne.n	8005ab4 <MCPA_dataLog+0x74>
 8005ab0:	461d      	mov	r5, r3
      if ((pHandle->bufferIndex > 0U)  && (pHandle->bufferIndex <= pHandle->bufferTxTriggerBuff))
 8005ab2:	e7d4      	b.n	8005a5e <MCPA_dataLog+0x1e>
            pHandle->MFNumBuff           = pHandle->MFNum;
 8005ab4:	f894 3027 	ldrb.w	r3, [r4, #39]	@ 0x27
            pHandle->HFNumBuff           = pHandle->HFNum;
 8005ab8:	f894 2023 	ldrb.w	r2, [r4, #35]	@ 0x23
            pHandle->MFRateBuff          = pHandle->MFRate;
 8005abc:	f894 1025 	ldrb.w	r1, [r4, #37]	@ 0x25
            pHandle->HFRateBuff          = pHandle->HFRate;
 8005ac0:	f894 5021 	ldrb.w	r5, [r4, #33]	@ 0x21
            pHandle->HFNumBuff           = pHandle->HFNum;
 8005ac4:	f884 2024 	strb.w	r2, [r4, #36]	@ 0x24
            pHandle->MFNumBuff           = pHandle->MFNum;
 8005ac8:	f884 3028 	strb.w	r3, [r4, #40]	@ 0x28
                         ((uint32_t)pHandle->HFNum + (uint32_t)pHandle->MFNum) * 4U); /* We store pointer here,
 8005acc:	441a      	add	r2, r3
            pHandle->bufferTxTriggerBuff = pHandle->bufferTxTrigger;
 8005ace:	8b63      	ldrh	r3, [r4, #26]
            pHandle->MarkBuff            = pHandle->Mark;
 8005ad0:	f884 002a 	strb.w	r0, [r4, #42]	@ 0x2a
            (void)memcpy(pHandle->dataPtrTableBuff, pHandle->dataPtrTable,
 8005ad4:	0092      	lsls	r2, r2, #2
            pHandle->MFRateBuff          = pHandle->MFRate;
 8005ad6:	f884 1026 	strb.w	r1, [r4, #38]	@ 0x26
            pHandle->bufferTxTriggerBuff = pHandle->bufferTxTrigger;
 8005ada:	83a3      	strh	r3, [r4, #28]
            (void)memcpy(pHandle->dataPtrTableBuff, pHandle->dataPtrTable,
 8005adc:	e9d4 1001 	ldrd	r1, r0, [r4, #4]
            pHandle->HFRateBuff          = pHandle->HFRate;
 8005ae0:	f884 5022 	strb.w	r5, [r4, #34]	@ 0x22
            (void)memcpy(pHandle->dataPtrTableBuff, pHandle->dataPtrTable,
 8005ae4:	f001 fce2 	bl	80074ac <memcpy>
                         (uint32_t)pHandle->HFNum + (uint32_t)pHandle->MFNum); /* 1 size byte per ID */
 8005ae8:	f894 2023 	ldrb.w	r2, [r4, #35]	@ 0x23
 8005aec:	f894 3027 	ldrb.w	r3, [r4, #39]	@ 0x27
            (void)memcpy(pHandle->dataSizeTableBuff, pHandle->dataSizeTable,
 8005af0:	e9d4 1003 	ldrd	r1, r0, [r4, #12]
 8005af4:	441a      	add	r2, r3
 8005af6:	f001 fcd9 	bl	80074ac <memcpy>
      if ((pHandle->bufferIndex > 0U)  && (pHandle->bufferIndex <= pHandle->bufferTxTriggerBuff))
 8005afa:	8b25      	ldrh	r5, [r4, #24]
 8005afc:	2d00      	cmp	r5, #0
 8005afe:	d1ad      	bne.n	8005a5c <MCPA_dataLog+0x1c>
}
 8005b00:	bdf8      	pop	{r3, r4, r5, r6, r7, pc}
        for (i = 0U; i < pHandle->HFNumBuff; i++)
 8005b02:	f894 6024 	ldrb.w	r6, [r4, #36]	@ 0x24
        logValue16 = (uint16_t *)&pHandle->currentBuffer[pHandle->bufferIndex]; //cstat !MISRAC2012-Rule-11.3
 8005b06:	194b      	adds	r3, r1, r5
        for (i = 0U; i < pHandle->HFNumBuff; i++)
 8005b08:	b36e      	cbz	r6, 8005b66 <MCPA_dataLog+0x126>
 8005b0a:	68a2      	ldr	r2, [r4, #8]
 8005b0c:	eb03 0c46 	add.w	ip, r3, r6, lsl #1
 8005b10:	3a04      	subs	r2, #4
          *logValue16 = *((uint16_t *) pHandle->dataPtrTableBuff[i]) ; //cstat !MISRAC2012-Rule-11.5
 8005b12:	f852 0f04 	ldr.w	r0, [r2, #4]!
 8005b16:	8800      	ldrh	r0, [r0, #0]
 8005b18:	f823 0b02 	strh.w	r0, [r3], #2
          pHandle->bufferIndex = pHandle->bufferIndex + 2U;
 8005b1c:	8b25      	ldrh	r5, [r4, #24]
 8005b1e:	3502      	adds	r5, #2
 8005b20:	b2ad      	uxth	r5, r5
        for (i = 0U; i < pHandle->HFNumBuff; i++)
 8005b22:	459c      	cmp	ip, r3
          pHandle->bufferIndex = pHandle->bufferIndex + 2U;
 8005b24:	8325      	strh	r5, [r4, #24]
        for (i = 0U; i < pHandle->HFNumBuff; i++)
 8005b26:	d1f4      	bne.n	8005b12 <MCPA_dataLog+0xd2>
        if (pHandle->MFRateBuff < 254U)
 8005b28:	f894 3026 	ldrb.w	r3, [r4, #38]	@ 0x26
      if (pHandle->bufferIndex > pHandle->bufferTxTriggerBuff)
 8005b2c:	8ba2      	ldrh	r2, [r4, #28]
        if (pHandle->MFRateBuff < 254U)
 8005b2e:	2bfd      	cmp	r3, #253	@ 0xfd
 8005b30:	4618      	mov	r0, r3
 8005b32:	d91d      	bls.n	8005b70 <MCPA_dataLog+0x130>
      if (pHandle->bufferIndex > pHandle->bufferTxTriggerBuff)
 8005b34:	4295      	cmp	r5, r2
 8005b36:	d897      	bhi.n	8005a68 <MCPA_dataLog+0x28>
}
 8005b38:	bdf8      	pop	{r3, r4, r5, r6, r7, pc}
          for (i = pHandle->HFNumBuff; i < (pHandle->MFNumBuff + pHandle->HFNumBuff); i++)
 8005b3a:	f894 3024 	ldrb.w	r3, [r4, #36]	@ 0x24
 8005b3e:	f894 0028 	ldrb.w	r0, [r4, #40]	@ 0x28
 8005b42:	4418      	add	r0, r3
 8005b44:	4298      	cmp	r0, r3
 8005b46:	dd91      	ble.n	8005a6c <MCPA_dataLog+0x2c>
            *logValue = *((uint32_t *)pHandle->dataPtrTableBuff[i]); //cstat !MISRAC2012-Rule-11.5
 8005b48:	68a7      	ldr	r7, [r4, #8]
            pHandle->bufferIndex = pHandle->bufferIndex + pHandle->dataSizeTableBuff[i];
 8005b4a:	6926      	ldr	r6, [r4, #16]
            *logValue = *((uint32_t *)pHandle->dataPtrTableBuff[i]); //cstat !MISRAC2012-Rule-11.5
 8005b4c:	f857 2023 	ldr.w	r2, [r7, r3, lsl #2]
 8005b50:	6812      	ldr	r2, [r2, #0]
 8005b52:	514a      	str	r2, [r1, r5]
          for (i = pHandle->HFNumBuff; i < (pHandle->MFNumBuff + pHandle->HFNumBuff); i++)
 8005b54:	1c5a      	adds	r2, r3, #1
            pHandle->bufferIndex = pHandle->bufferIndex + pHandle->dataSizeTableBuff[i];
 8005b56:	5cf3      	ldrb	r3, [r6, r3]
 8005b58:	442b      	add	r3, r5
 8005b5a:	b29d      	uxth	r5, r3
          for (i = pHandle->HFNumBuff; i < (pHandle->MFNumBuff + pHandle->HFNumBuff); i++)
 8005b5c:	b2d3      	uxtb	r3, r2
 8005b5e:	4283      	cmp	r3, r0
            pHandle->bufferIndex = pHandle->bufferIndex + pHandle->dataSizeTableBuff[i];
 8005b60:	8325      	strh	r5, [r4, #24]
          for (i = pHandle->HFNumBuff; i < (pHandle->MFNumBuff + pHandle->HFNumBuff); i++)
 8005b62:	dbf3      	blt.n	8005b4c <MCPA_dataLog+0x10c>
 8005b64:	e782      	b.n	8005a6c <MCPA_dataLog+0x2c>
        if (pHandle->MFRateBuff < 254U)
 8005b66:	f894 0026 	ldrb.w	r0, [r4, #38]	@ 0x26
 8005b6a:	28fd      	cmp	r0, #253	@ 0xfd
 8005b6c:	f63f af71 	bhi.w	8005a52 <MCPA_dataLog+0x12>
          if (pHandle->MFIndex == pHandle->MFRateBuff)
 8005b70:	f894 3020 	ldrb.w	r3, [r4, #32]
 8005b74:	4283      	cmp	r3, r0
 8005b76:	d006      	beq.n	8005b86 <MCPA_dataLog+0x146>
            pHandle->MFIndex ++;
 8005b78:	3301      	adds	r3, #1
 8005b7a:	f884 3020 	strb.w	r3, [r4, #32]
      if (pHandle->bufferIndex > pHandle->bufferTxTriggerBuff)
 8005b7e:	4295      	cmp	r5, r2
 8005b80:	f63f af74 	bhi.w	8005a6c <MCPA_dataLog+0x2c>
}
 8005b84:	bdf8      	pop	{r3, r4, r5, r6, r7, pc}
            for (i = pHandle->HFNumBuff; i < (pHandle->MFNumBuff + pHandle->HFNumBuff); i++)
 8005b86:	f894 7028 	ldrb.w	r7, [r4, #40]	@ 0x28
 8005b8a:	4437      	add	r7, r6
            pHandle->MFIndex = 0U;
 8005b8c:	2300      	movs	r3, #0
            for (i = pHandle->HFNumBuff; i < (pHandle->MFNumBuff + pHandle->HFNumBuff); i++)
 8005b8e:	42b7      	cmp	r7, r6
            pHandle->MFIndex = 0U;
 8005b90:	f884 3020 	strb.w	r3, [r4, #32]
            for (i = pHandle->HFNumBuff; i < (pHandle->MFNumBuff + pHandle->HFNumBuff); i++)
 8005b94:	ddf3      	ble.n	8005b7e <MCPA_dataLog+0x13e>
              *logValue = *((uint32_t *)pHandle->dataPtrTableBuff[i]); //cstat !MISRAC2012-Rule-11.5
 8005b96:	f8d4 e008 	ldr.w	lr, [r4, #8]
              pHandle->bufferIndex = pHandle->bufferIndex+pHandle->dataSizeTableBuff[i];
 8005b9a:	f8d4 c010 	ldr.w	ip, [r4, #16]
              *logValue = *((uint32_t *)pHandle->dataPtrTableBuff[i]); //cstat !MISRAC2012-Rule-11.5
 8005b9e:	f85e 3026 	ldr.w	r3, [lr, r6, lsl #2]
 8005ba2:	681b      	ldr	r3, [r3, #0]
 8005ba4:	514b      	str	r3, [r1, r5]
              pHandle->bufferIndex = pHandle->bufferIndex+pHandle->dataSizeTableBuff[i];
 8005ba6:	f81c 3006 	ldrb.w	r3, [ip, r6]
            for (i = pHandle->HFNumBuff; i < (pHandle->MFNumBuff + pHandle->HFNumBuff); i++)
 8005baa:	1c70      	adds	r0, r6, #1
              pHandle->bufferIndex = pHandle->bufferIndex+pHandle->dataSizeTableBuff[i];
 8005bac:	442b      	add	r3, r5
            for (i = pHandle->HFNumBuff; i < (pHandle->MFNumBuff + pHandle->HFNumBuff); i++)
 8005bae:	b2c6      	uxtb	r6, r0
              pHandle->bufferIndex = pHandle->bufferIndex+pHandle->dataSizeTableBuff[i];
 8005bb0:	b29d      	uxth	r5, r3
            for (i = pHandle->HFNumBuff; i < (pHandle->MFNumBuff + pHandle->HFNumBuff); i++)
 8005bb2:	42be      	cmp	r6, r7
              pHandle->bufferIndex = pHandle->bufferIndex+pHandle->dataSizeTableBuff[i];
 8005bb4:	8325      	strh	r5, [r4, #24]
            for (i = pHandle->HFNumBuff; i < (pHandle->MFNumBuff + pHandle->HFNumBuff); i++)
 8005bb6:	dbf2      	blt.n	8005b9e <MCPA_dataLog+0x15e>
 8005bb8:	e7e1      	b.n	8005b7e <MCPA_dataLog+0x13e>
 8005bba:	bf00      	nop
 8005bbc:	2000196c 	.word	0x2000196c

08005bc0 <MCPA_flushDataLog>:
#endif
    uint32_t *logValue;
    uint16_t *logValue16;
    uint8_t i;

    if (pHandle->bufferIndex > 0U)
 8005bc0:	8b03      	ldrh	r3, [r0, #24]
 8005bc2:	b19b      	cbz	r3, 8005bec <MCPA_flushDataLog+0x2c>
{
 8005bc4:	b570      	push	{r4, r5, r6, lr}
    {  /* If buffer is allocated, we must send it */
      if (pHandle->MFRateBuff == 254U) /* In case of flush, we must respect the packet format to allow
 8005bc6:	f890 2026 	ldrb.w	r2, [r0, #38]	@ 0x26
                                          proper decoding */
      {
        for (i = pHandle->HFNumBuff; i < (pHandle->MFNumBuff + pHandle->HFNumBuff); i++)
        {
         logValue = (uint32_t *)&pHandle->currentBuffer[pHandle->bufferIndex]; //cstat !MISRAC2012-Rule-11.3
 8005bca:	6941      	ldr	r1, [r0, #20]
      if (pHandle->MFRateBuff == 254U) /* In case of flush, we must respect the packet format to allow
 8005bcc:	2afe      	cmp	r2, #254	@ 0xfe
 8005bce:	4604      	mov	r4, r0
 8005bd0:	d00d      	beq.n	8005bee <MCPA_flushDataLog+0x2e>
      else
      {
        /* Nothing to do */
      }
      logValue16 = (uint16_t *)&pHandle->currentBuffer[pHandle->bufferIndex]; //cstat !MISRAC2012-Rule-11.3
      *logValue16 = pHandle->MarkBuff; /* MarkBuff is actually 8 bits, but we add also 8 bits of the ASYNCID=0 after
 8005bd2:	f894 202a 	ldrb.w	r2, [r4, #42]	@ 0x2a
 8005bd6:	52ca      	strh	r2, [r1, r3]
                                          the MARK */
      pHandle->pTransportLayer->fSendPacket (pHandle->pTransportLayer, pHandle->currentBuffer,
 8005bd8:	8b22      	ldrh	r2, [r4, #24]
 8005bda:	6820      	ldr	r0, [r4, #0]
 8005bdc:	3202      	adds	r2, #2
 8005bde:	2309      	movs	r3, #9
 8005be0:	6845      	ldr	r5, [r0, #4]
 8005be2:	b292      	uxth	r2, r2
 8005be4:	47a8      	blx	r5
                                             pHandle->bufferIndex + 2U, MCTL_ASYNC);
      pHandle->bufferIndex = 0U;
 8005be6:	2300      	movs	r3, #0
 8005be8:	8323      	strh	r3, [r4, #24]
      /* Nothing to do */
    }
#ifdef NULL_PTR_CHECK_MCPA
  }
#endif
}
 8005bea:	bd70      	pop	{r4, r5, r6, pc}
 8005bec:	4770      	bx	lr
        for (i = pHandle->HFNumBuff; i < (pHandle->MFNumBuff + pHandle->HFNumBuff); i++)
 8005bee:	f890 2024 	ldrb.w	r2, [r0, #36]	@ 0x24
 8005bf2:	f890 c028 	ldrb.w	ip, [r0, #40]	@ 0x28
 8005bf6:	4494      	add	ip, r2
 8005bf8:	4562      	cmp	r2, ip
 8005bfa:	daea      	bge.n	8005bd2 <MCPA_flushDataLog+0x12>
         *logValue = *((uint32_t *)pHandle->dataPtrTableBuff[i]); //cstat !MISRAC2012-Rule-11.5
 8005bfc:	6886      	ldr	r6, [r0, #8]
         pHandle->bufferIndex = pHandle->bufferIndex+pHandle->dataSizeTableBuff[i];
 8005bfe:	6905      	ldr	r5, [r0, #16]
         *logValue = *((uint32_t *)pHandle->dataPtrTableBuff[i]); //cstat !MISRAC2012-Rule-11.5
 8005c00:	f856 0022 	ldr.w	r0, [r6, r2, lsl #2]
 8005c04:	6800      	ldr	r0, [r0, #0]
 8005c06:	50c8      	str	r0, [r1, r3]
         pHandle->bufferIndex = pHandle->bufferIndex+pHandle->dataSizeTableBuff[i];
 8005c08:	5ca8      	ldrb	r0, [r5, r2]
        for (i = pHandle->HFNumBuff; i < (pHandle->MFNumBuff + pHandle->HFNumBuff); i++)
 8005c0a:	3201      	adds	r2, #1
         pHandle->bufferIndex = pHandle->bufferIndex+pHandle->dataSizeTableBuff[i];
 8005c0c:	4403      	add	r3, r0
        for (i = pHandle->HFNumBuff; i < (pHandle->MFNumBuff + pHandle->HFNumBuff); i++)
 8005c0e:	b2d2      	uxtb	r2, r2
         pHandle->bufferIndex = pHandle->bufferIndex+pHandle->dataSizeTableBuff[i];
 8005c10:	b29b      	uxth	r3, r3
        for (i = pHandle->HFNumBuff; i < (pHandle->MFNumBuff + pHandle->HFNumBuff); i++)
 8005c12:	4562      	cmp	r2, ip
         pHandle->bufferIndex = pHandle->bufferIndex+pHandle->dataSizeTableBuff[i];
 8005c14:	8323      	strh	r3, [r4, #24]
        for (i = pHandle->HFNumBuff; i < (pHandle->MFNumBuff + pHandle->HFNumBuff); i++)
 8005c16:	dbf3      	blt.n	8005c00 <MCPA_flushDataLog+0x40>
 8005c18:	e7db      	b.n	8005bd2 <MCPA_flushDataLog+0x12>
 8005c1a:	bf00      	nop

08005c1c <MCPA_cfgLog>:
  *
  * @param  *pHandle Pointer to the MCPA Handle
  * @param  *cfgdata Configuration of the Async communication
  */
uint8_t MCPA_cfgLog(MCPA_Handle_t *pHandle, uint8_t *cfgdata)
{
 8005c1c:	e92d 43f8 	stmdb	sp!, {r3, r4, r5, r6, r7, r8, r9, lr}
    uint8_t i;
    uint16_t logSize = 0U; /* Max size of a log per iteration (HF+MF) */
    uint16_t newID, buffSize;
    uint8_t *pCfgData = cfgdata;

    buffSize = *((uint16_t *)pCfgData); //cstat !MISRAC2012-Rule-11.3
 8005c20:	880f      	ldrh	r7, [r1, #0]
{
 8005c22:	4604      	mov	r4, r0

    if (buffSize == 0U)
 8005c24:	2f00      	cmp	r7, #0
 8005c26:	d046      	beq.n	8005cb6 <MCPA_cfgLog+0x9a>
    { 
      /* Switch Off condition */
      MCPA_stopDataLog(pHandle);
    }
    else if (buffSize > pHandle->pTransportLayer->txAsyncMaxPayload)
 8005c28:	6803      	ldr	r3, [r0, #0]
 8005c2a:	89db      	ldrh	r3, [r3, #14]
 8005c2c:	42bb      	cmp	r3, r7
 8005c2e:	d33f      	bcc.n	8005cb0 <MCPA_cfgLog+0x94>
    {
      result = MCP_ERROR_NO_TXASYNC_SPACE;
    }
    else
    {
      pHandle->HFRate = *((uint8_t *)&pCfgData[2]);
 8005c30:	788b      	ldrb	r3, [r1, #2]
 8005c32:	f880 3021 	strb.w	r3, [r0, #33]	@ 0x21
      pHandle->HFNum  = *((uint8_t *)&pCfgData[3]);
 8005c36:	f891 8003 	ldrb.w	r8, [r1, #3]
 8005c3a:	f880 8023 	strb.w	r8, [r0, #35]	@ 0x23
      pHandle->MFRate = *((uint8_t *)&pCfgData[4]);
 8005c3e:	790b      	ldrb	r3, [r1, #4]
 8005c40:	f880 3025 	strb.w	r3, [r0, #37]	@ 0x25
      pHandle->MFNum  = *((uint8_t *)&pCfgData[5]);
 8005c44:	794b      	ldrb	r3, [r1, #5]
      pCfgData = &pCfgData[6]; /* Start of the HF IDs */

      if ((pHandle->HFNum + pHandle->MFNum) <= pHandle->nbrOfDataLog)
 8005c46:	7f82      	ldrb	r2, [r0, #30]
      pHandle->MFNum  = *((uint8_t *)&pCfgData[5]);
 8005c48:	f880 3027 	strb.w	r3, [r0, #39]	@ 0x27
      if ((pHandle->HFNum + pHandle->MFNum) <= pHandle->nbrOfDataLog)
 8005c4c:	4443      	add	r3, r8
 8005c4e:	4293      	cmp	r3, r2
 8005c50:	dc57      	bgt.n	8005d02 <MCPA_cfgLog+0xe6>
      pCfgData = &pCfgData[6]; /* Start of the HF IDs */
 8005c52:	1d8e      	adds	r6, r1, #6
      {
        for (i = 0; i < (pHandle->HFNum + pHandle->MFNum); i++)
 8005c54:	2b00      	cmp	r3, #0
 8005c56:	d057      	beq.n	8005d08 <MCPA_cfgLog+0xec>
    uint16_t logSize = 0U; /* Max size of a log per iteration (HF+MF) */
 8005c58:	f04f 0800 	mov.w	r8, #0
        for (i = 0; i < (pHandle->HFNum + pHandle->MFNum); i++)
 8005c5c:	4645      	mov	r5, r8
 8005c5e:	e011      	b.n	8005c84 <MCPA_cfgLog+0x68>
        {
          newID = *((uint16_t *)pCfgData); //cstat !MISRAC2012-Rule-11.3
          (void)RI_GetPtrReg(newID, &pHandle->dataPtrTable[i]);
          /* HF Data are fixed to 2 bytes */
          pHandle->dataSizeTable[i] = (i < pHandle->HFNum ) ? 2U : RI_GetIDSize(newID);
 8005c60:	68e3      	ldr	r3, [r4, #12]
 8005c62:	5558      	strb	r0, [r3, r5]
          pCfgData++; /* Point to the next UID */
          pCfgData++;
          logSize = logSize+pHandle->dataSizeTable[i];
 8005c64:	68e2      	ldr	r2, [r4, #12]
        for (i = 0; i < (pHandle->HFNum + pHandle->MFNum); i++)
 8005c66:	f894 3023 	ldrb.w	r3, [r4, #35]	@ 0x23
 8005c6a:	f894 1027 	ldrb.w	r1, [r4, #39]	@ 0x27
          logSize = logSize+pHandle->dataSizeTable[i];
 8005c6e:	5d52      	ldrb	r2, [r2, r5]
        for (i = 0; i < (pHandle->HFNum + pHandle->MFNum); i++)
 8005c70:	f105 0c01 	add.w	ip, r5, #1
 8005c74:	fa5f f58c 	uxtb.w	r5, ip
 8005c78:	440b      	add	r3, r1
          logSize = logSize+pHandle->dataSizeTable[i];
 8005c7a:	4442      	add	r2, r8
        for (i = 0; i < (pHandle->HFNum + pHandle->MFNum); i++)
 8005c7c:	429d      	cmp	r5, r3
          logSize = logSize+pHandle->dataSizeTable[i];
 8005c7e:	fa1f f882 	uxth.w	r8, r2
        for (i = 0; i < (pHandle->HFNum + pHandle->MFNum); i++)
 8005c82:	da11      	bge.n	8005ca8 <MCPA_cfgLog+0x8c>
          newID = *((uint16_t *)pCfgData); //cstat !MISRAC2012-Rule-11.3
 8005c84:	f836 9b02 	ldrh.w	r9, [r6], #2
          (void)RI_GetPtrReg(newID, &pHandle->dataPtrTable[i]);
 8005c88:	6861      	ldr	r1, [r4, #4]
 8005c8a:	4648      	mov	r0, r9
 8005c8c:	eb01 0185 	add.w	r1, r1, r5, lsl #2
 8005c90:	f7fd fb26 	bl	80032e0 <RI_GetPtrReg>
          pHandle->dataSizeTable[i] = (i < pHandle->HFNum ) ? 2U : RI_GetIDSize(newID);
 8005c94:	f894 3023 	ldrb.w	r3, [r4, #35]	@ 0x23
 8005c98:	42ab      	cmp	r3, r5
 8005c9a:	f04f 0002 	mov.w	r0, #2
 8005c9e:	d8df      	bhi.n	8005c60 <MCPA_cfgLog+0x44>
 8005ca0:	4648      	mov	r0, r9
 8005ca2:	f7fd fb11 	bl	80032c8 <RI_GetIDSize>
 8005ca6:	e7db      	b.n	8005c60 <MCPA_cfgLog+0x44>
        }

        /* Smallest packet must be able to contain logSize Markbyte AsyncID and TimeStamp */
        if (buffSize < (logSize + 2U + 4U))
 8005ca8:	f108 0206 	add.w	r2, r8, #6
 8005cac:	4297      	cmp	r7, r2
 8005cae:	d210      	bcs.n	8005cd2 <MCPA_cfgLog+0xb6>
      result = MCP_ERROR_NO_TXASYNC_SPACE;
 8005cb0:	2009      	movs	r0, #9
    }
#ifdef NULL_PTR_CHECK_MCPA
  }
#endif
  return (result);
}
 8005cb2:	e8bd 83f8 	ldmia.w	sp!, {r3, r4, r5, r6, r7, r8, r9, pc}
  if (pHandle->bufferIndex > 0U)
 8005cb6:	8b03      	ldrh	r3, [r0, #24]
  pHandle->Mark = 0U;
 8005cb8:	f880 7029 	strb.w	r7, [r0, #41]	@ 0x29
  if (pHandle->bufferIndex > 0U)
 8005cbc:	b9ab      	cbnz	r3, 8005cea <MCPA_cfgLog+0xce>
  pHandle->bufferIndex = 0U;
 8005cbe:	2300      	movs	r3, #0
 8005cc0:	8323      	strh	r3, [r4, #24]
  pHandle->MarkBuff    = 0U;
 8005cc2:	f884 302a 	strb.w	r3, [r4, #42]	@ 0x2a
  pHandle->HFIndex     = 0U;
 8005cc6:	77e3      	strb	r3, [r4, #31]
  pHandle->HFRateBuff  = 0U; /* We do not want to miss any sample at the restart */
 8005cc8:	f884 3022 	strb.w	r3, [r4, #34]	@ 0x22
  uint8_t result = MCP_CMD_OK;
 8005ccc:	2000      	movs	r0, #0
}
 8005cce:	e8bd 83f8 	ldmia.w	sp!, {r3, r4, r5, r6, r7, r8, r9, pc}
          pHandle->bufferTxTrigger = buffSize-logSize - 2U; /* 2 is required to add the last Mark byte and NUL
 8005cd2:	3f02      	subs	r7, #2
 8005cd4:	eba7 0708 	sub.w	r7, r7, r8
 8005cd8:	8367      	strh	r7, [r4, #26]
          pHandle->Mark = *((uint8_t *)pCfgData);
 8005cda:	7833      	ldrb	r3, [r6, #0]
 8005cdc:	f884 3029 	strb.w	r3, [r4, #41]	@ 0x29
          if (0U == pHandle->Mark)
 8005ce0:	2b00      	cmp	r3, #0
 8005ce2:	d1f3      	bne.n	8005ccc <MCPA_cfgLog+0xb0>
  if (pHandle->bufferIndex > 0U)
 8005ce4:	8b23      	ldrh	r3, [r4, #24]
 8005ce6:	2b00      	cmp	r3, #0
 8005ce8:	d0e9      	beq.n	8005cbe <MCPA_cfgLog+0xa2>
    logValue16 = (uint16_t *)&pHandle->currentBuffer[pHandle->bufferIndex]; //cstat !MISRAC2012-Rule-11.3
 8005cea:	6961      	ldr	r1, [r4, #20]
    *logValue16 = pHandle->MarkBuff; /* MarkBuff is actually 8 bits, but we add also 8 bits of the ASYNCID=0 after
 8005cec:	f894 202a 	ldrb.w	r2, [r4, #42]	@ 0x2a
 8005cf0:	52ca      	strh	r2, [r1, r3]
    pHandle->pTransportLayer->fSendPacket (pHandle->pTransportLayer, pHandle->currentBuffer,
 8005cf2:	8b22      	ldrh	r2, [r4, #24]
 8005cf4:	6820      	ldr	r0, [r4, #0]
 8005cf6:	3202      	adds	r2, #2
 8005cf8:	6845      	ldr	r5, [r0, #4]
 8005cfa:	b292      	uxth	r2, r2
 8005cfc:	2309      	movs	r3, #9
 8005cfe:	47a8      	blx	r5
 8005d00:	e7dd      	b.n	8005cbe <MCPA_cfgLog+0xa2>
        result = MCP_ERROR_BAD_RAW_FORMAT;
 8005d02:	200a      	movs	r0, #10
}
 8005d04:	e8bd 83f8 	ldmia.w	sp!, {r3, r4, r5, r6, r7, r8, r9, pc}
        for (i = 0; i < (pHandle->HFNum + pHandle->MFNum); i++)
 8005d08:	2206      	movs	r2, #6
    uint16_t logSize = 0U; /* Max size of a log per iteration (HF+MF) */
 8005d0a:	4698      	mov	r8, r3
 8005d0c:	e7ce      	b.n	8005cac <MCPA_cfgLog+0x90>
 8005d0e:	bf00      	nop

08005d10 <NTC_Clear>:
    /* nothing to do */
  }
  else
  {
#endif
    pHandle->hAvTemp_d = 0U;
 8005d10:	2300      	movs	r3, #0
 8005d12:	8043      	strh	r3, [r0, #2]
#ifdef NULL_PTR_CHECK_NTC_TEMP_SENS
  }
#endif
}
 8005d14:	4770      	bx	lr
 8005d16:	bf00      	nop

08005d18 <NTC_Init>:
    if (REAL_SENSOR == pHandle->bSensorType)
 8005d18:	7802      	ldrb	r2, [r0, #0]
{
 8005d1a:	b508      	push	{r3, lr}
    if (REAL_SENSOR == pHandle->bSensorType)
 8005d1c:	b122      	cbz	r2, 8005d28 <NTC_Init+0x10>
      pHandle->hAvTemp_d = pHandle->hExpectedTemp_d;
 8005d1e:	8882      	ldrh	r2, [r0, #4]
 8005d20:	8042      	strh	r2, [r0, #2]
      pHandle->hFaultState = MC_NO_ERROR;
 8005d22:	2100      	movs	r1, #0
 8005d24:	8101      	strh	r1, [r0, #8]
}
 8005d26:	bd08      	pop	{r3, pc}
      NTC_Clear(pHandle);
 8005d28:	f7ff fff2 	bl	8005d10 <NTC_Clear>
}
 8005d2c:	bd08      	pop	{r3, pc}
 8005d2e:	bf00      	nop

08005d30 <NTC_GetAvTemp_C>:
  else
  {
#endif
    int32_t wTemp;

    if (REAL_SENSOR == pHandle->bSensorType)
 8005d30:	7803      	ldrb	r3, [r0, #0]
 8005d32:	b95b      	cbnz	r3, 8005d4c <NTC_GetAvTemp_C+0x1c>
    {
      wTemp = (int32_t)pHandle->hAvTemp_d;
 8005d34:	8842      	ldrh	r2, [r0, #2]
      wTemp -= ((int32_t)pHandle->wV0);
 8005d36:	6941      	ldr	r1, [r0, #20]
      wTemp *= pHandle->hSensitivity;
 8005d38:	f9b0 3010 	ldrsh.w	r3, [r0, #16]
#ifndef FULL_MISRA_C_COMPLIANCY_NTC_TEMP
      //cstat !MISRAC2012-Rule-1.3_n !ATH-shift-neg !MISRAC2012-Rule-10.1_R6
      wTemp = (wTemp >> 16) + (int32_t)pHandle->hT0;
 8005d3c:	8b00      	ldrh	r0, [r0, #24]
      wTemp -= ((int32_t)pHandle->wV0);
 8005d3e:	1a52      	subs	r2, r2, r1
      wTemp *= pHandle->hSensitivity;
 8005d40:	fb02 f303 	mul.w	r3, r2, r3
      wTemp = (wTemp >> 16) + (int32_t)pHandle->hT0;
 8005d44:	eb00 4023 	add.w	r0, r0, r3, asr #16
    returnValue = (int16_t)wTemp;
#ifdef NULL_PTR_CHECK_NTC_TEMP_SENS
  }
#endif
  return (returnValue);
}
 8005d48:	b200      	sxth	r0, r0
 8005d4a:	4770      	bx	lr
      wTemp = (int32_t)pHandle->hExpectedTemp_C;
 8005d4c:	88c0      	ldrh	r0, [r0, #6]
}
 8005d4e:	b200      	sxth	r0, r0
 8005d50:	4770      	bx	lr
 8005d52:	bf00      	nop

08005d54 <PID_HandleInit>:
  {
#endif
    pHandle->hKpGain =  pHandle->hDefKpGain;
    pHandle->hKiGain =  pHandle->hDefKiGain;
    pHandle->hKdGain =  pHandle->hDefKdGain;
    pHandle->wIntegralTerm = 0;
 8005d54:	2300      	movs	r3, #0
    pHandle->hKpGain =  pHandle->hDefKpGain;
 8005d56:	6801      	ldr	r1, [r0, #0]
    pHandle->hKdGain =  pHandle->hDefKdGain;
 8005d58:	8c02      	ldrh	r2, [r0, #32]
    pHandle->hKpGain =  pHandle->hDefKpGain;
 8005d5a:	6041      	str	r1, [r0, #4]
    pHandle->hKdGain =  pHandle->hDefKdGain;
 8005d5c:	8442      	strh	r2, [r0, #34]	@ 0x22
    pHandle->wIntegralTerm = 0;
 8005d5e:	6083      	str	r3, [r0, #8]
    pHandle->wPrevProcessVarError = 0;
 8005d60:	6283      	str	r3, [r0, #40]	@ 0x28
#ifdef NULL_PTR_CHECK_PID_REG
  }
#endif
}
 8005d62:	4770      	bx	lr

08005d64 <PID_SetKP>:
    /* Nothing to do */
  }
  else
  {
#endif
    pHandle->hKpGain = hKpGain;
 8005d64:	8081      	strh	r1, [r0, #4]
#ifdef NULL_PTR_CHECK_PID_REG
  }
#endif
}
 8005d66:	4770      	bx	lr

08005d68 <PID_SetKI>:
    /* Nothing to do */
  }
  else
  {
#endif
    pHandle->hKiGain = hKiGain;
 8005d68:	80c1      	strh	r1, [r0, #6]
#ifdef NULL_PTR_CHECK_PID_REG
  }
#endif
}
 8005d6a:	4770      	bx	lr

08005d6c <PID_GetKP>:
#ifdef NULL_PTR_CHECK_PID_REG
  return ((MC_NULL == pHandle) ? 0 : pHandle->hKpGain);
#else
  return (pHandle->hKpGain);
#endif
}
 8005d6c:	f9b0 0004 	ldrsh.w	r0, [r0, #4]
 8005d70:	4770      	bx	lr
 8005d72:	bf00      	nop

08005d74 <PID_GetKI>:
#ifdef NULL_PTR_CHECK_PID_REG
  return ((MC_NULL == pHandle) ? 0 : pHandle->hKiGain);
#else
  return (pHandle->hKiGain);
#endif
}
 8005d74:	f9b0 0006 	ldrsh.w	r0, [r0, #6]
 8005d78:	4770      	bx	lr
 8005d7a:	bf00      	nop

08005d7c <PID_SetIntegralTerm>:
    /* Nothing to do */
  }
  else
  {
#endif
    pHandle->wIntegralTerm = wIntegralTermValue;
 8005d7c:	6081      	str	r1, [r0, #8]
#ifdef NULL_PTR_CHECK_PID_REG
  }
#endif
  return;
}
 8005d7e:	4770      	bx	lr

08005d80 <PID_GetKPDivisorPOW2>:
#ifdef NULL_PTR_CHECK_PID_REG
  return ((MC_NULL == pHandle) ? 0U : pHandle->hKpDivisorPOW2);
#else
  return (pHandle->hKpDivisorPOW2);
#endif
}
 8005d80:	8b80      	ldrh	r0, [r0, #28]
 8005d82:	4770      	bx	lr

08005d84 <PID_SetKPDivisorPOW2>:
  }
  else
  {
#endif
    pHandle->hKpDivisorPOW2 = hKpDivisorPOW2;
    pHandle->hKpDivisor = (((uint16_t)1) << hKpDivisorPOW2);
 8005d84:	2301      	movs	r3, #1
 8005d86:	408b      	lsls	r3, r1
    pHandle->hKpDivisorPOW2 = hKpDivisorPOW2;
 8005d88:	8381      	strh	r1, [r0, #28]
    pHandle->hKpDivisor = (((uint16_t)1) << hKpDivisorPOW2);
 8005d8a:	8303      	strh	r3, [r0, #24]
#ifdef NULL_PTR_CHECK_PID_REG
  }
#endif
}
 8005d8c:	4770      	bx	lr
 8005d8e:	bf00      	nop

08005d90 <PID_GetKIDivisorPOW2>:
#ifdef NULL_PTR_CHECK_PID_REG
  return ((MC_NULL == pHandle) ? 0U : pHandle->hKiDivisorPOW2);
#else
  return (pHandle->hKiDivisorPOW2);
#endif
}
 8005d90:	8bc0      	ldrh	r0, [r0, #30]
 8005d92:	4770      	bx	lr

08005d94 <PID_SetLowerIntegralTermLimit>:
    /* Nothing to do */
  }
  else
  {
#endif
    pHandle->wLowerIntegralLimit = wLowerLimit;
 8005d94:	6101      	str	r1, [r0, #16]
#ifdef NULL_PTR_CHECK_PID_REG
  }
#endif
}
 8005d96:	4770      	bx	lr

08005d98 <PID_SetUpperIntegralTermLimit>:
    /* Nothing to do */
  }
  else
  {
#endif
    pHandle->wUpperIntegralLimit = wUpperLimit;
 8005d98:	60c1      	str	r1, [r0, #12]
#ifdef NULL_PTR_CHECK_PID_REG
  }
#endif
}
 8005d9a:	4770      	bx	lr

08005d9c <PID_SetKIDivisorPOW2>:
{
 8005d9c:	b538      	push	{r3, r4, r5, lr}
    uint32_t wKiDiv = (((uint32_t)1) << hKiDivisorPOW2);
 8005d9e:	2301      	movs	r3, #1
{
 8005da0:	460c      	mov	r4, r1
    uint32_t wKiDiv = (((uint32_t)1) << hKiDivisorPOW2);
 8005da2:	408b      	lsls	r3, r1
    PID_SetUpperIntegralTermLimit(pHandle, (int32_t)INT16_MAX * (int32_t)wKiDiv);
 8005da4:	f647 71ff 	movw	r1, #32767	@ 0x7fff
 8005da8:	40a1      	lsls	r1, r4
    pHandle->hKiDivisorPOW2 = hKiDivisorPOW2;
 8005daa:	83c4      	strh	r4, [r0, #30]
    pHandle->hKiDivisor = (uint16_t)wKiDiv;
 8005dac:	8343      	strh	r3, [r0, #26]
{
 8005dae:	4605      	mov	r5, r0
    PID_SetUpperIntegralTermLimit(pHandle, (int32_t)INT16_MAX * (int32_t)wKiDiv);
 8005db0:	f7ff fff2 	bl	8005d98 <PID_SetUpperIntegralTermLimit>
    PID_SetLowerIntegralTermLimit(pHandle, (int32_t)(-INT16_MAX) * (int32_t)wKiDiv);
 8005db4:	4902      	ldr	r1, [pc, #8]	@ (8005dc0 <PID_SetKIDivisorPOW2+0x24>)
 8005db6:	4628      	mov	r0, r5
 8005db8:	40a1      	lsls	r1, r4
 8005dba:	f7ff ffeb 	bl	8005d94 <PID_SetLowerIntegralTermLimit>
}
 8005dbe:	bd38      	pop	{r3, r4, r5, pc}
 8005dc0:	ffff8001 	.word	0xffff8001

08005dc4 <PID_SetKD>:
    /* Nothing to do */
  }
  else
  {
#endif
    pHandle->hKdGain = hKdGain;
 8005dc4:	8441      	strh	r1, [r0, #34]	@ 0x22
#ifdef NULL_PTR_CHECK_PID_REG
  }
#endif
}
 8005dc6:	4770      	bx	lr

08005dc8 <PID_GetKD>:
#ifdef NULL_PTR_CHECK_PID_REG
  return ((MC_NULL == pHandle) ? 0 : pHandle->hKdGain);
#else
  return (pHandle->hKdGain);
#endif
}
 8005dc8:	f9b0 0022 	ldrsh.w	r0, [r0, #34]	@ 0x22
 8005dcc:	4770      	bx	lr
 8005dce:	bf00      	nop

08005dd0 <PID_GetKDDivisorPOW2>:
#ifdef NULL_PTR_CHECK_PID_REG
  return ((MC_NULL == pHandle) ? 0U : pHandle->hKdDivisorPOW2);
#else
  return (pHandle->hKdDivisorPOW2);
#endif
}
 8005dd0:	8cc0      	ldrh	r0, [r0, #38]	@ 0x26
 8005dd2:	4770      	bx	lr

08005dd4 <PID_SetKDDivisorPOW2>:
  }
  else
  {
#endif
    pHandle->hKdDivisorPOW2 = hKdDivisorPOW2;
    pHandle->hKdDivisor = (((uint16_t)1) << hKdDivisorPOW2);
 8005dd4:	2301      	movs	r3, #1
 8005dd6:	408b      	lsls	r3, r1
    pHandle->hKdDivisorPOW2 = hKdDivisorPOW2;
 8005dd8:	84c1      	strh	r1, [r0, #38]	@ 0x26
    pHandle->hKdDivisor = (((uint16_t)1) << hKdDivisorPOW2);
 8005dda:	8483      	strh	r3, [r0, #36]	@ 0x24
#ifdef NULL_PTR_CHECK_PID_REG
  }
#endif
}
 8005ddc:	4770      	bx	lr
 8005dde:	bf00      	nop

08005de0 <PI_Controller>:
    int32_t wDischarge = 0;
    int16_t hUpperOutputLimit = pHandle->hUpperOutputLimit;
    int16_t hLowerOutputLimit = pHandle->hLowerOutputLimit;

    /* Proportional term computation*/
    wProportional_Term = pHandle->hKpGain * wProcessVarError;
 8005de0:	f9b0 2004 	ldrsh.w	r2, [r0, #4]
{
 8005de4:	4603      	mov	r3, r0
 8005de6:	b530      	push	{r4, r5, lr}

    /* Integral term computation */
    if (0 == pHandle->hKiGain)
 8005de8:	f9b0 4006 	ldrsh.w	r4, [r0, #6]
    int16_t hLowerOutputLimit = pHandle->hLowerOutputLimit;
 8005dec:	f9b3 c016 	ldrsh.w	ip, [r3, #22]
    int16_t hUpperOutputLimit = pHandle->hUpperOutputLimit;
 8005df0:	f9b0 0014 	ldrsh.w	r0, [r0, #20]
    wProportional_Term = pHandle->hKpGain * wProcessVarError;
 8005df4:	fb01 f202 	mul.w	r2, r1, r2
    if (0 == pHandle->hKiGain)
 8005df8:	b17c      	cbz	r4, 8005e1a <PI_Controller+0x3a>
    {
      pHandle->wIntegralTerm = 0;
    }
    else
    {
      wIntegral_Term = pHandle->hKiGain * wProcessVarError;
 8005dfa:	fb04 f101 	mul.w	r1, r4, r1
        {
          /* Nothing to do */
        }
      }

      if (wIntegral_sum_temp > pHandle->wUpperIntegralLimit)
 8005dfe:	e9d3 5402 	ldrd	r5, r4, [r3, #8]
      if (wIntegral_sum_temp < 0)
 8005e02:	eb15 0e01 	adds.w	lr, r5, r1
 8005e06:	d41d      	bmi.n	8005e44 <PI_Controller+0x64>
            wIntegral_sum_temp = -INT32_MAX;
 8005e08:	420d      	tst	r5, r1
 8005e0a:	4914      	ldr	r1, [pc, #80]	@ (8005e5c <PI_Controller+0x7c>)
 8005e0c:	bf48      	it	mi
 8005e0e:	468e      	movmi	lr, r1
      if (wIntegral_sum_temp > pHandle->wUpperIntegralLimit)
 8005e10:	45a6      	cmp	lr, r4
 8005e12:	dc02      	bgt.n	8005e1a <PI_Controller+0x3a>
      {
        pHandle->wIntegralTerm = pHandle->wUpperIntegralLimit;
      }
      else if (wIntegral_sum_temp < pHandle->wLowerIntegralLimit)
 8005e14:	691c      	ldr	r4, [r3, #16]
 8005e16:	4574      	cmp	r4, lr
 8005e18:	dd1d      	ble.n	8005e56 <PI_Controller+0x76>
    /* WARNING: the below instruction is not MISRA compliant, user should verify
               that Cortex-M3 assembly instruction ASR (arithmetic shift right)
               is used by the compiler to perform the shifts (instead of LSR
               logical shift right)*/
    //cstat !MISRAC2012-Rule-1.3_n !ATH-shift-neg !MISRAC2012-Rule-10.1_R6
    wOutput_32 = (wProportional_Term >> pHandle->hKpDivisorPOW2) + (pHandle->wIntegralTerm >> pHandle->hKiDivisorPOW2);
 8005e1a:	8b99      	ldrh	r1, [r3, #28]
 8005e1c:	410a      	asrs	r2, r1
 8005e1e:	8bd9      	ldrh	r1, [r3, #30]
 8005e20:	fa44 f101 	asr.w	r1, r4, r1
 8005e24:	440a      	add	r2, r1
#else
    wOutput_32 = (wProportional_Term / (int32_t)pHandle->hKpDivisor)
              + (pHandle->wIntegralTerm / (int32_t)pHandle->hKiDivisor);
#endif

    if (wOutput_32 > hUpperOutputLimit)
 8005e26:	4290      	cmp	r0, r2
 8005e28:	da03      	bge.n	8005e32 <PI_Controller+0x52>
    {
      wDischarge = hUpperOutputLimit - wOutput_32;
 8005e2a:	1a82      	subs	r2, r0, r2
    else
    {
      /* Nothing to do here */
    }

    pHandle->wIntegralTerm += wDischarge;
 8005e2c:	4414      	add	r4, r2
 8005e2e:	609c      	str	r4, [r3, #8]
    returnValue = (int16_t)wOutput_32;
#ifdef NULL_PTR_CHECK_PID_REG
  }
#endif
  return (returnValue);
}
 8005e30:	bd30      	pop	{r4, r5, pc}
    else if (wOutput_32 < hLowerOutputLimit)
 8005e32:	4594      	cmp	ip, r2
      wDischarge = hLowerOutputLimit - wOutput_32;
 8005e34:	bfc5      	ittet	gt
 8005e36:	ebac 0202 	subgt.w	r2, ip, r2
    pHandle->wIntegralTerm += wDischarge;
 8005e3a:	18a4      	addgt	r4, r4, r2
    returnValue = (int16_t)wOutput_32;
 8005e3c:	b210      	sxthle	r0, r2
      wOutput_32 = hLowerOutputLimit;
 8005e3e:	4660      	movgt	r0, ip
    pHandle->wIntegralTerm += wDischarge;
 8005e40:	609c      	str	r4, [r3, #8]
}
 8005e42:	bd30      	pop	{r4, r5, pc}
        if (pHandle->wIntegralTerm > 0)
 8005e44:	2d00      	cmp	r5, #0
 8005e46:	dde3      	ble.n	8005e10 <PI_Controller+0x30>
          if (wIntegral_Term > 0)
 8005e48:	2900      	cmp	r1, #0
 8005e4a:	dde1      	ble.n	8005e10 <PI_Controller+0x30>
      if (wIntegral_sum_temp > pHandle->wUpperIntegralLimit)
 8005e4c:	f06f 4100 	mvn.w	r1, #2147483648	@ 0x80000000
 8005e50:	428c      	cmp	r4, r1
 8005e52:	d1e2      	bne.n	8005e1a <PI_Controller+0x3a>
 8005e54:	46a6      	mov	lr, r4
        pHandle->wIntegralTerm = wIntegral_sum_temp;
 8005e56:	4674      	mov	r4, lr
 8005e58:	e7df      	b.n	8005e1a <PI_Controller+0x3a>
 8005e5a:	bf00      	nop
 8005e5c:	80000001 	.word	0x80000001

08005e60 <PQD_CalcElMotorPower>:
  }
  else
  {
#endif
    int32_t wAux;
    qd_t Iqd = pHandle->pFOCVars->Iqd;
 8005e60:	6882      	ldr	r2, [r0, #8]
{
 8005e62:	b500      	push	{lr}
    qd_t Vqd = pHandle->pFOCVars->Vqd;

    wAux = ((int32_t)Iqd.q * (int32_t)Vqd.q)
         + ((int32_t)Iqd.d * (int32_t)Vqd.d);
 8005e64:	89d1      	ldrh	r1, [r2, #14]
 8005e66:	f8b2 e018 	ldrh.w	lr, [r2, #24]
    wAux = ((int32_t)Iqd.q * (int32_t)Vqd.q)
 8005e6a:	8993      	ldrh	r3, [r2, #12]
 8005e6c:	f8b2 c016 	ldrh.w	ip, [r2, #22]
         + ((int32_t)Iqd.d * (int32_t)Vqd.d);
 8005e70:	fb11 f20e 	smulbb	r2, r1, lr
    wAux /= 65536;
 8005e74:	fb13 230c 	smlabb	r3, r3, ip, r2
 8005e78:	2b00      	cmp	r3, #0

    /* pHandle->hAvrgElMotorPower += (wAux - pHandle->hAvrgElMotorPower) >> 4 */
    pHandle->hAvrgElMotorPower += (int16_t)((wAux - (int32_t)pHandle->hAvrgElMotorPower) / 16);
 8005e7a:	f9b0 2000 	ldrsh.w	r2, [r0]
    wAux /= 65536;
 8005e7e:	bfbc      	itt	lt
 8005e80:	f503 437f 	addlt.w	r3, r3, #65280	@ 0xff00
 8005e84:	33ff      	addlt	r3, #255	@ 0xff
    pHandle->hAvrgElMotorPower += (int16_t)((wAux - (int32_t)pHandle->hAvrgElMotorPower) / 16);
 8005e86:	ebd2 4323 	rsbs	r3, r2, r3, asr #16
 8005e8a:	bf48      	it	mi
 8005e8c:	330f      	addmi	r3, #15
 8005e8e:	eb02 1223 	add.w	r2, r2, r3, asr #4
 8005e92:	8002      	strh	r2, [r0, #0]

#ifdef NULL_PTR_CHECK_PQD_MOT_POW_MEAS
  }
#endif
}
 8005e94:	f85d fb04 	ldr.w	pc, [sp], #4

08005e98 <PQD_Clear>:
    /* nothing to do */
  }
  else
  {
#endif
    pHandle->hAvrgElMotorPower = 0;
 8005e98:	2300      	movs	r3, #0
 8005e9a:	8003      	strh	r3, [r0, #0]
#ifdef NULL_PTR_CHECK_MOT_POW_MES
  }
#endif
}
 8005e9c:	4770      	bx	lr
 8005e9e:	bf00      	nop

08005ea0 <PQD_GetAvrgElMotorPowerW>:
  * 
  * @param pHandle pointer on the related component instance.
  * @retval float_t The average measured motor power expressed in Watts.
  */
__weak float_t PQD_GetAvrgElMotorPowerW(const PQD_MotorPowMeas_Handle_t *pHandle)
{
 8005ea0:	b510      	push	{r4, lr}
  else
  {
#endif

  /* First perform an integer multiplication, then a float one. */
  PowerW = ((float_t)pHandle->hAvrgElMotorPower * (float_t)VBS_GetAvBusVoltage_V(pHandle->pVBS)) * pHandle->ConvFact;
 8005ea2:	f9b0 3000 	ldrsh.w	r3, [r0]
 8005ea6:	ee07 3a90 	vmov	s15, r3
{
 8005eaa:	ed2d 8b02 	vpush	{d8}
 8005eae:	4604      	mov	r4, r0
  PowerW = ((float_t)pHandle->hAvrgElMotorPower * (float_t)VBS_GetAvBusVoltage_V(pHandle->pVBS)) * pHandle->ConvFact;
 8005eb0:	68c0      	ldr	r0, [r0, #12]
 8005eb2:	eeb8 8ae7 	vcvt.f32.s32	s16, s15
 8005eb6:	f7ff fbf5 	bl	80056a4 <VBS_GetAvBusVoltage_V>
 8005eba:	edd4 7a01 	vldr	s15, [r4, #4]
 8005ebe:	ee68 7a27 	vmul.f32	s15, s16, s15

#ifdef NULL_PTR_CHECK_PQD_MOT_POW_MEAS
  }
#endif
  return (PowerW);
}
 8005ec2:	ecbd 8b02 	vpop	{d8}
  PowerW = ((float_t)pHandle->hAvrgElMotorPower * (float_t)VBS_GetAvBusVoltage_V(pHandle->pVBS)) * pHandle->ConvFact;
 8005ec6:	ee00 0a10 	vmov	s0, r0
 8005eca:	eeb8 0a40 	vcvt.f32.u32	s0, s0
}
 8005ece:	ee27 0a80 	vmul.f32	s0, s15, s0
 8005ed2:	bd10      	pop	{r4, pc}

08005ed4 <startTimers>:
  *         (*) value not defined in all devices.
  * @retval State of Periphs (1 or 0).
*/
__STATIC_INLINE uint32_t LL_APB1_GRP1_IsEnabledClock(uint32_t Periphs)
{
  return (READ_BIT(RCC->APB1ENR, Periphs) == Periphs);
 8005ed4:	4b17      	ldr	r3, [pc, #92]	@ (8005f34 <startTimers+0x60>)
 8005ed6:	6c1a      	ldr	r2, [r3, #64]	@ 0x40
{
  uint32_t isTIM2ClockOn;
  uint32_t trigOut;

  isTIM2ClockOn = LL_APB1_GRP1_IsEnabledClock(LL_APB1_GRP1_PERIPH_TIM2);
  if ((uint32_t)0 == isTIM2ClockOn)
 8005ed8:	07d2      	lsls	r2, r2, #31
 8005eda:	d415      	bmi.n	8005f08 <startTimers+0x34>
  SET_BIT(RCC->APB1ENR, Periphs);
 8005edc:	6c1a      	ldr	r2, [r3, #64]	@ 0x40
 8005ede:	f042 0201 	orr.w	r2, r2, #1
 8005ee2:	641a      	str	r2, [r3, #64]	@ 0x40
  tmpreg = READ_BIT(RCC->APB1ENR, Periphs);
 8005ee4:	6c1a      	ldr	r2, [r3, #64]	@ 0x40
{
 8005ee6:	b082      	sub	sp, #8
  * @param  TIMx Timer instance
  * @retval None
  */
__STATIC_INLINE void LL_TIM_GenerateEvent_UPDATE(TIM_TypeDef *TIMx)
{
  SET_BIT(TIMx->EGR, TIM_EGR_UG);
 8005ee8:	f04f 4180 	mov.w	r1, #1073741824	@ 0x40000000
 8005eec:	f002 0201 	and.w	r2, r2, #1
 8005ef0:	9201      	str	r2, [sp, #4]
  (void)tmpreg;
 8005ef2:	9a01      	ldr	r2, [sp, #4]
 8005ef4:	694a      	ldr	r2, [r1, #20]
 8005ef6:	f042 0201 	orr.w	r2, r2, #1
 8005efa:	614a      	str	r2, [r1, #20]
  *         (*) value not defined in all devices.
  * @retval None
*/
__STATIC_INLINE void LL_APB1_GRP1_DisableClock(uint32_t Periphs)
{
  CLEAR_BIT(RCC->APB1ENR, Periphs);
 8005efc:	6c1a      	ldr	r2, [r3, #64]	@ 0x40
 8005efe:	f022 0201 	bic.w	r2, r2, #1
 8005f02:	641a      	str	r2, [r3, #64]	@ 0x40
    trigOut = LL_TIM_ReadReg(TIM2, CR2) & TIM_CR2_MMS;
    LL_TIM_SetTriggerOutput(TIM2, LL_TIM_TRGO_UPDATE);
    LL_TIM_GenerateEvent_UPDATE(TIM2);
    LL_TIM_SetTriggerOutput(TIM2, trigOut);
  }
}
 8005f04:	b002      	add	sp, #8
 8005f06:	4770      	bx	lr
    trigOut = LL_TIM_ReadReg(TIM2, CR2) & TIM_CR2_MMS;
 8005f08:	f04f 4380 	mov.w	r3, #1073741824	@ 0x40000000
 8005f0c:	685a      	ldr	r2, [r3, #4]
  MODIFY_REG(TIMx->CR2, TIM_CR2_MMS, TimerSynchronization);
 8005f0e:	6859      	ldr	r1, [r3, #4]
 8005f10:	f021 0170 	bic.w	r1, r1, #112	@ 0x70
 8005f14:	f041 0120 	orr.w	r1, r1, #32
 8005f18:	6059      	str	r1, [r3, #4]
  SET_BIT(TIMx->EGR, TIM_EGR_UG);
 8005f1a:	6959      	ldr	r1, [r3, #20]
 8005f1c:	f041 0101 	orr.w	r1, r1, #1
 8005f20:	6159      	str	r1, [r3, #20]
  MODIFY_REG(TIMx->CR2, TIM_CR2_MMS, TimerSynchronization);
 8005f22:	6859      	ldr	r1, [r3, #4]
 8005f24:	f002 0270 	and.w	r2, r2, #112	@ 0x70
 8005f28:	f021 0170 	bic.w	r1, r1, #112	@ 0x70
 8005f2c:	430a      	orrs	r2, r1
 8005f2e:	605a      	str	r2, [r3, #4]
 8005f30:	4770      	bx	lr
 8005f32:	bf00      	nop
 8005f34:	40023800 	.word	0x40023800

08005f38 <waitForPolarizationEnd>:
  {
#endif
    uint16_t hCalibrationPeriodCounter;
    uint16_t hMaxPeriodsNumber;

    hMaxPeriodsNumber = ((uint16_t)2 * NB_CONVERSIONS) * (((uint16_t)repCnt + 1U) >> 1);
 8005f38:	3201      	adds	r2, #1
{
 8005f3a:	b570      	push	{r4, r5, r6, lr}
    hMaxPeriodsNumber = ((uint16_t)2 * NB_CONVERSIONS) * (((uint16_t)repCnt + 1U) >> 1);
 8005f3c:	0852      	lsrs	r2, r2, #1
  WRITE_REG(TIMx->SR, ~(TIM_SR_CC1IF));
 8005f3e:	f06f 0602 	mvn.w	r6, #2
 8005f42:	0155      	lsls	r5, r2, #5
 8005f44:	6106      	str	r6, [r0, #16]

    /* Wait for NB_CONVERSIONS to be executed */
    LL_TIM_ClearFlag_CC1(TIMx);
    hCalibrationPeriodCounter = 0u;
 8005f46:	2200      	movs	r2, #0
    while (*cnt < NB_CONVERSIONS)
 8005f48:	f893 c000 	ldrb.w	ip, [r3]
 8005f4c:	f1bc 0f0f 	cmp.w	ip, #15
    {
      if ((uint32_t)ERROR == LL_TIM_IsActiveFlag_CC1(TIMx))
      {
        LL_TIM_ClearFlag_CC1(TIMx);
        hCalibrationPeriodCounter++;
 8005f50:	f102 0e01 	add.w	lr, r2, #1
    while (*cnt < NB_CONVERSIONS)
 8005f54:	d80c      	bhi.n	8005f70 <waitForPolarizationEnd+0x38>
  return ((READ_BIT(TIMx->SR, TIM_SR_CC1IF) == (TIM_SR_CC1IF)) ? 1UL : 0UL);
 8005f56:	6904      	ldr	r4, [r0, #16]
 8005f58:	07a4      	lsls	r4, r4, #30
 8005f5a:	d5f5      	bpl.n	8005f48 <waitForPolarizationEnd+0x10>
        hCalibrationPeriodCounter++;
 8005f5c:	fa1f f28e 	uxth.w	r2, lr
        if (hCalibrationPeriodCounter >= hMaxPeriodsNumber)
 8005f60:	4295      	cmp	r5, r2
  WRITE_REG(TIMx->SR, ~(TIM_SR_CC1IF));
 8005f62:	6106      	str	r6, [r0, #16]
 8005f64:	d8f0      	bhi.n	8005f48 <waitForPolarizationEnd+0x10>
        {
          if (*cnt < NB_CONVERSIONS)
 8005f66:	781c      	ldrb	r4, [r3, #0]
 8005f68:	2c0f      	cmp	r4, #15
 8005f6a:	d8ed      	bhi.n	8005f48 <waitForPolarizationEnd+0x10>
          {
            *SWerror = 1u;
 8005f6c:	2301      	movs	r3, #1
 8005f6e:	800b      	strh	r3, [r1, #0]
      }
    }
#ifdef NULL_PTR_CHECK_POW_COM
  }
#endif
  }
 8005f70:	bd70      	pop	{r4, r5, r6, pc}
 8005f72:	bf00      	nop

08005f74 <R3_1_GetPhaseCurrents>:
  *
  */
__weak void R3_1_GetPhaseCurrents(PWMC_Handle_t *pHdl, ab_t* pStator_Currents)
{
  PWMC_R3_1_Handle_t * pHandle = ( PWMC_R3_1_Handle_t * )pHdl;
  TIM_TypeDef * TIMx = pHandle->pParams_str->TIMx;
 8005f74:	f8d0 30a0 	ldr.w	r3, [r0, #160]	@ 0xa0
{
 8005f78:	b470      	push	{r4, r5, r6}
  ADC_TypeDef * ADCx = pHandle->pParams_str->ADCx;
 8005f7a:	e9d3 2400 	ldrd	r2, r4, [r3]
  CLEAR_BIT(TIMx->CCER, Channels);
 8005f7e:	6a23      	ldr	r3, [r4, #32]
 8005f80:	f423 5380 	bic.w	r3, r3, #4096	@ 0x1000
 8005f84:	6223      	str	r3, [r4, #32]
  /* disable ADC trigger source */
  LL_TIM_CC_DisableChannel(TIMx, LL_TIM_CHANNEL_CH4);

  bSector = ( uint8_t )( pHandle->_Super.Sector );

  hReg1 =  (ADCx->JDR1)*2;
 8005f86:	6bd3      	ldr	r3, [r2, #60]	@ 0x3c
  hReg2 =  (ADCx->JDR2)*2;
 8005f88:	6c12      	ldr	r2, [r2, #64]	@ 0x40

  switch ( bSector )
 8005f8a:	f890 407c 	ldrb.w	r4, [r0, #124]	@ 0x7c
  hReg1 =  (ADCx->JDR1)*2;
 8005f8e:	005b      	lsls	r3, r3, #1
  hReg2 =  (ADCx->JDR2)*2;
 8005f90:	0052      	lsls	r2, r2, #1
  hReg1 =  (ADCx->JDR1)*2;
 8005f92:	b29b      	uxth	r3, r3
  hReg2 =  (ADCx->JDR2)*2;
 8005f94:	b292      	uxth	r2, r2
  switch ( bSector )
 8005f96:	2c05      	cmp	r4, #5
 8005f98:	f200 809b 	bhi.w	80060d2 <R3_1_GetPhaseCurrents+0x15e>
 8005f9c:	e8df f004 	tbb	[pc, r4]
 8005fa0:	0323233f 	.word	0x0323233f
 8005fa4:	3f03      	.short	0x3f03
    case SECTOR_4:
    case SECTOR_5:
    {
      /* Current on Phase C is not accessible     */
      /* Ia = PhaseAOffset - ADC converted value) */
      wAux = ( int32_t )( pHandle->PhaseAOffset ) - ( int32_t )( hReg1 );
 8005fa6:	f8d0 4088 	ldr.w	r4, [r0, #136]	@ 0x88
 8005faa:	1ae4      	subs	r4, r4, r3
      /* Saturation of Ia */
      if ( wAux < -INT16_MAX )
 8005fac:	4b4d      	ldr	r3, [pc, #308]	@ (80060e4 <R3_1_GetPhaseCurrents+0x170>)
 8005fae:	429c      	cmp	r4, r3
 8005fb0:	da64      	bge.n	800607c <R3_1_GetPhaseCurrents+0x108>
      {
        pStator_Currents->a = ( int16_t )wAux;
      }

      /* Ib = PhaseBOffset - ADC converted value) */
        wAux = ( int32_t )( pHandle->PhaseBOffset ) - ( int32_t )( hReg2 );
 8005fb2:	f8d0 408c 	ldr.w	r4, [r0, #140]	@ 0x8c
 8005fb6:	eba4 0c02 	sub.w	ip, r4, r2

      /* Saturation of Ib */
      if ( wAux < -INT16_MAX )
 8005fba:	4c4a      	ldr	r4, [pc, #296]	@ (80060e4 <R3_1_GetPhaseCurrents+0x170>)
 8005fbc:	45a4      	cmp	ip, r4
    default:
    {
    }
    break;
  }
  pStator_Currents->a = -pStator_Currents->a;
 8005fbe:	b29b      	uxth	r3, r3
      if ( wAux < -INT16_MAX )
 8005fc0:	db49      	blt.n	8006056 <R3_1_GetPhaseCurrents+0xe2>
      else  if ( wAux > INT16_MAX )
 8005fc2:	f5bc 4f00 	cmp.w	ip, #32768	@ 0x8000
 8005fc6:	db77      	blt.n	80060b8 <R3_1_GetPhaseCurrents+0x144>
  pStator_Currents->a = -pStator_Currents->a;
 8005fc8:	425d      	negs	r5, r3
 8005fca:	b22d      	sxth	r5, r5
 8005fcc:	f647 7cff 	movw	ip, #32767	@ 0x7fff
  pStator_Currents->b = -pStator_Currents->b;
  pHandle->_Super.Ia = pStator_Currents->a;
  pHandle->_Super.Ib = pStator_Currents->b;
  pHandle->_Super.Ic = -pStator_Currents->a - pStator_Currents->b;
 8005fd0:	4463      	add	r3, ip
  pStator_Currents->a = -pStator_Currents->a;
 8005fd2:	800d      	strh	r5, [r1, #0]
  pStator_Currents->b = -pStator_Currents->b;
 8005fd4:	804c      	strh	r4, [r1, #2]
  pHandle->_Super.Ia = pStator_Currents->a;
 8005fd6:	f8a0 5062 	strh.w	r5, [r0, #98]	@ 0x62
  pHandle->_Super.Ib = pStator_Currents->b;
 8005fda:	f8a0 4064 	strh.w	r4, [r0, #100]	@ 0x64
  pHandle->_Super.Ic = -pStator_Currents->a - pStator_Currents->b;
 8005fde:	f8a0 3066 	strh.w	r3, [r0, #102]	@ 0x66
}
 8005fe2:	bc70      	pop	{r4, r5, r6}
 8005fe4:	4770      	bx	lr
      wAux = ( int32_t )( pHandle->PhaseAOffset ) - ( int32_t )( hReg1 );
 8005fe6:	f8d0 4088 	ldr.w	r4, [r0, #136]	@ 0x88
      if ( wAux < -INT16_MAX )
 8005fea:	4e3e      	ldr	r6, [pc, #248]	@ (80060e4 <R3_1_GetPhaseCurrents+0x170>)
      wAux = ( int32_t )( pHandle->PhaseAOffset ) - ( int32_t )( hReg1 );
 8005fec:	1ae4      	subs	r4, r4, r3
      if ( wAux < -INT16_MAX )
 8005fee:	42b4      	cmp	r4, r6
 8005ff0:	db3e      	blt.n	8006070 <R3_1_GetPhaseCurrents+0xfc>
      else  if ( wAux > INT16_MAX )
 8005ff2:	f5b4 4f00 	cmp.w	r4, #32768	@ 0x8000
 8005ff6:	da55      	bge.n	80060a4 <R3_1_GetPhaseCurrents+0x130>
  pStator_Currents->a = -pStator_Currents->a;
 8005ff8:	b2a3      	uxth	r3, r4
 8005ffa:	425d      	negs	r5, r3
 8005ffc:	b22d      	sxth	r5, r5
      wAux = -wAux -  ( int32_t )pStator_Currents->a;
 8005ffe:	f8d0 6090 	ldr.w	r6, [r0, #144]	@ 0x90
 8006002:	1b92      	subs	r2, r2, r6
 8006004:	1b12      	subs	r2, r2, r4
      if ( wAux > INT16_MAX )
 8006006:	f5b2 4f00 	cmp.w	r2, #32768	@ 0x8000
 800600a:	da3e      	bge.n	800608a <R3_1_GetPhaseCurrents+0x116>
      else  if ( wAux < -INT16_MAX )
 800600c:	f512 4f00 	cmn.w	r2, #32768	@ 0x8000
 8006010:	dd43      	ble.n	800609a <R3_1_GetPhaseCurrents+0x126>
  pStator_Currents->b = -pStator_Currents->b;
 8006012:	fa1f fc82 	uxth.w	ip, r2
 8006016:	f1cc 0400 	rsb	r4, ip, #0
 800601a:	b224      	sxth	r4, r4
 800601c:	e7d8      	b.n	8005fd0 <R3_1_GetPhaseCurrents+0x5c>
      wAux = ( int32_t )( pHandle->PhaseBOffset ) - ( int32_t )( hReg1 );
 800601e:	f8d0 508c 	ldr.w	r5, [r0, #140]	@ 0x8c
 8006022:	1aed      	subs	r5, r5, r3
      if ( wAux < -INT16_MAX )
 8006024:	4b2f      	ldr	r3, [pc, #188]	@ (80060e4 <R3_1_GetPhaseCurrents+0x170>)
 8006026:	429d      	cmp	r5, r3
 8006028:	db1c      	blt.n	8006064 <R3_1_GetPhaseCurrents+0xf0>
      else  if ( wAux > INT16_MAX )
 800602a:	f5b5 4f00 	cmp.w	r5, #32768	@ 0x8000
 800602e:	da3e      	bge.n	80060ae <R3_1_GetPhaseCurrents+0x13a>
  pStator_Currents->b = -pStator_Currents->b;
 8006030:	fa1f fc85 	uxth.w	ip, r5
 8006034:	f1cc 0400 	rsb	r4, ip, #0
 8006038:	b224      	sxth	r4, r4
      wAux = -wAux - ( int32_t )pStator_Currents->b;
 800603a:	f8d0 3090 	ldr.w	r3, [r0, #144]	@ 0x90
 800603e:	1ad3      	subs	r3, r2, r3
 8006040:	1b5b      	subs	r3, r3, r5
      if ( wAux > INT16_MAX )
 8006042:	f5b3 4f00 	cmp.w	r3, #32768	@ 0x8000
 8006046:	da24      	bge.n	8006092 <R3_1_GetPhaseCurrents+0x11e>
      else  if ( wAux < -INT16_MAX )
 8006048:	f513 4f00 	cmn.w	r3, #32768	@ 0x8000
 800604c:	dd3c      	ble.n	80060c8 <R3_1_GetPhaseCurrents+0x154>
  pStator_Currents->a = -pStator_Currents->a;
 800604e:	b29b      	uxth	r3, r3
 8006050:	425d      	negs	r5, r3
 8006052:	b22d      	sxth	r5, r5
 8006054:	e7bc      	b.n	8005fd0 <R3_1_GetPhaseCurrents+0x5c>
 8006056:	425d      	negs	r5, r3
 8006058:	b22d      	sxth	r5, r5
 800605a:	f647 74ff 	movw	r4, #32767	@ 0x7fff
 800605e:	f248 0c01 	movw	ip, #32769	@ 0x8001
 8006062:	e7b5      	b.n	8005fd0 <R3_1_GetPhaseCurrents+0x5c>
 8006064:	f647 74ff 	movw	r4, #32767	@ 0x7fff
 8006068:	461d      	mov	r5, r3
 800606a:	f248 0c01 	movw	ip, #32769	@ 0x8001
 800606e:	e7e4      	b.n	800603a <R3_1_GetPhaseCurrents+0xc6>
 8006070:	f647 75ff 	movw	r5, #32767	@ 0x7fff
 8006074:	4634      	mov	r4, r6
 8006076:	f248 0301 	movw	r3, #32769	@ 0x8001
 800607a:	e7c0      	b.n	8005ffe <R3_1_GetPhaseCurrents+0x8a>
      else  if ( wAux > INT16_MAX )
 800607c:	f5b4 4f00 	cmp.w	r4, #32768	@ 0x8000
        pStator_Currents->a = ( int16_t )wAux;
 8006080:	bfb4      	ite	lt
 8006082:	b223      	sxthlt	r3, r4
 8006084:	f647 73ff 	movwge	r3, #32767	@ 0x7fff
 8006088:	e793      	b.n	8005fb2 <R3_1_GetPhaseCurrents+0x3e>
 800608a:	4c16      	ldr	r4, [pc, #88]	@ (80060e4 <R3_1_GetPhaseCurrents+0x170>)
 800608c:	f647 7cff 	movw	ip, #32767	@ 0x7fff
 8006090:	e79e      	b.n	8005fd0 <R3_1_GetPhaseCurrents+0x5c>
 8006092:	4d14      	ldr	r5, [pc, #80]	@ (80060e4 <R3_1_GetPhaseCurrents+0x170>)
 8006094:	f647 73ff 	movw	r3, #32767	@ 0x7fff
 8006098:	e79a      	b.n	8005fd0 <R3_1_GetPhaseCurrents+0x5c>
 800609a:	f647 74ff 	movw	r4, #32767	@ 0x7fff
 800609e:	f248 0c01 	movw	ip, #32769	@ 0x8001
 80060a2:	e795      	b.n	8005fd0 <R3_1_GetPhaseCurrents+0x5c>
 80060a4:	f647 73ff 	movw	r3, #32767	@ 0x7fff
 80060a8:	4635      	mov	r5, r6
 80060aa:	461c      	mov	r4, r3
 80060ac:	e7a7      	b.n	8005ffe <R3_1_GetPhaseCurrents+0x8a>
 80060ae:	f647 7cff 	movw	ip, #32767	@ 0x7fff
 80060b2:	461c      	mov	r4, r3
 80060b4:	4665      	mov	r5, ip
 80060b6:	e7c0      	b.n	800603a <R3_1_GetPhaseCurrents+0xc6>
  pStator_Currents->b = -pStator_Currents->b;
 80060b8:	fa1f fc8c 	uxth.w	ip, ip
  pStator_Currents->a = -pStator_Currents->a;
 80060bc:	425d      	negs	r5, r3
  pStator_Currents->b = -pStator_Currents->b;
 80060be:	f1cc 0400 	rsb	r4, ip, #0
  pStator_Currents->a = -pStator_Currents->a;
 80060c2:	b22d      	sxth	r5, r5
  pStator_Currents->b = -pStator_Currents->b;
 80060c4:	b224      	sxth	r4, r4
 80060c6:	e783      	b.n	8005fd0 <R3_1_GetPhaseCurrents+0x5c>
 80060c8:	f647 75ff 	movw	r5, #32767	@ 0x7fff
 80060cc:	f248 0301 	movw	r3, #32769	@ 0x8001
 80060d0:	e77e      	b.n	8005fd0 <R3_1_GetPhaseCurrents+0x5c>
  pStator_Currents->a = -pStator_Currents->a;
 80060d2:	880b      	ldrh	r3, [r1, #0]
  pStator_Currents->b = -pStator_Currents->b;
 80060d4:	f8b1 c002 	ldrh.w	ip, [r1, #2]
  pStator_Currents->a = -pStator_Currents->a;
 80060d8:	425d      	negs	r5, r3
  pStator_Currents->b = -pStator_Currents->b;
 80060da:	f1cc 0400 	rsb	r4, ip, #0
  pStator_Currents->a = -pStator_Currents->a;
 80060de:	b22d      	sxth	r5, r5
  pStator_Currents->b = -pStator_Currents->b;
 80060e0:	b224      	sxth	r4, r4
 80060e2:	e775      	b.n	8005fd0 <R3_1_GetPhaseCurrents+0x5c>
 80060e4:	ffff8001 	.word	0xffff8001

080060e8 <R3_1_HFCurrentsCalibrationAB>:
  *         of phase A and B in ab_t format.
  */
__weak void R3_1_HFCurrentsCalibrationAB( PWMC_Handle_t * pHdl, ab_t * pStator_Currents )
{
  PWMC_R3_1_Handle_t * pHandle = (PWMC_R3_1_Handle_t *) pHdl;
  TIM_TypeDef * TIMx = pHandle->pParams_str->TIMx;
 80060e8:	f8d0 30a0 	ldr.w	r3, [r0, #160]	@ 0xa0
{
 80060ec:	b430      	push	{r4, r5}
  ADC_TypeDef * ADCx = pHandle->pParams_str->ADCx;
 80060ee:	e9d3 4200 	ldrd	r4, r2, [r3]
 80060f2:	6a13      	ldr	r3, [r2, #32]
 80060f4:	f423 5380 	bic.w	r3, r3, #4096	@ 0x1000
 80060f8:	6213      	str	r3, [r2, #32]
  
  /* disable ADC trigger source */
  LL_TIM_CC_DisableChannel(TIMx, LL_TIM_CHANNEL_CH4);

  if ( pHandle->PolarizationCounter < NB_CONVERSIONS )
 80060fa:	f890 309f 	ldrb.w	r3, [r0, #159]	@ 0x9f
 80060fe:	2b0f      	cmp	r3, #15
 8006100:	d80f      	bhi.n	8006122 <R3_1_HFCurrentsCalibrationAB+0x3a>
  {
    pHandle->PhaseAOffset += ADCx->JDR1;
 8006102:	6be2      	ldr	r2, [r4, #60]	@ 0x3c
 8006104:	f8d0 3088 	ldr.w	r3, [r0, #136]	@ 0x88
    pHandle->PhaseBOffset += ADCx->JDR2;
 8006108:	6c25      	ldr	r5, [r4, #64]	@ 0x40
    pHandle->PhaseAOffset += ADCx->JDR1;
 800610a:	189c      	adds	r4, r3, r2
    pHandle->PhaseBOffset += ADCx->JDR2;
 800610c:	f8d0 208c 	ldr.w	r2, [r0, #140]	@ 0x8c
    pHandle->PolarizationCounter++;
 8006110:	f890 309f 	ldrb.w	r3, [r0, #159]	@ 0x9f
    pHandle->PhaseBOffset += ADCx->JDR2;
 8006114:	442a      	add	r2, r5
    pHandle->PolarizationCounter++;
 8006116:	3301      	adds	r3, #1
    pHandle->PhaseBOffset += ADCx->JDR2;
 8006118:	e9c0 4222 	strd	r4, r2, [r0, #136]	@ 0x88
    pHandle->PolarizationCounter++;
 800611c:	b2db      	uxtb	r3, r3
 800611e:	f880 309f 	strb.w	r3, [r0, #159]	@ 0x9f
  }

  /* during offset calibration no current is flowing in the phases */
  pStator_Currents->a = 0;
 8006122:	2300      	movs	r3, #0
  pStator_Currents->b = 0;
}
 8006124:	bc30      	pop	{r4, r5}
  pStator_Currents->a = 0;
 8006126:	600b      	str	r3, [r1, #0]
}
 8006128:	4770      	bx	lr
 800612a:	bf00      	nop

0800612c <R3_1_HFCurrentsCalibrationC>:
  *         of phase A and B in ab_t format.
  */
__weak void R3_1_HFCurrentsCalibrationC(PWMC_Handle_t *pHdl, ab_t* pStator_Currents)
{
  PWMC_R3_1_Handle_t *pHandle = (PWMC_R3_1_Handle_t *)pHdl;
  TIM_TypeDef * TIMx = pHandle->pParams_str->TIMx;
 800612c:	f8d0 30a0 	ldr.w	r3, [r0, #160]	@ 0xa0
{
 8006130:	b410      	push	{r4}
  ADC_TypeDef * ADCx = pHandle->pParams_str->ADCx;
 8006132:	e9d3 4200 	ldrd	r4, r2, [r3]
 8006136:	6a13      	ldr	r3, [r2, #32]
 8006138:	f423 5380 	bic.w	r3, r3, #4096	@ 0x1000
 800613c:	6213      	str	r3, [r2, #32]

  /* disable ADC trigger source */
  LL_TIM_CC_DisableChannel(TIMx, LL_TIM_CHANNEL_CH4);

  if ( pHandle->PolarizationCounter < NB_CONVERSIONS )
 800613e:	f890 309f 	ldrb.w	r3, [r0, #159]	@ 0x9f
 8006142:	2b0f      	cmp	r3, #15
 8006144:	d80b      	bhi.n	800615e <R3_1_HFCurrentsCalibrationC+0x32>
  {
    pHandle->PhaseCOffset += ADCx->JDR2;
 8006146:	6c24      	ldr	r4, [r4, #64]	@ 0x40
    pHandle->PolarizationCounter++;
 8006148:	f890 309f 	ldrb.w	r3, [r0, #159]	@ 0x9f
    pHandle->PhaseCOffset += ADCx->JDR2;
 800614c:	f8d0 2090 	ldr.w	r2, [r0, #144]	@ 0x90
    pHandle->PolarizationCounter++;
 8006150:	3301      	adds	r3, #1
    pHandle->PhaseCOffset += ADCx->JDR2;
 8006152:	4422      	add	r2, r4
    pHandle->PolarizationCounter++;
 8006154:	b2db      	uxtb	r3, r3
    pHandle->PhaseCOffset += ADCx->JDR2;
 8006156:	f8c0 2090 	str.w	r2, [r0, #144]	@ 0x90
    pHandle->PolarizationCounter++;
 800615a:	f880 309f 	strb.w	r3, [r0, #159]	@ 0x9f
  }

  /* during offset calibration no current is flowing in the phases */
  pStator_Currents->a = 0;
 800615e:	2300      	movs	r3, #0
  pStator_Currents->b = 0;
}
 8006160:	f85d 4b04 	ldr.w	r4, [sp], #4
  pStator_Currents->a = 0;
 8006164:	600b      	str	r3, [r1, #0]
}
 8006166:	4770      	bx	lr

08006168 <R3_1_SwitchOnPWM>:
  * @param  pHdl: Handler of the current instance of the PWM component.
  */
__weak void R3_1_SwitchOnPWM(PWMC_Handle_t *pHdl)
{  
  PWMC_R3_1_Handle_t *pHandle = (PWMC_R3_1_Handle_t *)pHdl;
  TIM_TypeDef*  TIMx = pHandle->pParams_str->TIMx;
 8006168:	f8d0 30a0 	ldr.w	r3, [r0, #160]	@ 0xa0

  pHandle->_Super.TurnOnLowSidesAction = false;
  
  /* Set all duty to 50% */
  LL_TIM_OC_SetCompareCH1(TIMx, (uint32_t)(pHandle->Half_PWMPeriod  >> 1));
 800616c:	f8b0 209c 	ldrh.w	r2, [r0, #156]	@ 0x9c
  TIM_TypeDef*  TIMx = pHandle->pParams_str->TIMx;
 8006170:	685b      	ldr	r3, [r3, #4]
  LL_TIM_OC_SetCompareCH1(TIMx, (uint32_t)(pHandle->Half_PWMPeriod  >> 1));
 8006172:	0851      	lsrs	r1, r2, #1
  pHandle->_Super.TurnOnLowSidesAction = false;
 8006174:	f04f 0c00 	mov.w	ip, #0
{  
 8006178:	b5f0      	push	{r4, r5, r6, r7, lr}
  pHandle->_Super.TurnOnLowSidesAction = false;
 800617a:	f880 c07e 	strb.w	ip, [r0, #126]	@ 0x7e
  LL_TIM_OC_SetCompareCH2(TIMx, (uint32_t)(pHandle->Half_PWMPeriod  >> 1));
  LL_TIM_OC_SetCompareCH3(TIMx, (uint32_t)(pHandle->Half_PWMPeriod  >> 1));
  LL_TIM_OC_SetCompareCH4(TIMx, (uint32_t)(pHandle->Half_PWMPeriod - 5u));
 800617e:	3a05      	subs	r2, #5
  WRITE_REG(TIMx->CCR1, CompareValue);
 8006180:	6359      	str	r1, [r3, #52]	@ 0x34
  WRITE_REG(TIMx->CCR2, CompareValue);
 8006182:	6399      	str	r1, [r3, #56]	@ 0x38
  WRITE_REG(TIMx->CCR3, CompareValue);
 8006184:	63d9      	str	r1, [r3, #60]	@ 0x3c
  WRITE_REG(TIMx->SR, ~(TIM_SR_UIF));
 8006186:	f06f 0101 	mvn.w	r1, #1
  WRITE_REG(TIMx->CCR4, CompareValue);
 800618a:	641a      	str	r2, [r3, #64]	@ 0x40
  WRITE_REG(TIMx->SR, ~(TIM_SR_UIF));
 800618c:	6119      	str	r1, [r3, #16]
  return ((READ_BIT(TIMx->SR, TIM_SR_UIF) == (TIM_SR_UIF)) ? 1UL : 0UL);
 800618e:	691a      	ldr	r2, [r3, #16]
 8006190:	07d2      	lsls	r2, r2, #31
 8006192:	d5fc      	bpl.n	800618e <R3_1_SwitchOnPWM+0x26>
  WRITE_REG(TIMx->SR, ~(TIM_SR_UIF));
 8006194:	f06f 0201 	mvn.w	r2, #1
 8006198:	611a      	str	r2, [r3, #16]
  {}
  /* Clear Update Flag */
  LL_TIM_ClearFlag_UPDATE(TIMx);

  /* Main PWM Output Enable */
  TIMx->BDTR |= LL_TIM_OSSI_ENABLE;
 800619a:	6c5a      	ldr	r2, [r3, #68]	@ 0x44
 800619c:	f442 6280 	orr.w	r2, r2, #1024	@ 0x400
 80061a0:	645a      	str	r2, [r3, #68]	@ 0x44
  SET_BIT(TIMx->BDTR, TIM_BDTR_MOE);
 80061a2:	6c5a      	ldr	r2, [r3, #68]	@ 0x44
 80061a4:	f442 4200 	orr.w	r2, r2, #32768	@ 0x8000
 80061a8:	645a      	str	r2, [r3, #68]	@ 0x44
  LL_TIM_EnableAllOutputs( TIMx );

  if ( ( pHandle->_Super.LowSideOutputs ) == ES_GPIO )
 80061aa:	f890 207d 	ldrb.w	r2, [r0, #125]	@ 0x7d
 80061ae:	2a02      	cmp	r2, #2
 80061b0:	d007      	beq.n	80061c2 <R3_1_SwitchOnPWM+0x5a>
  WRITE_REG(TIMx->SR, ~(TIM_SR_UIF));
 80061b2:	f06f 0201 	mvn.w	r2, #1
 80061b6:	611a      	str	r2, [r3, #16]
  SET_BIT(TIMx->DIER, TIM_DIER_UIE);
 80061b8:	68da      	ldr	r2, [r3, #12]
 80061ba:	f042 0201 	orr.w	r2, r2, #1
 80061be:	60da      	str	r2, [r3, #12]
  LL_TIM_ClearFlag_UPDATE( TIMx );
  /* Enable Update IRQ */
  LL_TIM_EnableIT_UPDATE( TIMx );

  return; 
}
 80061c0:	bdf0      	pop	{r4, r5, r6, r7, pc}
    if ((TIMx->CCER & TIMxCCER_MASK_CH123) != 0u)
 80061c2:	6a1d      	ldr	r5, [r3, #32]
      LL_GPIO_SetOutputPin(pHandle->_Super.pwm_en_u_port, pHandle->_Super.pwm_en_u_pin);
 80061c4:	f8d0 e03c 	ldr.w	lr, [r0, #60]	@ 0x3c
 80061c8:	f8b0 4048 	ldrh.w	r4, [r0, #72]	@ 0x48
      LL_GPIO_SetOutputPin(pHandle->_Super.pwm_en_v_port, pHandle->_Super.pwm_en_v_pin);
 80061cc:	6c07      	ldr	r7, [r0, #64]	@ 0x40
 80061ce:	f8b0 104a 	ldrh.w	r1, [r0, #74]	@ 0x4a
      LL_GPIO_SetOutputPin(pHandle->_Super.pwm_en_w_port, pHandle->_Super.pwm_en_w_pin);
 80061d2:	6c46      	ldr	r6, [r0, #68]	@ 0x44
 80061d4:	f8b0 204c 	ldrh.w	r2, [r0, #76]	@ 0x4c
    if ((TIMx->CCER & TIMxCCER_MASK_CH123) != 0u)
 80061d8:	f240 5c55 	movw	ip, #1365	@ 0x555
 80061dc:	ea15 0f0c 	tst.w	r5, ip
 80061e0:	d004      	beq.n	80061ec <R3_1_SwitchOnPWM+0x84>
  *         @arg @ref LL_GPIO_PIN_ALL
  * @retval None
  */
__STATIC_INLINE void LL_GPIO_SetOutputPin(GPIO_TypeDef *GPIOx, uint32_t PinMask)
{
  WRITE_REG(GPIOx->BSRR, PinMask);
 80061e2:	f8ce 4018 	str.w	r4, [lr, #24]
 80061e6:	61b9      	str	r1, [r7, #24]
 80061e8:	61b2      	str	r2, [r6, #24]
}
 80061ea:	e7e2      	b.n	80061b2 <R3_1_SwitchOnPWM+0x4a>
  *         @arg @ref LL_GPIO_PIN_ALL
  * @retval None
  */
__STATIC_INLINE void LL_GPIO_ResetOutputPin(GPIO_TypeDef *GPIOx, uint32_t PinMask)
{
  WRITE_REG(GPIOx->BSRR, (PinMask << 16));
 80061ec:	0424      	lsls	r4, r4, #16
 80061ee:	0409      	lsls	r1, r1, #16
 80061f0:	0412      	lsls	r2, r2, #16
 80061f2:	f8ce 4018 	str.w	r4, [lr, #24]
 80061f6:	61b9      	str	r1, [r7, #24]
 80061f8:	61b2      	str	r2, [r6, #24]
}
 80061fa:	e7da      	b.n	80061b2 <R3_1_SwitchOnPWM+0x4a>

080061fc <R3_1_SwitchOffPWM>:
  * @param  pHdl: Handler of the current instance of the PWM component.
  */
__weak void R3_1_SwitchOffPWM(PWMC_Handle_t *pHdl)
{
  PWMC_R3_1_Handle_t *pHandle = (PWMC_R3_1_Handle_t *)pHdl;
  TIM_TypeDef*  TIMx = pHandle->pParams_str->TIMx;
 80061fc:	f8d0 30a0 	ldr.w	r3, [r0, #160]	@ 0xa0

  pHandle->_Super.TurnOnLowSidesAction = false;

  /* Main PWM Output Disable */
  LL_TIM_DisableAllOutputs(TIMx);
  if (pHandle->_Super.BrakeActionLock == true)
 8006200:	f890 1085 	ldrb.w	r1, [r0, #133]	@ 0x85
  TIM_TypeDef*  TIMx = pHandle->pParams_str->TIMx;
 8006204:	685a      	ldr	r2, [r3, #4]
  CLEAR_BIT(TIMx->DIER, TIM_DIER_UIE);
 8006206:	68d3      	ldr	r3, [r2, #12]
 8006208:	f023 0301 	bic.w	r3, r3, #1
 800620c:	60d3      	str	r3, [r2, #12]
  CLEAR_BIT(TIMx->BDTR, TIM_BDTR_MOE);
 800620e:	6c53      	ldr	r3, [r2, #68]	@ 0x44
  pHandle->_Super.TurnOnLowSidesAction = false;
 8006210:	f04f 0c00 	mov.w	ip, #0
 8006214:	f423 4300 	bic.w	r3, r3, #32768	@ 0x8000
 8006218:	f880 c07e 	strb.w	ip, [r0, #126]	@ 0x7e
 800621c:	6453      	str	r3, [r2, #68]	@ 0x44
  if (pHandle->_Super.BrakeActionLock == true)
 800621e:	b919      	cbnz	r1, 8006228 <R3_1_SwitchOffPWM+0x2c>
  {
  }
  else
  {
    if ( ( pHandle->_Super.LowSideOutputs ) == ES_GPIO )
 8006220:	f890 307d 	ldrb.w	r3, [r0, #125]	@ 0x7d
 8006224:	2b02      	cmp	r3, #2
 8006226:	d009      	beq.n	800623c <R3_1_SwitchOffPWM+0x40>
  WRITE_REG(TIMx->SR, ~(TIM_SR_UIF));
 8006228:	f06f 0301 	mvn.w	r3, #1
 800622c:	6113      	str	r3, [r2, #16]
  return ((READ_BIT(TIMx->SR, TIM_SR_UIF) == (TIM_SR_UIF)) ? 1UL : 0UL);
 800622e:	6913      	ldr	r3, [r2, #16]
 8006230:	07db      	lsls	r3, r3, #31
 8006232:	d5fc      	bpl.n	800622e <R3_1_SwitchOffPWM+0x32>
  WRITE_REG(TIMx->SR, ~(TIM_SR_UIF));
 8006234:	f06f 0301 	mvn.w	r3, #1
 8006238:	6113      	str	r3, [r2, #16]
 800623a:	4770      	bx	lr
{
 800623c:	b430      	push	{r4, r5}
    {
      LL_GPIO_ResetOutputPin(pHandle->_Super.pwm_en_u_port, pHandle->_Super.pwm_en_u_pin);
 800623e:	f8b0 4048 	ldrh.w	r4, [r0, #72]	@ 0x48
  WRITE_REG(GPIOx->BSRR, (PinMask << 16));
 8006242:	6bc5      	ldr	r5, [r0, #60]	@ 0x3c
      LL_GPIO_ResetOutputPin(pHandle->_Super.pwm_en_v_port, pHandle->_Super.pwm_en_v_pin);
 8006244:	f8b0 104a 	ldrh.w	r1, [r0, #74]	@ 0x4a
      LL_GPIO_ResetOutputPin(pHandle->_Super.pwm_en_w_port, pHandle->_Super.pwm_en_w_pin);
 8006248:	f8b0 304c 	ldrh.w	r3, [r0, #76]	@ 0x4c
 800624c:	0424      	lsls	r4, r4, #16
 800624e:	61ac      	str	r4, [r5, #24]
 8006250:	e9d0 4010 	ldrd	r4, r0, [r0, #64]	@ 0x40
 8006254:	041b      	lsls	r3, r3, #16
 8006256:	0409      	lsls	r1, r1, #16
 8006258:	61a1      	str	r1, [r4, #24]
 800625a:	6183      	str	r3, [r0, #24]
 800625c:	f06f 0301 	mvn.w	r3, #1
 8006260:	6113      	str	r3, [r2, #16]
  return ((READ_BIT(TIMx->SR, TIM_SR_UIF) == (TIM_SR_UIF)) ? 1UL : 0UL);
 8006262:	6913      	ldr	r3, [r2, #16]
 8006264:	07d9      	lsls	r1, r3, #31
 8006266:	d5fc      	bpl.n	8006262 <R3_1_SwitchOffPWM+0x66>
  WRITE_REG(TIMx->SR, ~(TIM_SR_UIF));
 8006268:	f06f 0301 	mvn.w	r3, #1
  while (LL_TIM_IsActiveFlag_UPDATE(TIMx) == 0)
  {}
  LL_TIM_ClearFlag_UPDATE(TIMx);

  return;
}
 800626c:	bc30      	pop	{r4, r5}
 800626e:	6113      	str	r3, [r2, #16]
 8006270:	4770      	bx	lr
 8006272:	bf00      	nop

08006274 <R3_1_RLGetPhaseCurrents>:
  */
void R3_1_RLGetPhaseCurrents(PWMC_Handle_t *pHdl,ab_t* pStator_Currents)
{

  PWMC_R3_1_Handle_t *pHandle = (PWMC_R3_1_Handle_t *)pHdl;
  TIM_TypeDef * TIMx = pHandle->pParams_str->TIMx;
 8006274:	f8d0 20a0 	ldr.w	r2, [r0, #160]	@ 0xa0
  int32_t wAux;
  
  /* disable ADC trigger source */
  LL_TIM_CC_DisableChannel(TIMx, LL_TIM_CHANNEL_CH4);
  
  wAux = (int32_t)( pHandle->PhaseBOffset ) - (int32_t)((ADCx->JDR2)*2u);
 8006278:	f8d0 308c 	ldr.w	r3, [r0, #140]	@ 0x8c
{
 800627c:	b410      	push	{r4}
  ADC_TypeDef * ADCx = pHandle->pParams_str->ADCx;
 800627e:	e9d2 4000 	ldrd	r4, r0, [r2]
  CLEAR_BIT(TIMx->CCER, Channels);
 8006282:	6a02      	ldr	r2, [r0, #32]
 8006284:	f422 5280 	bic.w	r2, r2, #4096	@ 0x1000
 8006288:	6202      	str	r2, [r0, #32]
  wAux = (int32_t)( pHandle->PhaseBOffset ) - (int32_t)((ADCx->JDR2)*2u);
 800628a:	6c20      	ldr	r0, [r4, #64]	@ 0x40
  
  /* Check saturation */
  if (wAux > -INT16_MAX)
 800628c:	4a0a      	ldr	r2, [pc, #40]	@ (80062b8 <R3_1_RLGetPhaseCurrents+0x44>)
  /* First value read of Phase B*/
  wAux = -wAux;
  pStator_Currents->a = ( int16_t )( wAux );
  pStator_Currents->b = ( int16_t )( wAux );

}
 800628e:	f85d 4b04 	ldr.w	r4, [sp], #4
  wAux = (int32_t)( pHandle->PhaseBOffset ) - (int32_t)((ADCx->JDR2)*2u);
 8006292:	eba3 0340 	sub.w	r3, r3, r0, lsl #1
    if (wAux < INT16_MAX)
 8006296:	f647 70ff 	movw	r0, #32767	@ 0x7fff
 800629a:	4283      	cmp	r3, r0
 800629c:	bfa8      	it	ge
 800629e:	4603      	movge	r3, r0
 80062a0:	4293      	cmp	r3, r2
 80062a2:	bfb8      	it	lt
 80062a4:	4613      	movlt	r3, r2
  wAux = -wAux;
 80062a6:	425b      	negs	r3, r3
  pStator_Currents->a = ( int16_t )( wAux );
 80062a8:	b21b      	sxth	r3, r3
 80062aa:	2200      	movs	r2, #0
 80062ac:	f363 020f 	bfi	r2, r3, #0, #16
 80062b0:	f363 421f 	bfi	r2, r3, #16, #16
 80062b4:	600a      	str	r2, [r1, #0]
}
 80062b6:	4770      	bx	lr
 80062b8:	ffff8001 	.word	0xffff8001

080062bc <R3_1_RLSwitchOnPWM>:
  * @param  pHdl: Handler of the current instance of the PWM component.
  */
void R3_1_RLSwitchOnPWM(PWMC_Handle_t *pHdl)
{
  PWMC_R3_1_Handle_t *pHandle = (PWMC_R3_1_Handle_t *)pHdl;
  TIM_TypeDef*  TIMx = pHandle->pParams_str->TIMx;
 80062bc:	f8d0 20a0 	ldr.w	r2, [r0, #160]	@ 0xa0
{
 80062c0:	b5f0      	push	{r4, r5, r6, r7, lr}
  ADC_TypeDef * ADCx = pHandle->pParams_str->ADCx;
  
  pHandle->_Super.TurnOnLowSidesAction = false;
 80062c2:	2400      	movs	r4, #0
  ADC_TypeDef * ADCx = pHandle->pParams_str->ADCx;
 80062c4:	e9d2 1300 	ldrd	r1, r3, [r2]
  pHandle->_Super.TurnOnLowSidesAction = false;
 80062c8:	f880 407e 	strb.w	r4, [r0, #126]	@ 0x7e
  /* The following while cycles ensure the identification of the nergative counting mode of TIM1
   * for correct modification of Repetition Counter value of TIM1.*/

  /* Wait the change of Counter Direction of TIM1 from Down-Direction to Up-Direction*/

  while ( ( TIMx->CR1 & DIR_MASK ) == DIR_MASK )
 80062cc:	681a      	ldr	r2, [r3, #0]
 80062ce:	06d5      	lsls	r5, r2, #27
 80062d0:	d4fc      	bmi.n	80062cc <R3_1_RLSwitchOnPWM+0x10>
  {
  }
  /* Wait the change of Counter Direction of TIM1 from Up-Direction to Down-Direction*/
  while ( ( TIMx->CR1 & DIR_MASK ) == 0u )
 80062d2:	681a      	ldr	r2, [r3, #0]
 80062d4:	06d4      	lsls	r4, r2, #27
 80062d6:	d5fc      	bpl.n	80062d2 <R3_1_RLSwitchOnPWM+0x16>
  /* Set channel 1 Compare/Capture register to 1 */
  LL_TIM_OC_SetCompareCH1(TIMx, 1u);

  /* Set channel 4 Compare/Capture register to trig ADC in the middle 
     of the PWM period */
  LL_TIM_OC_SetCompareCH4(TIMx,(( uint32_t )( pHandle->Half_PWMPeriod ) - 5u));
 80062d8:	f8b0 209c 	ldrh.w	r2, [r0, #156]	@ 0x9c
  WRITE_REG(TIMx->CCR1, CompareValue);
 80062dc:	2401      	movs	r4, #1
 80062de:	3a05      	subs	r2, #5
 80062e0:	635c      	str	r4, [r3, #52]	@ 0x34
  WRITE_REG(TIMx->CCR4, CompareValue);
 80062e2:	641a      	str	r2, [r3, #64]	@ 0x40
  WRITE_REG(TIMx->SR, ~(TIM_SR_UIF));
 80062e4:	f06f 0201 	mvn.w	r2, #1
 80062e8:	611a      	str	r2, [r3, #16]
  return ((READ_BIT(TIMx->SR, TIM_SR_UIF) == (TIM_SR_UIF)) ? 1UL : 0UL);
 80062ea:	691a      	ldr	r2, [r3, #16]
 80062ec:	07d2      	lsls	r2, r2, #31
 80062ee:	d5fc      	bpl.n	80062ea <R3_1_RLSwitchOnPWM+0x2e>
  WRITE_REG(TIMx->SR, ~(TIM_SR_UIF));
 80062f0:	f06f 0201 	mvn.w	r2, #1
 80062f4:	611a      	str	r2, [r3, #16]
  while ( LL_TIM_IsActiveFlag_UPDATE( TIMx ) == 0 )
  {}
  LL_TIM_ClearFlag_UPDATE( TIMx );
  
  /* Main PWM Output Enable */
  TIMx->BDTR |= LL_TIM_OSSI_ENABLE;
 80062f6:	6c5a      	ldr	r2, [r3, #68]	@ 0x44
 80062f8:	f442 6280 	orr.w	r2, r2, #1024	@ 0x400
 80062fc:	645a      	str	r2, [r3, #68]	@ 0x44
  SET_BIT(TIMx->BDTR, TIM_BDTR_MOE);
 80062fe:	6c5a      	ldr	r2, [r3, #68]	@ 0x44
 8006300:	f442 4200 	orr.w	r2, r2, #32768	@ 0x8000
 8006304:	645a      	str	r2, [r3, #68]	@ 0x44
  LL_TIM_EnableAllOutputs(TIMx);

  if ( ( pHandle->_Super.LowSideOutputs ) == ES_GPIO )
 8006306:	f890 207d 	ldrb.w	r2, [r0, #125]	@ 0x7d
 800630a:	2a02      	cmp	r2, #2
 800630c:	d119      	bne.n	8006342 <R3_1_RLSwitchOnPWM+0x86>
  {
    if ((TIMx->CCER & TIMxCCER_MASK_CH123) != 0u)
 800630e:	6a1e      	ldr	r6, [r3, #32]
    {
      LL_GPIO_SetOutputPin(pHandle->_Super.pwm_en_u_port, pHandle->_Super.pwm_en_u_pin);
      LL_GPIO_SetOutputPin(pHandle->_Super.pwm_en_v_port, pHandle->_Super.pwm_en_v_pin);
      LL_GPIO_ResetOutputPin(pHandle->_Super.pwm_en_w_port, pHandle->_Super.pwm_en_w_pin);
 8006310:	f8b0 204c 	ldrh.w	r2, [r0, #76]	@ 0x4c
      LL_GPIO_SetOutputPin(pHandle->_Super.pwm_en_u_port, pHandle->_Super.pwm_en_u_pin);
 8006314:	f8b0 5048 	ldrh.w	r5, [r0, #72]	@ 0x48
      LL_GPIO_SetOutputPin(pHandle->_Super.pwm_en_v_port, pHandle->_Super.pwm_en_v_pin);
 8006318:	f8b0 404a 	ldrh.w	r4, [r0, #74]	@ 0x4a
      LL_GPIO_SetOutputPin(pHandle->_Super.pwm_en_u_port, pHandle->_Super.pwm_en_u_pin);
 800631c:	f8d0 e03c 	ldr.w	lr, [r0, #60]	@ 0x3c
      LL_GPIO_SetOutputPin(pHandle->_Super.pwm_en_v_port, pHandle->_Super.pwm_en_v_pin);
 8006320:	6c07      	ldr	r7, [r0, #64]	@ 0x40
      LL_GPIO_ResetOutputPin(pHandle->_Super.pwm_en_w_port, pHandle->_Super.pwm_en_w_pin);
 8006322:	6c40      	ldr	r0, [r0, #68]	@ 0x44
    if ((TIMx->CCER & TIMxCCER_MASK_CH123) != 0u)
 8006324:	f240 5c55 	movw	ip, #1365	@ 0x555
 8006328:	ea16 0f0c 	tst.w	r6, ip
 800632c:	ea4f 4202 	mov.w	r2, r2, lsl #16
 8006330:	bf05      	ittet	eq
 8006332:	042d      	lsleq	r5, r5, #16
 8006334:	0424      	lsleq	r4, r4, #16
  WRITE_REG(GPIOx->BSRR, PinMask);
 8006336:	f8ce 5018 	strne.w	r5, [lr, #24]
  WRITE_REG(GPIOx->BSRR, (PinMask << 16));
 800633a:	f8ce 5018 	streq.w	r5, [lr, #24]
 800633e:	61bc      	str	r4, [r7, #24]
 8006340:	6182      	str	r2, [r0, #24]
  WRITE_REG(TIMx->SR, ~(TIM_SR_UIF));
 8006342:	f06f 0201 	mvn.w	r2, #1
  WRITE_REG(ADCx->SR, ~LL_ADC_FLAG_JEOS);
 8006346:	f06f 0004 	mvn.w	r0, #4
 800634a:	6008      	str	r0, [r1, #0]
 800634c:	611a      	str	r2, [r3, #16]
  SET_BIT(TIMx->DIER, TIM_DIER_UIE);
 800634e:	68da      	ldr	r2, [r3, #12]
 8006350:	f042 0201 	orr.w	r2, r2, #1
 8006354:	60da      	str	r2, [r3, #12]

  /* enable TIMx update interrupt*/
  LL_TIM_EnableIT_UPDATE( TIMx );

  return; 
}
 8006356:	bdf0      	pop	{r4, r5, r6, r7, pc}

08006358 <R3_1_TurnOnLowSides>:
  TIM_TypeDef*  TIMx = pHandle->pParams_str->TIMx;
 8006358:	f8d0 20a0 	ldr.w	r2, [r0, #160]	@ 0xa0
 800635c:	6852      	ldr	r2, [r2, #4]
  WRITE_REG(TIMx->CCR1, CompareValue);
 800635e:	2300      	movs	r3, #0
  pHandle->_Super.TurnOnLowSidesAction = true;
 8006360:	f04f 0c01 	mov.w	ip, #1
  WRITE_REG(TIMx->SR, ~(TIM_SR_UIF));
 8006364:	f06f 0101 	mvn.w	r1, #1
 8006368:	f880 c07e 	strb.w	ip, [r0, #126]	@ 0x7e
 800636c:	6111      	str	r1, [r2, #16]
  WRITE_REG(TIMx->CCR1, CompareValue);
 800636e:	6353      	str	r3, [r2, #52]	@ 0x34
  WRITE_REG(TIMx->CCR2, CompareValue);
 8006370:	6393      	str	r3, [r2, #56]	@ 0x38
  WRITE_REG(TIMx->CCR3, CompareValue);
 8006372:	63d3      	str	r3, [r2, #60]	@ 0x3c
  return ((READ_BIT(TIMx->SR, TIM_SR_UIF) == (TIM_SR_UIF)) ? 1UL : 0UL);
 8006374:	6913      	ldr	r3, [r2, #16]
 8006376:	07db      	lsls	r3, r3, #31
 8006378:	d5fc      	bpl.n	8006374 <R3_1_TurnOnLowSides+0x1c>
  WRITE_REG(TIMx->SR, ~(TIM_SR_UIF));
 800637a:	f06f 0301 	mvn.w	r3, #1
 800637e:	6113      	str	r3, [r2, #16]
  SET_BIT(TIMx->BDTR, TIM_BDTR_MOE);
 8006380:	6c53      	ldr	r3, [r2, #68]	@ 0x44
 8006382:	f443 4300 	orr.w	r3, r3, #32768	@ 0x8000
 8006386:	6453      	str	r3, [r2, #68]	@ 0x44
  if ((pHandle->_Super.LowSideOutputs)== ES_GPIO)
 8006388:	f890 307d 	ldrb.w	r3, [r0, #125]	@ 0x7d
 800638c:	2b02      	cmp	r3, #2
 800638e:	d000      	beq.n	8006392 <R3_1_TurnOnLowSides+0x3a>
 8006390:	4770      	bx	lr
    LL_GPIO_SetOutputPin(pHandle->_Super.pwm_en_v_port, pHandle->_Super.pwm_en_v_pin);
 8006392:	e9d0 210f 	ldrd	r2, r1, [r0, #60]	@ 0x3c
{
 8006396:	b410      	push	{r4}
    LL_GPIO_SetOutputPin(pHandle->_Super.pwm_en_w_port, pHandle->_Super.pwm_en_w_pin);
 8006398:	6c43      	ldr	r3, [r0, #68]	@ 0x44
    LL_GPIO_SetOutputPin(pHandle->_Super.pwm_en_u_port, pHandle->_Super.pwm_en_u_pin);
 800639a:	f8b0 4048 	ldrh.w	r4, [r0, #72]	@ 0x48
  WRITE_REG(GPIOx->BSRR, PinMask);
 800639e:	6194      	str	r4, [r2, #24]
    LL_GPIO_SetOutputPin(pHandle->_Super.pwm_en_v_port, pHandle->_Super.pwm_en_v_pin);
 80063a0:	f8b0 404a 	ldrh.w	r4, [r0, #74]	@ 0x4a
    LL_GPIO_SetOutputPin(pHandle->_Super.pwm_en_w_port, pHandle->_Super.pwm_en_w_pin);
 80063a4:	f8b0 204c 	ldrh.w	r2, [r0, #76]	@ 0x4c
 80063a8:	618c      	str	r4, [r1, #24]
}
 80063aa:	f85d 4b04 	ldr.w	r4, [sp], #4
 80063ae:	619a      	str	r2, [r3, #24]
 80063b0:	4770      	bx	lr
 80063b2:	bf00      	nop

080063b4 <R3_1_RLTurnOnLowSides>:
  TIM_TypeDef*  TIMx = pHandle->pParams_str->TIMx;
 80063b4:	f8d0 20a0 	ldr.w	r2, [r0, #160]	@ 0xa0
 80063b8:	6852      	ldr	r2, [r2, #4]
  WRITE_REG(TIMx->CCR1, CompareValue);
 80063ba:	2100      	movs	r1, #0
  WRITE_REG(TIMx->SR, ~(TIM_SR_UIF));
 80063bc:	f06f 0301 	mvn.w	r3, #1
  WRITE_REG(TIMx->CCR1, CompareValue);
 80063c0:	6351      	str	r1, [r2, #52]	@ 0x34
  WRITE_REG(TIMx->SR, ~(TIM_SR_UIF));
 80063c2:	6113      	str	r3, [r2, #16]
  return ((READ_BIT(TIMx->SR, TIM_SR_UIF) == (TIM_SR_UIF)) ? 1UL : 0UL);
 80063c4:	6913      	ldr	r3, [r2, #16]
 80063c6:	07db      	lsls	r3, r3, #31
 80063c8:	d5fc      	bpl.n	80063c4 <R3_1_RLTurnOnLowSides+0x10>
  WRITE_REG(TIMx->SR, ~(TIM_SR_UIF));
 80063ca:	f06f 0301 	mvn.w	r3, #1
 80063ce:	6113      	str	r3, [r2, #16]
  SET_BIT(TIMx->BDTR, TIM_BDTR_MOE);
 80063d0:	6c53      	ldr	r3, [r2, #68]	@ 0x44
 80063d2:	f443 4300 	orr.w	r3, r3, #32768	@ 0x8000
 80063d6:	6453      	str	r3, [r2, #68]	@ 0x44
  if ( ( pHandle->_Super.LowSideOutputs ) == ES_GPIO )
 80063d8:	f890 307d 	ldrb.w	r3, [r0, #125]	@ 0x7d
 80063dc:	2b02      	cmp	r3, #2
 80063de:	d000      	beq.n	80063e2 <R3_1_RLTurnOnLowSides+0x2e>
 80063e0:	4770      	bx	lr
    LL_GPIO_SetOutputPin(pHandle->_Super.pwm_en_u_port, pHandle->_Super.pwm_en_u_pin);
 80063e2:	6bc1      	ldr	r1, [r0, #60]	@ 0x3c
    LL_GPIO_ResetOutputPin(pHandle->_Super.pwm_en_v_port, pHandle->_Super.pwm_en_v_pin);
 80063e4:	f8b0 204a 	ldrh.w	r2, [r0, #74]	@ 0x4a
    LL_GPIO_ResetOutputPin(pHandle->_Super.pwm_en_w_port, pHandle->_Super.pwm_en_w_pin);
 80063e8:	f8b0 304c 	ldrh.w	r3, [r0, #76]	@ 0x4c
{  
 80063ec:	b410      	push	{r4}
    LL_GPIO_SetOutputPin(pHandle->_Super.pwm_en_u_port, pHandle->_Super.pwm_en_u_pin);
 80063ee:	f8b0 4048 	ldrh.w	r4, [r0, #72]	@ 0x48
 80063f2:	618c      	str	r4, [r1, #24]
    LL_GPIO_ResetOutputPin(pHandle->_Super.pwm_en_w_port, pHandle->_Super.pwm_en_w_pin);
 80063f4:	e9d0 4110 	ldrd	r4, r1, [r0, #64]	@ 0x40
  WRITE_REG(GPIOx->BSRR, (PinMask << 16));
 80063f8:	0412      	lsls	r2, r2, #16
 80063fa:	041b      	lsls	r3, r3, #16
 80063fc:	61a2      	str	r2, [r4, #24]
}
 80063fe:	f85d 4b04 	ldr.w	r4, [sp], #4
 8006402:	618b      	str	r3, [r1, #24]
 8006404:	4770      	bx	lr
 8006406:	bf00      	nop

08006408 <R3_1_Init>:
  TIM_TypeDef*  TIMx = pHandle->pParams_str->TIMx;
 8006408:	f8d0 20a0 	ldr.w	r2, [r0, #160]	@ 0xa0
  ADC_TypeDef* ADCx  = pHandle->pParams_str->ADCx;
 800640c:	6813      	ldr	r3, [r2, #0]
  TIM_TypeDef*  TIMx = pHandle->pParams_str->TIMx;
 800640e:	6852      	ldr	r2, [r2, #4]
  CLEAR_BIT(ADCx->CR1, LL_ADC_IT_EOCS);
 8006410:	6859      	ldr	r1, [r3, #4]
{
 8006412:	b430      	push	{r4, r5}
 8006414:	f021 0120 	bic.w	r1, r1, #32
  WRITE_REG(ADCx->SR, ~LL_ADC_FLAG_EOCS);
 8006418:	f06f 0402 	mvn.w	r4, #2
  CLEAR_BIT(ADCx->CR1, LL_ADC_IT_EOCS);
 800641c:	6059      	str	r1, [r3, #4]
  WRITE_REG(ADCx->SR, ~LL_ADC_FLAG_EOCS);
 800641e:	601c      	str	r4, [r3, #0]
  CLEAR_BIT(ADCx->CR1, LL_ADC_IT_JEOS);
 8006420:	6859      	ldr	r1, [r3, #4]
  WRITE_REG(ADCx->SR, ~LL_ADC_FLAG_JEOS);
 8006422:	f06f 0404 	mvn.w	r4, #4
  CLEAR_BIT(ADCx->CR1, LL_ADC_IT_JEOS);
 8006426:	f021 0180 	bic.w	r1, r1, #128	@ 0x80
 800642a:	6059      	str	r1, [r3, #4]
  WRITE_REG(ADCx->SR, ~LL_ADC_FLAG_JEOS);
 800642c:	601c      	str	r4, [r3, #0]
  CLEAR_BIT(TIMx->CR1, TIM_CR1_CEN);
 800642e:	6811      	ldr	r1, [r2, #0]
    if ( TIMx == TIM1 )
 8006430:	4c1e      	ldr	r4, [pc, #120]	@ (80064ac <R3_1_Init+0xa4>)
 8006432:	f021 0101 	bic.w	r1, r1, #1
 8006436:	42a2      	cmp	r2, r4
 8006438:	6011      	str	r1, [r2, #0]
 800643a:	d031      	beq.n	80064a0 <R3_1_Init+0x98>
    else if ( TIMx == TIM8 )
 800643c:	491c      	ldr	r1, [pc, #112]	@ (80064b0 <R3_1_Init+0xa8>)
 800643e:	428a      	cmp	r2, r1
 8006440:	d028      	beq.n	8006494 <R3_1_Init+0x8c>
  WRITE_REG(TIMx->SR, ~(TIM_SR_BIF));
 8006442:	f06f 0180 	mvn.w	r1, #128	@ 0x80
 8006446:	6111      	str	r1, [r2, #16]
  SET_BIT(TIMx->DIER, TIM_DIER_BIE);
 8006448:	68d1      	ldr	r1, [r2, #12]
 800644a:	f041 0180 	orr.w	r1, r1, #128	@ 0x80
 800644e:	60d1      	str	r1, [r2, #12]
  SET_BIT(TIMx->CCER, Channels);
 8006450:	6a11      	ldr	r1, [r2, #32]
 8006452:	f441 61aa 	orr.w	r1, r1, #1360	@ 0x550
 8006456:	f041 0105 	orr.w	r1, r1, #5
 800645a:	6211      	str	r1, [r2, #32]
  SET_BIT(ADCx->CR2, ADC_CR2_ADON);
 800645c:	689a      	ldr	r2, [r3, #8]
 800645e:	f042 0201 	orr.w	r2, r2, #1
 8006462:	609a      	str	r2, [r3, #8]
  MODIFY_REG(ADCx->SQR1, ADC_SQR1_L, SequencerNbRanks);
 8006464:	6ada      	ldr	r2, [r3, #44]	@ 0x2c
  WRITE_REG(ADCx->SR, ~LL_ADC_FLAG_JEOS);
 8006466:	f06f 0504 	mvn.w	r5, #4
  MODIFY_REG(ADCx->SQR1, ADC_SQR1_L, SequencerNbRanks);
 800646a:	f422 0270 	bic.w	r2, r2, #15728640	@ 0xf00000
 800646e:	62da      	str	r2, [r3, #44]	@ 0x2c
  WRITE_REG(ADCx->SR, ~LL_ADC_FLAG_JEOS);
 8006470:	601d      	str	r5, [r3, #0]
  SET_BIT(ADCx->CR1, LL_ADC_IT_JEOS);
 8006472:	685a      	ldr	r2, [r3, #4]
 8006474:	f042 0280 	orr.w	r2, r2, #128	@ 0x80
 8006478:	605a      	str	r2, [r3, #4]
  MODIFY_REG(ADCx->JSQR, ADC_JSQR_JL, SequencerNbRanks);
 800647a:	6b9a      	ldr	r2, [r3, #56]	@ 0x38
    pHandle->ADCTriggerEdge = LL_ADC_INJ_TRIG_EXT_RISING;
 800647c:	f44f 1480 	mov.w	r4, #1048576	@ 0x100000
    pHandle->_Super.DTTest = 0u;
 8006480:	2100      	movs	r1, #0
 8006482:	f422 1240 	bic.w	r2, r2, #3145728	@ 0x300000
    pHandle->ADCTriggerEdge = LL_ADC_INJ_TRIG_EXT_RISING;
 8006486:	f8c0 4098 	str.w	r4, [r0, #152]	@ 0x98
 800648a:	639a      	str	r2, [r3, #56]	@ 0x38
}
 800648c:	bc30      	pop	{r4, r5}
    pHandle->_Super.DTTest = 0u;
 800648e:	f8a0 1070 	strh.w	r1, [r0, #112]	@ 0x70
}
 8006492:	4770      	bx	lr
  *         (*) value not defined in all devices.
  * @retval None
  */
__STATIC_INLINE void LL_DBGMCU_APB2_GRP1_FreezePeriph(uint32_t Periphs)
{
  SET_BIT(DBGMCU->APB2FZ, Periphs);
 8006494:	4c07      	ldr	r4, [pc, #28]	@ (80064b4 <R3_1_Init+0xac>)
 8006496:	68e1      	ldr	r1, [r4, #12]
 8006498:	f041 0102 	orr.w	r1, r1, #2
 800649c:	60e1      	str	r1, [r4, #12]
}
 800649e:	e7d0      	b.n	8006442 <R3_1_Init+0x3a>
  SET_BIT(DBGMCU->APB2FZ, Periphs);
 80064a0:	4c04      	ldr	r4, [pc, #16]	@ (80064b4 <R3_1_Init+0xac>)
 80064a2:	68e1      	ldr	r1, [r4, #12]
 80064a4:	f041 0101 	orr.w	r1, r1, #1
 80064a8:	60e1      	str	r1, [r4, #12]
}
 80064aa:	e7ca      	b.n	8006442 <R3_1_Init+0x3a>
 80064ac:	40010000 	.word	0x40010000
 80064b0:	40010400 	.word	0x40010400
 80064b4:	e0042000 	.word	0xe0042000

080064b8 <R3_1_SetOffsetCalib>:
{
 80064b8:	b410      	push	{r4}
  pHandle->PhaseAOffset = offsets->phaseAOffset;
 80064ba:	e9d1 4201 	ldrd	r4, r2, [r1, #4]
 80064be:	680b      	ldr	r3, [r1, #0]
 80064c0:	f8c0 3088 	str.w	r3, [r0, #136]	@ 0x88
  pHdl->offsetCalibStatus = true;
 80064c4:	2301      	movs	r3, #1
  pHandle->PhaseAOffset = offsets->phaseAOffset;
 80064c6:	e9c0 4223 	strd	r4, r2, [r0, #140]	@ 0x8c
  pHdl->offsetCalibStatus = true;
 80064ca:	f880 3081 	strb.w	r3, [r0, #129]	@ 0x81
}
 80064ce:	f85d 4b04 	ldr.w	r4, [sp], #4
 80064d2:	4770      	bx	lr

080064d4 <R3_1_GetOffsetCalib>:
  offsets->phaseAOffset = pHandle->PhaseAOffset;
 80064d4:	e9d0 2323 	ldrd	r2, r3, [r0, #140]	@ 0x8c
 80064d8:	f8d0 0088 	ldr.w	r0, [r0, #136]	@ 0x88
 80064dc:	608b      	str	r3, [r1, #8]
 80064de:	e9c1 0200 	strd	r0, r2, [r1]
}
 80064e2:	4770      	bx	lr

080064e4 <R3_1_CurrentReadingCalibration>:
{
 80064e4:	e92d 41f0 	stmdb	sp!, {r4, r5, r6, r7, r8, lr}
  TIM_TypeDef*  TIMx = pHandle->pParams_str->TIMx;
 80064e8:	f8d0 30a0 	ldr.w	r3, [r0, #160]	@ 0xa0
  if (false == pHandle->_Super.offsetCalibStatus)
 80064ec:	f890 6081 	ldrb.w	r6, [r0, #129]	@ 0x81
  TIM_TypeDef*  TIMx = pHandle->pParams_str->TIMx;
 80064f0:	685c      	ldr	r4, [r3, #4]
{
 80064f2:	b082      	sub	sp, #8
 80064f4:	4605      	mov	r5, r0
  if (false == pHandle->_Super.offsetCalibStatus)
 80064f6:	b35e      	cbz	r6, 8006550 <R3_1_CurrentReadingCalibration+0x6c>
  CLEAR_BIT(*pReg, (TIM_CCMR1_OC1PE << SHIFT_TAB_OCxx[iChannel]));
 80064f8:	69a2      	ldr	r2, [r4, #24]
  LL_TIM_OC_SetCompareCH1 (TIMx,pHandle->Half_PWMPeriod);
 80064fa:	f8b5 309c 	ldrh.w	r3, [r5, #156]	@ 0x9c
  CLEAR_BIT(*pReg, (TIM_CCMR1_OC1PE << SHIFT_TAB_OCxx[iChannel]));
 80064fe:	f022 0208 	bic.w	r2, r2, #8
 8006502:	61a2      	str	r2, [r4, #24]
 8006504:	69a2      	ldr	r2, [r4, #24]
 8006506:	f422 6200 	bic.w	r2, r2, #2048	@ 0x800
 800650a:	61a2      	str	r2, [r4, #24]
 800650c:	69e2      	ldr	r2, [r4, #28]
 800650e:	f022 0208 	bic.w	r2, r2, #8
 8006512:	61e2      	str	r2, [r4, #28]
  WRITE_REG(TIMx->CCR1, CompareValue);
 8006514:	6363      	str	r3, [r4, #52]	@ 0x34
  WRITE_REG(TIMx->CCR2, CompareValue);
 8006516:	63a3      	str	r3, [r4, #56]	@ 0x38
  WRITE_REG(TIMx->CCR3, CompareValue);
 8006518:	63e3      	str	r3, [r4, #60]	@ 0x3c
  SET_BIT(*pReg, (TIM_CCMR1_OC1PE << SHIFT_TAB_OCxx[iChannel]));
 800651a:	69a3      	ldr	r3, [r4, #24]
 800651c:	f043 0308 	orr.w	r3, r3, #8
 8006520:	61a3      	str	r3, [r4, #24]
 8006522:	69a3      	ldr	r3, [r4, #24]
 8006524:	f443 6300 	orr.w	r3, r3, #2048	@ 0x800
 8006528:	61a3      	str	r3, [r4, #24]
 800652a:	69e3      	ldr	r3, [r4, #28]
 800652c:	f043 0308 	orr.w	r3, r3, #8
 8006530:	61e3      	str	r3, [r4, #28]
  SET_BIT(TIMx->CCER, Channels);
 8006532:	6a23      	ldr	r3, [r4, #32]
 8006534:	f443 63aa 	orr.w	r3, r3, #1360	@ 0x550
  pHandle->_Super.Sector = SECTOR_5;
 8006538:	2104      	movs	r1, #4
  pHandle->_Super.BrakeActionLock = false;
 800653a:	2200      	movs	r2, #0
 800653c:	f043 0305 	orr.w	r3, r3, #5
 8006540:	6223      	str	r3, [r4, #32]
  pHandle->_Super.Sector = SECTOR_5;
 8006542:	f885 107c 	strb.w	r1, [r5, #124]	@ 0x7c
  pHandle->_Super.BrakeActionLock = false;
 8006546:	f885 2085 	strb.w	r2, [r5, #133]	@ 0x85
}
 800654a:	b002      	add	sp, #8
 800654c:	e8bd 81f0 	ldmia.w	sp!, {r4, r5, r6, r7, r8, pc}
    GetPhaseCurrCbSave = pHandle->_Super.pFctGetPhaseCurrents;
 8006550:	6803      	ldr	r3, [r0, #0]
 8006552:	9300      	str	r3, [sp, #0]
    pHandle->PhaseAOffset = 0u;
 8006554:	e9c0 6622 	strd	r6, r6, [r0, #136]	@ 0x88
    SetSampPointSectXCbSave = pHandle->_Super.pFctSetADCSampPointSectX;
 8006558:	6943      	ldr	r3, [r0, #20]
 800655a:	9301      	str	r3, [sp, #4]
    pHandle->PolarizationCounter = 0u;
 800655c:	f880 609f 	strb.w	r6, [r0, #159]	@ 0x9f
  CLEAR_BIT(TIMx->CCER, Channels);
 8006560:	6a23      	ldr	r3, [r4, #32]
    pHandle->PhaseCOffset = 0u;
 8006562:	f8c0 6090 	str.w	r6, [r0, #144]	@ 0x90
 8006566:	f423 63aa 	bic.w	r3, r3, #1360	@ 0x550
 800656a:	f023 0305 	bic.w	r3, r3, #5
 800656e:	6223      	str	r3, [r4, #32]
    pHandle->_Super.pFctGetPhaseCurrents = &R3_1_HFCurrentsCalibrationAB;
 8006570:	4b23      	ldr	r3, [pc, #140]	@ (8006600 <R3_1_CurrentReadingCalibration+0x11c>)
 8006572:	6003      	str	r3, [r0, #0]
    pHandle->_Super.pFctSetADCSampPointSectX = &R3_1_SetADCSampPointCalibration;
 8006574:	4b23      	ldr	r3, [pc, #140]	@ (8006604 <R3_1_CurrentReadingCalibration+0x120>)
 8006576:	6143      	str	r3, [r0, #20]
    pHandle->CalibSector = SECTOR_5;
 8006578:	2304      	movs	r3, #4
 800657a:	f880 309e 	strb.w	r3, [r0, #158]	@ 0x9e
    pHandle->_Super.Sector = SECTOR_5;
 800657e:	f880 307c 	strb.w	r3, [r0, #124]	@ 0x7c
    R3_1_SwitchOnPWM( &pHandle->_Super );
 8006582:	f7ff fdf1 	bl	8006168 <R3_1_SwitchOnPWM>
                            pHandle->pParams_str->RepetitionCounter,
 8006586:	f8d5 30a0 	ldr.w	r3, [r5, #160]	@ 0xa0
    waitForPolarizationEnd( TIMx,
 800658a:	f105 0756 	add.w	r7, r5, #86	@ 0x56
 800658e:	f105 089f 	add.w	r8, r5, #159	@ 0x9f
 8006592:	f893 202a 	ldrb.w	r2, [r3, #42]	@ 0x2a
 8006596:	4639      	mov	r1, r7
 8006598:	4643      	mov	r3, r8
 800659a:	4620      	mov	r0, r4
 800659c:	f7ff fccc 	bl	8005f38 <waitForPolarizationEnd>
    R3_1_SwitchOffPWM( &pHandle->_Super );
 80065a0:	4628      	mov	r0, r5
 80065a2:	f7ff fe2b 	bl	80061fc <R3_1_SwitchOffPWM>
    pHandle->_Super.pFctGetPhaseCurrents = &R3_1_HFCurrentsCalibrationC;
 80065a6:	4b18      	ldr	r3, [pc, #96]	@ (8006608 <R3_1_CurrentReadingCalibration+0x124>)
 80065a8:	602b      	str	r3, [r5, #0]
    R3_1_SwitchOnPWM( &pHandle->_Super );
 80065aa:	4628      	mov	r0, r5
    pHandle->PolarizationCounter = 0u;
 80065ac:	f885 609f 	strb.w	r6, [r5, #159]	@ 0x9f
    pHandle->CalibSector = SECTOR_1;
 80065b0:	f885 609e 	strb.w	r6, [r5, #158]	@ 0x9e
    pHandle->_Super.Sector = SECTOR_1;
 80065b4:	f885 607c 	strb.w	r6, [r5, #124]	@ 0x7c
    R3_1_SwitchOnPWM( &pHandle->_Super );
 80065b8:	f7ff fdd6 	bl	8006168 <R3_1_SwitchOnPWM>
                            pHandle->pParams_str->RepetitionCounter,
 80065bc:	f8d5 20a0 	ldr.w	r2, [r5, #160]	@ 0xa0
    waitForPolarizationEnd( TIMx,
 80065c0:	4643      	mov	r3, r8
 80065c2:	f892 202a 	ldrb.w	r2, [r2, #42]	@ 0x2a
 80065c6:	4639      	mov	r1, r7
 80065c8:	4620      	mov	r0, r4
 80065ca:	f7ff fcb5 	bl	8005f38 <waitForPolarizationEnd>
    R3_1_SwitchOffPWM( &pHandle->_Super );
 80065ce:	4628      	mov	r0, r5
 80065d0:	f7ff fe14 	bl	80061fc <R3_1_SwitchOffPWM>
    pHandle->PhaseBOffset >>= 3;
 80065d4:	e9d5 1222 	ldrd	r1, r2, [r5, #136]	@ 0x88
    pHandle->PhaseCOffset >>= 3;
 80065d8:	f8d5 3090 	ldr.w	r3, [r5, #144]	@ 0x90
    pHandle->PhaseBOffset >>= 3;
 80065dc:	08d2      	lsrs	r2, r2, #3
    pHandle->PhaseAOffset >>= 3;
 80065de:	08c9      	lsrs	r1, r1, #3
    pHandle->PhaseBOffset >>= 3;
 80065e0:	e9c5 1222 	strd	r1, r2, [r5, #136]	@ 0x88
    if (0U == pHandle->_Super.SWerror)
 80065e4:	f8b5 2056 	ldrh.w	r2, [r5, #86]	@ 0x56
    pHandle->PhaseCOffset >>= 3;
 80065e8:	08db      	lsrs	r3, r3, #3
 80065ea:	f8c5 3090 	str.w	r3, [r5, #144]	@ 0x90
    if (0U == pHandle->_Super.SWerror)
 80065ee:	b912      	cbnz	r2, 80065f6 <R3_1_CurrentReadingCalibration+0x112>
      pHandle->_Super.offsetCalibStatus = true;
 80065f0:	2301      	movs	r3, #1
 80065f2:	f885 3081 	strb.w	r3, [r5, #129]	@ 0x81
    pHandle->_Super.pFctGetPhaseCurrents = GetPhaseCurrCbSave;
 80065f6:	9a00      	ldr	r2, [sp, #0]
    pHandle->_Super.pFctSetADCSampPointSectX = SetSampPointSectXCbSave;
 80065f8:	9b01      	ldr	r3, [sp, #4]
    pHandle->_Super.pFctGetPhaseCurrents = GetPhaseCurrCbSave;
 80065fa:	602a      	str	r2, [r5, #0]
    pHandle->_Super.pFctSetADCSampPointSectX = SetSampPointSectXCbSave;
 80065fc:	616b      	str	r3, [r5, #20]
 80065fe:	e77b      	b.n	80064f8 <R3_1_CurrentReadingCalibration+0x14>
 8006600:	080060e9 	.word	0x080060e9
 8006604:	08006645 	.word	0x08006645
 8006608:	0800612d 	.word	0x0800612d

0800660c <R3_1_WriteTIMRegisters>:
  TIM_TypeDef*  TIMx = pHandle->pParams_str->TIMx;
 800660c:	f8d0 20a0 	ldr.w	r2, [r0, #160]	@ 0xa0
{
 8006610:	4603      	mov	r3, r0
  TIM_TypeDef*  TIMx = pHandle->pParams_str->TIMx;
 8006612:	6852      	ldr	r2, [r2, #4]
{
 8006614:	b410      	push	{r4}
  LL_TIM_OC_SetCompareCH1 (TIMx,pHandle->_Super.CntPhA);
 8006616:	f8b0 4050 	ldrh.w	r4, [r0, #80]	@ 0x50
  LL_TIM_OC_SetCompareCH2 (TIMx,pHandle->_Super.CntPhB);
 800661a:	f8b0 0052 	ldrh.w	r0, [r0, #82]	@ 0x52
  WRITE_REG(TIMx->CCR1, CompareValue);
 800661e:	6354      	str	r4, [r2, #52]	@ 0x34
  WRITE_REG(TIMx->CCR2, CompareValue);
 8006620:	6390      	str	r0, [r2, #56]	@ 0x38
  LL_TIM_OC_SetCompareCH3 (TIMx,pHandle->_Super.CntPhC);
 8006622:	f8b3 4054 	ldrh.w	r4, [r3, #84]	@ 0x54
  if ( pHandle->_Super.SWerror == 1u )
 8006626:	f8b3 0056 	ldrh.w	r0, [r3, #86]	@ 0x56
  WRITE_REG(TIMx->CCR3, CompareValue);
 800662a:	63d4      	str	r4, [r2, #60]	@ 0x3c
  WRITE_REG(TIMx->CCR4, CompareValue);
 800662c:	6411      	str	r1, [r2, #64]	@ 0x40
  return ((READ_BIT(TIMx->CCER, Channels) == (Channels)) ? 1UL : 0UL);
 800662e:	6a12      	ldr	r2, [r2, #32]
}
 8006630:	f85d 4b04 	ldr.w	r4, [sp], #4
  if ( pHandle->_Super.SWerror == 1u )
 8006634:	2801      	cmp	r0, #1
    pHandle->_Super.SWerror = 0u;
 8006636:	bf0a      	itet	eq
 8006638:	2200      	moveq	r2, #0
 800663a:	f3c2 3000 	ubfxne	r0, r2, #12, #1
 800663e:	f8a3 2056 	strheq.w	r2, [r3, #86]	@ 0x56
}
 8006642:	4770      	bx	lr

08006644 <R3_1_SetADCSampPointCalibration>:
{
 8006644:	b510      	push	{r4, lr}
  return R3_1_WriteTIMRegisters(&pHandle->_Super, (uint16_t)(pHandle->Half_PWMPeriod) - 1u);
 8006646:	f8b0 109c 	ldrh.w	r1, [r0, #156]	@ 0x9c
  pHandle->_Super.Sector = pHandle->CalibSector;
 800664a:	f890 209e 	ldrb.w	r2, [r0, #158]	@ 0x9e
 800664e:	f880 207c 	strb.w	r2, [r0, #124]	@ 0x7c
  pHandle->ADCTriggerEdge = LL_ADC_INJ_TRIG_EXT_RISING;
 8006652:	f44f 1480 	mov.w	r4, #1048576	@ 0x100000
  return R3_1_WriteTIMRegisters(&pHandle->_Super, (uint16_t)(pHandle->Half_PWMPeriod) - 1u);
 8006656:	3901      	subs	r1, #1
  pHandle->ADCTriggerEdge = LL_ADC_INJ_TRIG_EXT_RISING;
 8006658:	f8c0 4098 	str.w	r4, [r0, #152]	@ 0x98
  return R3_1_WriteTIMRegisters(&pHandle->_Super, (uint16_t)(pHandle->Half_PWMPeriod) - 1u);
 800665c:	b289      	uxth	r1, r1
 800665e:	f7ff ffd5 	bl	800660c <R3_1_WriteTIMRegisters>
}
 8006662:	bd10      	pop	{r4, pc}

08006664 <R3_1_SetADCSampPointSectX>:
{
 8006664:	b510      	push	{r4, lr}
  register uint16_t lowDuty = pHdl->lowDuty;
 8006666:	f8b0 2058 	ldrh.w	r2, [r0, #88]	@ 0x58
  if ( ( uint16_t )( pHandle->Half_PWMPeriod - lowDuty ) > pHandle->pParams_str->hTafter )
 800666a:	f8b0 e09c 	ldrh.w	lr, [r0, #156]	@ 0x9c
 800666e:	f8d0 40a0 	ldr.w	r4, [r0, #160]	@ 0xa0
  register uint16_t midDuty = pHdl->midDuty;
 8006672:	f8b0 c05a 	ldrh.w	ip, [r0, #90]	@ 0x5a
  if ( ( uint16_t )( pHandle->Half_PWMPeriod - lowDuty ) > pHandle->pParams_str->hTafter )
 8006676:	8c21      	ldrh	r1, [r4, #32]
 8006678:	ebae 0302 	sub.w	r3, lr, r2
 800667c:	b29b      	uxth	r3, r3
 800667e:	428b      	cmp	r3, r1
 8006680:	d908      	bls.n	8006694 <R3_1_SetADCSampPointSectX+0x30>
    pHandle->_Super.Sector = SECTOR_5;
 8006682:	2304      	movs	r3, #4
    hCntSmp = ( uint32_t )( pHandle->Half_PWMPeriod ) - 1u;
 8006684:	f10e 31ff 	add.w	r1, lr, #4294967295
    pHandle->_Super.Sector = SECTOR_5;
 8006688:	f880 307c 	strb.w	r3, [r0, #124]	@ 0x7c
    hCntSmp = ( uint32_t )( pHandle->Half_PWMPeriod ) - 1u;
 800668c:	b289      	uxth	r1, r1
  return R3_1_WriteTIMRegisters( &pHandle->_Super, hCntSmp);
 800668e:	f7ff ffbd 	bl	800660c <R3_1_WriteTIMRegisters>
}
 8006692:	bd10      	pop	{r4, pc}
    hDeltaDuty = ( uint16_t )( lowDuty - midDuty );
 8006694:	eba2 0c0c 	sub.w	ip, r2, ip
    if ( hDeltaDuty > ( uint16_t )( pHandle->Half_PWMPeriod - lowDuty ) * 2u )
 8006698:	fa1f fc8c 	uxth.w	ip, ip
 800669c:	ebbc 0f43 	cmp.w	ip, r3, lsl #1
 80066a0:	d905      	bls.n	80066ae <R3_1_SetADCSampPointSectX+0x4a>
      hCntSmp = lowDuty - pHandle->pParams_str->hTbefore;
 80066a2:	8c63      	ldrh	r3, [r4, #34]	@ 0x22
 80066a4:	1ad2      	subs	r2, r2, r3
 80066a6:	b291      	uxth	r1, r2
  return R3_1_WriteTIMRegisters( &pHandle->_Super, hCntSmp);
 80066a8:	f7ff ffb0 	bl	800660c <R3_1_WriteTIMRegisters>
}
 80066ac:	bd10      	pop	{r4, pc}
      hCntSmp = lowDuty + pHandle->pParams_str->hTafter;
 80066ae:	4411      	add	r1, r2
 80066b0:	b289      	uxth	r1, r1
      if ( hCntSmp >= pHandle->Half_PWMPeriod )
 80066b2:	458e      	cmp	lr, r1
 80066b4:	d8eb      	bhi.n	800668e <R3_1_SetADCSampPointSectX+0x2a>
        hCntSmp = ( 2u * pHandle->Half_PWMPeriod ) - hCntSmp - 1u;
 80066b6:	43c9      	mvns	r1, r1
        pHandle->ADCTriggerEdge = LL_ADC_INJ_TRIG_EXT_FALLING;
 80066b8:	f44f 1300 	mov.w	r3, #2097152	@ 0x200000
        hCntSmp = ( 2u * pHandle->Half_PWMPeriod ) - hCntSmp - 1u;
 80066bc:	eb01 014e 	add.w	r1, r1, lr, lsl #1
        pHandle->ADCTriggerEdge = LL_ADC_INJ_TRIG_EXT_FALLING;
 80066c0:	f8c0 3098 	str.w	r3, [r0, #152]	@ 0x98
        hCntSmp = ( 2u * pHandle->Half_PWMPeriod ) - hCntSmp - 1u;
 80066c4:	b289      	uxth	r1, r1
  return R3_1_WriteTIMRegisters( &pHandle->_Super, hCntSmp);
 80066c6:	f7ff ffa1 	bl	800660c <R3_1_WriteTIMRegisters>
}
 80066ca:	bd10      	pop	{r4, pc}

080066cc <R3_1_TIMx_UP_IRQHandler>:
  TIM_TypeDef * TIMx = pHandle->pParams_str->TIMx;
 80066cc:	f8d0 10a0 	ldr.w	r1, [r0, #160]	@ 0xa0
{
 80066d0:	b410      	push	{r4}
  TIM_TypeDef * TIMx = pHandle->pParams_str->TIMx;
 80066d2:	e9d1 2400 	ldrd	r2, r4, [r1]
{
 80066d6:	4603      	mov	r3, r0
  CLEAR_BIT(ADCx->CR2, ADC_CR2_JEXTEN);
 80066d8:	6890      	ldr	r0, [r2, #8]
 80066da:	f420 1040 	bic.w	r0, r0, #3145728	@ 0x300000
 80066de:	6090      	str	r0, [r2, #8]
  ADCx->JSQR = pHandle->pParams_str->ADCConfig[pHandle->_Super.Sector];
 80066e0:	f893 007c 	ldrb.w	r0, [r3, #124]	@ 0x7c
 80066e4:	3002      	adds	r0, #2
 80066e6:	f851 1020 	ldr.w	r1, [r1, r0, lsl #2]
 80066ea:	6391      	str	r1, [r2, #56]	@ 0x38
  SET_BIT(TIMx->CCER, Channels);
 80066ec:	6a21      	ldr	r1, [r4, #32]
  SET_BIT(ADCx->CR2, ExternalTriggerEdge);
 80066ee:	f8d3 0098 	ldr.w	r0, [r3, #152]	@ 0x98
 80066f2:	f441 5180 	orr.w	r1, r1, #4096	@ 0x1000
 80066f6:	6221      	str	r1, [r4, #32]
 80066f8:	6891      	ldr	r1, [r2, #8]
  pHandle->ADCTriggerEdge = LL_ADC_INJ_TRIG_EXT_RISING;
 80066fa:	f44f 1480 	mov.w	r4, #1048576	@ 0x100000
 80066fe:	4301      	orrs	r1, r0
 8006700:	6091      	str	r1, [r2, #8]
}
 8006702:	f103 007a 	add.w	r0, r3, #122	@ 0x7a
  pHandle->ADCTriggerEdge = LL_ADC_INJ_TRIG_EXT_RISING;
 8006706:	f8c3 4098 	str.w	r4, [r3, #152]	@ 0x98
}
 800670a:	f85d 4b04 	ldr.w	r4, [sp], #4
 800670e:	4770      	bx	lr

08006710 <R3_1_RLDetectionModeEnable>:
  if (pHandle->_Super.RLDetectionMode == false)
 8006710:	f890 1080 	ldrb.w	r1, [r0, #128]	@ 0x80
{
 8006714:	b410      	push	{r4}
  if (pHandle->_Super.RLDetectionMode == false)
 8006716:	2900      	cmp	r1, #0
 8006718:	d135      	bne.n	8006786 <R3_1_RLDetectionModeEnable+0x76>
  TIM_TypeDef*  TIMx = pHandle->pParams_str->TIMx;
 800671a:	f8d0 30a0 	ldr.w	r3, [r0, #160]	@ 0xa0
 800671e:	685b      	ldr	r3, [r3, #4]
  MODIFY_REG(*pReg, ((TIM_CCMR1_OC1M  | TIM_CCMR1_CC1S) << SHIFT_TAB_OCxx[iChannel]), Mode << SHIFT_TAB_OCxx[iChannel]);
 8006720:	699a      	ldr	r2, [r3, #24]
 8006722:	f022 0273 	bic.w	r2, r2, #115	@ 0x73
 8006726:	f042 0260 	orr.w	r2, r2, #96	@ 0x60
 800672a:	619a      	str	r2, [r3, #24]
  SET_BIT(TIMx->CCER, Channels);
 800672c:	6a1a      	ldr	r2, [r3, #32]
 800672e:	f042 0201 	orr.w	r2, r2, #1
 8006732:	621a      	str	r2, [r3, #32]
  CLEAR_BIT(TIMx->CCER, Channels);
 8006734:	6a1a      	ldr	r2, [r3, #32]
 8006736:	f022 0204 	bic.w	r2, r2, #4
 800673a:	621a      	str	r2, [r3, #32]
  WRITE_REG(TIMx->CCR1, CompareValue);
 800673c:	6359      	str	r1, [r3, #52]	@ 0x34
    if ((pHandle->_Super.LowSideOutputs)== LS_PWM_TIMER)
 800673e:	f890 207d 	ldrb.w	r2, [r0, #125]	@ 0x7d
 8006742:	2a01      	cmp	r2, #1
  __IO uint32_t *pReg = (__IO uint32_t *)((uint32_t)((uint32_t)(&TIMx->CCMR1) + OFFSET_TAB_CCMRx[iChannel]));
 8006744:	f103 0418 	add.w	r4, r3, #24
 8006748:	d02b      	beq.n	80067a2 <R3_1_RLDetectionModeEnable+0x92>
    else if ((pHandle->_Super.LowSideOutputs)== ES_GPIO)
 800674a:	2a02      	cmp	r2, #2
 800674c:	d10d      	bne.n	800676a <R3_1_RLDetectionModeEnable+0x5a>
  MODIFY_REG(*pReg, ((TIM_CCMR1_OC1M  | TIM_CCMR1_CC1S) << SHIFT_TAB_OCxx[iChannel]), Mode << SHIFT_TAB_OCxx[iChannel]);
 800674e:	699a      	ldr	r2, [r3, #24]
 8006750:	f422 42e6 	bic.w	r2, r2, #29440	@ 0x7300
 8006754:	f442 5200 	orr.w	r2, r2, #8192	@ 0x2000
 8006758:	619a      	str	r2, [r3, #24]
  SET_BIT(TIMx->CCER, Channels);
 800675a:	6a1a      	ldr	r2, [r3, #32]
 800675c:	f042 0210 	orr.w	r2, r2, #16
 8006760:	621a      	str	r2, [r3, #32]
  CLEAR_BIT(TIMx->CCER, Channels);
 8006762:	6a1a      	ldr	r2, [r3, #32]
 8006764:	f022 0240 	bic.w	r2, r2, #64	@ 0x40
 8006768:	621a      	str	r2, [r3, #32]
  MODIFY_REG(*pReg, ((TIM_CCMR1_OC1M  | TIM_CCMR1_CC1S) << SHIFT_TAB_OCxx[iChannel]), Mode << SHIFT_TAB_OCxx[iChannel]);
 800676a:	6862      	ldr	r2, [r4, #4]
 800676c:	f022 0273 	bic.w	r2, r2, #115	@ 0x73
 8006770:	f042 0270 	orr.w	r2, r2, #112	@ 0x70
 8006774:	6062      	str	r2, [r4, #4]
  CLEAR_BIT(TIMx->CCER, Channels);
 8006776:	6a1a      	ldr	r2, [r3, #32]
 8006778:	f422 7280 	bic.w	r2, r2, #256	@ 0x100
 800677c:	621a      	str	r2, [r3, #32]
 800677e:	6a1a      	ldr	r2, [r3, #32]
 8006780:	f422 6280 	bic.w	r2, r2, #1024	@ 0x400
 8006784:	621a      	str	r2, [r3, #32]
  pHandle->_Super.pFctTurnOnLowSides = &R3_1_RLTurnOnLowSides;
 8006786:	4b0e      	ldr	r3, [pc, #56]	@ (80067c0 <R3_1_RLDetectionModeEnable+0xb0>)
  pHandle->_Super.pFctSwitchOnPwm = &R3_1_RLSwitchOnPWM;
 8006788:	490e      	ldr	r1, [pc, #56]	@ (80067c4 <R3_1_RLDetectionModeEnable+0xb4>)
  pHandle->_Super.pFctSwitchOffPwm = &R3_1_SwitchOffPWM;
 800678a:	4a0f      	ldr	r2, [pc, #60]	@ (80067c8 <R3_1_RLDetectionModeEnable+0xb8>)
  pHandle->_Super.pFctGetPhaseCurrents = &R3_1_RLGetPhaseCurrents;
 800678c:	4c0f      	ldr	r4, [pc, #60]	@ (80067cc <R3_1_RLDetectionModeEnable+0xbc>)
  pHandle->_Super.pFctTurnOnLowSides = &R3_1_RLTurnOnLowSides;
 800678e:	6103      	str	r3, [r0, #16]
  pHandle->_Super.RLDetectionMode = true;
 8006790:	2301      	movs	r3, #1
  pHandle->_Super.pFctGetPhaseCurrents = &R3_1_RLGetPhaseCurrents;
 8006792:	6004      	str	r4, [r0, #0]
  pHandle->_Super.pFctSwitchOffPwm = &R3_1_SwitchOffPWM;
 8006794:	e9c0 2101 	strd	r2, r1, [r0, #4]
}
 8006798:	f85d 4b04 	ldr.w	r4, [sp], #4
  pHandle->_Super.RLDetectionMode = true;
 800679c:	f880 3080 	strb.w	r3, [r0, #128]	@ 0x80
}
 80067a0:	4770      	bx	lr
  MODIFY_REG(*pReg, ((TIM_CCMR1_OC1M  | TIM_CCMR1_CC1S) << SHIFT_TAB_OCxx[iChannel]), Mode << SHIFT_TAB_OCxx[iChannel]);
 80067a2:	699a      	ldr	r2, [r3, #24]
 80067a4:	f422 42e6 	bic.w	r2, r2, #29440	@ 0x7300
 80067a8:	f442 5280 	orr.w	r2, r2, #4096	@ 0x1000
 80067ac:	619a      	str	r2, [r3, #24]
  CLEAR_BIT(TIMx->CCER, Channels);
 80067ae:	6a1a      	ldr	r2, [r3, #32]
 80067b0:	f022 0210 	bic.w	r2, r2, #16
 80067b4:	621a      	str	r2, [r3, #32]
  SET_BIT(TIMx->CCER, Channels);
 80067b6:	6a1a      	ldr	r2, [r3, #32]
 80067b8:	f042 0240 	orr.w	r2, r2, #64	@ 0x40
 80067bc:	621a      	str	r2, [r3, #32]
}
 80067be:	e7d4      	b.n	800676a <R3_1_RLDetectionModeEnable+0x5a>
 80067c0:	080063b5 	.word	0x080063b5
 80067c4:	080062bd 	.word	0x080062bd
 80067c8:	080061fd 	.word	0x080061fd
 80067cc:	08006275 	.word	0x08006275

080067d0 <R3_1_RLDetectionModeDisable>:
  if (pHandle->_Super.RLDetectionMode == true)
 80067d0:	f890 3080 	ldrb.w	r3, [r0, #128]	@ 0x80
 80067d4:	2b00      	cmp	r3, #0
 80067d6:	d04a      	beq.n	800686e <R3_1_RLDetectionModeDisable+0x9e>
{
 80067d8:	b410      	push	{r4}
  TIM_TypeDef*  TIMx = pHandle->pParams_str->TIMx;
 80067da:	f8d0 10a0 	ldr.w	r1, [r0, #160]	@ 0xa0
 80067de:	684b      	ldr	r3, [r1, #4]
    while ((TIMx->CR1 & DIR_MASK) == 0u)
 80067e0:	681a      	ldr	r2, [r3, #0]
 80067e2:	06d4      	lsls	r4, r2, #27
 80067e4:	d5fc      	bpl.n	80067e0 <R3_1_RLDetectionModeDisable+0x10>
    while ((TIMx->CR1 & DIR_MASK) == DIR_MASK)
 80067e6:	681a      	ldr	r2, [r3, #0]
 80067e8:	06d2      	lsls	r2, r2, #27
 80067ea:	d4fc      	bmi.n	80067e6 <R3_1_RLDetectionModeDisable+0x16>
    TIMx->RCR = pHandle->pParams_str->RepetitionCounter;
 80067ec:	f891 202a 	ldrb.w	r2, [r1, #42]	@ 0x2a
 80067f0:	631a      	str	r2, [r3, #48]	@ 0x30
  MODIFY_REG(*pReg, ((TIM_CCMR1_OC1M  | TIM_CCMR1_CC1S) << SHIFT_TAB_OCxx[iChannel]), Mode << SHIFT_TAB_OCxx[iChannel]);
 80067f2:	699a      	ldr	r2, [r3, #24]
    LL_TIM_OC_SetCompareCH1(TIMx, (uint32_t)(pHandle->Half_PWMPeriod) >> 1);
 80067f4:	f8b0 c09c 	ldrh.w	ip, [r0, #156]	@ 0x9c
 80067f8:	f022 0273 	bic.w	r2, r2, #115	@ 0x73
 80067fc:	f042 0260 	orr.w	r2, r2, #96	@ 0x60
 8006800:	619a      	str	r2, [r3, #24]
  SET_BIT(TIMx->CCER, Channels);
 8006802:	6a1c      	ldr	r4, [r3, #32]
 8006804:	f044 0401 	orr.w	r4, r4, #1
 8006808:	621c      	str	r4, [r3, #32]
    if ((pHandle->_Super.LowSideOutputs)== LS_PWM_TIMER)
 800680a:	f890 407d 	ldrb.w	r4, [r0, #125]	@ 0x7d
 800680e:	2c01      	cmp	r4, #1
    LL_TIM_OC_SetCompareCH1(TIMx, (uint32_t)(pHandle->Half_PWMPeriod) >> 1);
 8006810:	ea4f 025c 	mov.w	r2, ip, lsr #1
    if ((pHandle->_Super.LowSideOutputs)== LS_PWM_TIMER)
 8006814:	d02c      	beq.n	8006870 <R3_1_RLDetectionModeDisable+0xa0>
    else if ((pHandle->_Super.LowSideOutputs)== ES_GPIO)
 8006816:	2c02      	cmp	r4, #2
 8006818:	d04d      	beq.n	80068b6 <R3_1_RLDetectionModeDisable+0xe6>
  WRITE_REG(TIMx->CCR1, CompareValue);
 800681a:	635a      	str	r2, [r3, #52]	@ 0x34
  MODIFY_REG(*pReg, ((TIM_CCMR1_OC1M  | TIM_CCMR1_CC1S) << SHIFT_TAB_OCxx[iChannel]), Mode << SHIFT_TAB_OCxx[iChannel]);
 800681c:	699c      	ldr	r4, [r3, #24]
 800681e:	f424 44e6 	bic.w	r4, r4, #29440	@ 0x7300
 8006822:	f444 44c0 	orr.w	r4, r4, #24576	@ 0x6000
 8006826:	619c      	str	r4, [r3, #24]
  SET_BIT(TIMx->CCER, Channels);
 8006828:	6a1c      	ldr	r4, [r3, #32]
 800682a:	f044 0410 	orr.w	r4, r4, #16
 800682e:	621c      	str	r4, [r3, #32]
  WRITE_REG(TIMx->CCR2, CompareValue);
 8006830:	639a      	str	r2, [r3, #56]	@ 0x38
  MODIFY_REG(*pReg, ((TIM_CCMR1_OC1M  | TIM_CCMR1_CC1S) << SHIFT_TAB_OCxx[iChannel]), Mode << SHIFT_TAB_OCxx[iChannel]);
 8006832:	69dc      	ldr	r4, [r3, #28]
 8006834:	f024 0473 	bic.w	r4, r4, #115	@ 0x73
 8006838:	f044 0460 	orr.w	r4, r4, #96	@ 0x60
 800683c:	61dc      	str	r4, [r3, #28]
  SET_BIT(TIMx->CCER, Channels);
 800683e:	6a1c      	ldr	r4, [r3, #32]
 8006840:	f444 7480 	orr.w	r4, r4, #256	@ 0x100
 8006844:	621c      	str	r4, [r3, #32]
    LL_ADC_INJ_SetSequencerDiscont(pHandle->pParams_str->ADCx,
 8006846:	6809      	ldr	r1, [r1, #0]
  WRITE_REG(TIMx->CCR3, CompareValue);
 8006848:	63da      	str	r2, [r3, #60]	@ 0x3c
  MODIFY_REG(ADCx->CR1, ADC_CR1_JDISCEN, SeqDiscont);
 800684a:	684b      	ldr	r3, [r1, #4]
    pHandle->_Super.pFctGetPhaseCurrents = &R3_1_GetPhaseCurrents;
 800684c:	4a2b      	ldr	r2, [pc, #172]	@ (80068fc <R3_1_RLDetectionModeDisable+0x12c>)
    pHandle->_Super.pFctTurnOnLowSides = &R3_1_TurnOnLowSides;
 800684e:	4c2c      	ldr	r4, [pc, #176]	@ (8006900 <R3_1_RLDetectionModeDisable+0x130>)
 8006850:	f423 5380 	bic.w	r3, r3, #4096	@ 0x1000
 8006854:	604b      	str	r3, [r1, #4]
    pHandle->_Super.pFctSwitchOnPwm = &R3_1_SwitchOnPWM;
 8006856:	492b      	ldr	r1, [pc, #172]	@ (8006904 <R3_1_RLDetectionModeDisable+0x134>)
    pHandle->_Super.pFctGetPhaseCurrents = &R3_1_GetPhaseCurrents;
 8006858:	6002      	str	r2, [r0, #0]
    pHandle->_Super.pFctSwitchOffPwm = &R3_1_SwitchOffPWM;
 800685a:	4a2b      	ldr	r2, [pc, #172]	@ (8006908 <R3_1_RLDetectionModeDisable+0x138>)
    pHandle->_Super.pFctTurnOnLowSides = &R3_1_TurnOnLowSides;
 800685c:	6104      	str	r4, [r0, #16]
    pHandle->_Super.RLDetectionMode = false;
 800685e:	2300      	movs	r3, #0
    pHandle->_Super.pFctSwitchOffPwm = &R3_1_SwitchOffPWM;
 8006860:	e9c0 2101 	strd	r2, r1, [r0, #4]
}
 8006864:	f85d 4b04 	ldr.w	r4, [sp], #4
    pHandle->_Super.RLDetectionMode = false;
 8006868:	f880 3080 	strb.w	r3, [r0, #128]	@ 0x80
}
 800686c:	4770      	bx	lr
 800686e:	4770      	bx	lr
  SET_BIT(TIMx->CCER, Channels);
 8006870:	6a1c      	ldr	r4, [r3, #32]
 8006872:	f044 0404 	orr.w	r4, r4, #4
 8006876:	621c      	str	r4, [r3, #32]
  WRITE_REG(TIMx->CCR1, CompareValue);
 8006878:	635a      	str	r2, [r3, #52]	@ 0x34
  MODIFY_REG(*pReg, ((TIM_CCMR1_OC1M  | TIM_CCMR1_CC1S) << SHIFT_TAB_OCxx[iChannel]), Mode << SHIFT_TAB_OCxx[iChannel]);
 800687a:	699c      	ldr	r4, [r3, #24]
 800687c:	f424 44e6 	bic.w	r4, r4, #29440	@ 0x7300
 8006880:	f444 44c0 	orr.w	r4, r4, #24576	@ 0x6000
 8006884:	619c      	str	r4, [r3, #24]
  SET_BIT(TIMx->CCER, Channels);
 8006886:	6a1c      	ldr	r4, [r3, #32]
 8006888:	f044 0410 	orr.w	r4, r4, #16
 800688c:	621c      	str	r4, [r3, #32]
 800688e:	6a1c      	ldr	r4, [r3, #32]
 8006890:	f044 0440 	orr.w	r4, r4, #64	@ 0x40
 8006894:	621c      	str	r4, [r3, #32]
  WRITE_REG(TIMx->CCR2, CompareValue);
 8006896:	639a      	str	r2, [r3, #56]	@ 0x38
  MODIFY_REG(*pReg, ((TIM_CCMR1_OC1M  | TIM_CCMR1_CC1S) << SHIFT_TAB_OCxx[iChannel]), Mode << SHIFT_TAB_OCxx[iChannel]);
 8006898:	69dc      	ldr	r4, [r3, #28]
 800689a:	f024 0473 	bic.w	r4, r4, #115	@ 0x73
 800689e:	f044 0460 	orr.w	r4, r4, #96	@ 0x60
 80068a2:	61dc      	str	r4, [r3, #28]
  SET_BIT(TIMx->CCER, Channels);
 80068a4:	6a1c      	ldr	r4, [r3, #32]
 80068a6:	f444 7480 	orr.w	r4, r4, #256	@ 0x100
 80068aa:	621c      	str	r4, [r3, #32]
 80068ac:	6a1c      	ldr	r4, [r3, #32]
 80068ae:	f444 6480 	orr.w	r4, r4, #1024	@ 0x400
 80068b2:	621c      	str	r4, [r3, #32]
}
 80068b4:	e7c7      	b.n	8006846 <R3_1_RLDetectionModeDisable+0x76>
  CLEAR_BIT(TIMx->CCER, Channels);
 80068b6:	6a1c      	ldr	r4, [r3, #32]
 80068b8:	f024 0404 	bic.w	r4, r4, #4
 80068bc:	621c      	str	r4, [r3, #32]
  WRITE_REG(TIMx->CCR1, CompareValue);
 80068be:	635a      	str	r2, [r3, #52]	@ 0x34
  MODIFY_REG(*pReg, ((TIM_CCMR1_OC1M  | TIM_CCMR1_CC1S) << SHIFT_TAB_OCxx[iChannel]), Mode << SHIFT_TAB_OCxx[iChannel]);
 80068c0:	699c      	ldr	r4, [r3, #24]
 80068c2:	f424 44e6 	bic.w	r4, r4, #29440	@ 0x7300
 80068c6:	f444 44c0 	orr.w	r4, r4, #24576	@ 0x6000
 80068ca:	619c      	str	r4, [r3, #24]
  SET_BIT(TIMx->CCER, Channels);
 80068cc:	6a1c      	ldr	r4, [r3, #32]
 80068ce:	f044 0410 	orr.w	r4, r4, #16
 80068d2:	621c      	str	r4, [r3, #32]
  CLEAR_BIT(TIMx->CCER, Channels);
 80068d4:	6a1c      	ldr	r4, [r3, #32]
 80068d6:	f024 0440 	bic.w	r4, r4, #64	@ 0x40
 80068da:	621c      	str	r4, [r3, #32]
  WRITE_REG(TIMx->CCR2, CompareValue);
 80068dc:	639a      	str	r2, [r3, #56]	@ 0x38
  MODIFY_REG(*pReg, ((TIM_CCMR1_OC1M  | TIM_CCMR1_CC1S) << SHIFT_TAB_OCxx[iChannel]), Mode << SHIFT_TAB_OCxx[iChannel]);
 80068de:	69dc      	ldr	r4, [r3, #28]
 80068e0:	f024 0473 	bic.w	r4, r4, #115	@ 0x73
 80068e4:	f044 0460 	orr.w	r4, r4, #96	@ 0x60
 80068e8:	61dc      	str	r4, [r3, #28]
  SET_BIT(TIMx->CCER, Channels);
 80068ea:	6a1c      	ldr	r4, [r3, #32]
 80068ec:	f444 7480 	orr.w	r4, r4, #256	@ 0x100
 80068f0:	621c      	str	r4, [r3, #32]
  CLEAR_BIT(TIMx->CCER, Channels);
 80068f2:	6a1c      	ldr	r4, [r3, #32]
 80068f4:	f424 6480 	bic.w	r4, r4, #1024	@ 0x400
 80068f8:	621c      	str	r4, [r3, #32]
}
 80068fa:	e7a4      	b.n	8006846 <R3_1_RLDetectionModeDisable+0x76>
 80068fc:	08005f75 	.word	0x08005f75
 8006900:	08006359 	.word	0x08006359
 8006904:	08006169 	.word	0x08006169
 8006908:	080061fd 	.word	0x080061fd

0800690c <R3_1_RLDetectionModeSetDuty>:
{
 800690c:	4603      	mov	r3, r0
  TIM_TypeDef * TIMx = pHandle->pParams_str->TIMx;
 800690e:	f8d0 00a0 	ldr.w	r0, [r0, #160]	@ 0xa0
  val = ( ( uint32_t )( pHandle->Half_PWMPeriod ) * ( uint32_t )( hDuty ) ) >> 16;
 8006912:	f8b3 209c 	ldrh.w	r2, [r3, #156]	@ 0x9c
{
 8006916:	b410      	push	{r4}
  val = ( ( uint32_t )( pHandle->Half_PWMPeriod ) * ( uint32_t )( hDuty ) ) >> 16;
 8006918:	fb02 f101 	mul.w	r1, r2, r1
  TIM_TypeDef * TIMx = pHandle->pParams_str->TIMx;
 800691c:	6844      	ldr	r4, [r0, #4]
  if (pHandle->_Super.SWerror == 1u)
 800691e:	f8b3 0056 	ldrh.w	r0, [r3, #86]	@ 0x56
  val = ( ( uint32_t )( pHandle->Half_PWMPeriod ) * ( uint32_t )( hDuty ) ) >> 16;
 8006922:	0c09      	lsrs	r1, r1, #16
  pHandle->_Super.Sector = SECTOR_4;
 8006924:	2203      	movs	r2, #3
 8006926:	f883 207c 	strb.w	r2, [r3, #124]	@ 0x7c
  pHandle->_Super.CntPhA = ( uint16_t )( val );
 800692a:	f8a3 1050 	strh.w	r1, [r3, #80]	@ 0x50
  WRITE_REG(TIMx->CCR1, CompareValue);
 800692e:	6361      	str	r1, [r4, #52]	@ 0x34
  return ((READ_BIT(TIMx->CCER, Channels) == (Channels)) ? 1UL : 0UL);
 8006930:	6a22      	ldr	r2, [r4, #32]
}
 8006932:	f85d 4b04 	ldr.w	r4, [sp], #4
  if (pHandle->_Super.SWerror == 1u)
 8006936:	2801      	cmp	r0, #1
    pHandle->_Super.SWerror = 0u;
 8006938:	bf0a      	itet	eq
 800693a:	2200      	moveq	r2, #0
 800693c:	f3c2 3000 	ubfxne	r0, r2, #12, #1
 8006940:	f8a3 2056 	strheq.w	r2, [r3, #86]	@ 0x56
}
 8006944:	4770      	bx	lr
 8006946:	bf00      	nop

08006948 <R3_1_RLTurnOnLowSidesAndStart>:
 * @param  pHdl: Handler of the current instance of the PWM component.
 */
void R3_1_RLTurnOnLowSidesAndStart( PWMC_Handle_t * pHdl )
{
  PWMC_R3_1_Handle_t * pHandle = ( PWMC_R3_1_Handle_t * )pHdl;
  TIM_TypeDef * TIMx = pHandle->pParams_str->TIMx;
 8006948:	f8d0 20a0 	ldr.w	r2, [r0, #160]	@ 0xa0
{
 800694c:	b430      	push	{r4, r5}
  ADC_TypeDef * ADCx = pHandle->pParams_str->ADCx;
 800694e:	e9d2 4300 	ldrd	r4, r3, [r2]
  WRITE_REG(TIMx->SR, ~(TIM_SR_UIF));
 8006952:	f06f 0101 	mvn.w	r1, #1
 8006956:	6119      	str	r1, [r3, #16]
  return ((READ_BIT(TIMx->SR, TIM_SR_UIF) == (TIM_SR_UIF)) ? 1UL : 0UL);
 8006958:	691a      	ldr	r2, [r3, #16]
 800695a:	07d1      	lsls	r1, r2, #31
 800695c:	d5fc      	bpl.n	8006958 <R3_1_RLTurnOnLowSidesAndStart+0x10>

  LL_TIM_OC_SetCompareCH1 ( TIMx, 0x0u );
  LL_TIM_OC_SetCompareCH2 ( TIMx, 0x0u );
  LL_TIM_OC_SetCompareCH3 ( TIMx, 0x0u );

  LL_TIM_OC_SetCompareCH4( TIMx, ( pHandle->Half_PWMPeriod - 5u));
 800695e:	f8b0 209c 	ldrh.w	r2, [r0, #156]	@ 0x9c
  WRITE_REG(TIMx->CCR1, CompareValue);
 8006962:	2100      	movs	r1, #0
  WRITE_REG(TIMx->SR, ~(TIM_SR_UIF));
 8006964:	f06f 0501 	mvn.w	r5, #1
 8006968:	3a05      	subs	r2, #5
 800696a:	611d      	str	r5, [r3, #16]
  WRITE_REG(TIMx->CCR1, CompareValue);
 800696c:	6359      	str	r1, [r3, #52]	@ 0x34
  WRITE_REG(TIMx->CCR2, CompareValue);
 800696e:	6399      	str	r1, [r3, #56]	@ 0x38
  WRITE_REG(TIMx->CCR3, CompareValue);
 8006970:	63d9      	str	r1, [r3, #60]	@ 0x3c
  WRITE_REG(TIMx->CCR4, CompareValue);
 8006972:	641a      	str	r2, [r3, #64]	@ 0x40
  return ((READ_BIT(TIMx->SR, TIM_SR_UIF) == (TIM_SR_UIF)) ? 1UL : 0UL);
 8006974:	691a      	ldr	r2, [r3, #16]
 8006976:	07d2      	lsls	r2, r2, #31
 8006978:	d5fc      	bpl.n	8006974 <R3_1_RLTurnOnLowSidesAndStart+0x2c>

  while ( LL_TIM_IsActiveFlag_UPDATE( TIMx ) == 0 )
  {}

  /* Main PWM Output Enable */
  TIMx->BDTR |= LL_TIM_OSSI_ENABLE ;
 800697a:	6c5a      	ldr	r2, [r3, #68]	@ 0x44
 800697c:	f442 6280 	orr.w	r2, r2, #1024	@ 0x400
 8006980:	645a      	str	r2, [r3, #68]	@ 0x44
  SET_BIT(TIMx->BDTR, TIM_BDTR_MOE);
 8006982:	6c5a      	ldr	r2, [r3, #68]	@ 0x44
 8006984:	f442 4200 	orr.w	r2, r2, #32768	@ 0x8000
 8006988:	645a      	str	r2, [r3, #68]	@ 0x44
  LL_TIM_EnableAllOutputs ( TIMx );

  if ( ( pHandle->_Super.LowSideOutputs ) == ES_GPIO )
 800698a:	f890 307d 	ldrb.w	r3, [r0, #125]	@ 0x7d
 800698e:	2b02      	cmp	r3, #2
 8006990:	d10b      	bne.n	80069aa <R3_1_RLTurnOnLowSidesAndStart+0x62>
  {
      /* It is executed during calibration phase the EN signal shall stay off */
      LL_GPIO_SetOutputPin( pHandle->_Super.pwm_en_u_port, pHandle->_Super.pwm_en_u_pin );
      LL_GPIO_SetOutputPin( pHandle->_Super.pwm_en_v_port, pHandle->_Super.pwm_en_v_pin );
 8006992:	e9d0 210f 	ldrd	r2, r1, [r0, #60]	@ 0x3c
      LL_GPIO_SetOutputPin( pHandle->_Super.pwm_en_u_port, pHandle->_Super.pwm_en_u_pin );
 8006996:	f8b0 5048 	ldrh.w	r5, [r0, #72]	@ 0x48
      LL_GPIO_SetOutputPin( pHandle->_Super.pwm_en_w_port, pHandle->_Super.pwm_en_w_pin );
 800699a:	6c43      	ldr	r3, [r0, #68]	@ 0x44
  WRITE_REG(GPIOx->BSRR, PinMask);
 800699c:	6195      	str	r5, [r2, #24]
      LL_GPIO_SetOutputPin( pHandle->_Super.pwm_en_v_port, pHandle->_Super.pwm_en_v_pin );
 800699e:	f8b0 504a 	ldrh.w	r5, [r0, #74]	@ 0x4a
      LL_GPIO_SetOutputPin( pHandle->_Super.pwm_en_w_port, pHandle->_Super.pwm_en_w_pin );
 80069a2:	f8b0 204c 	ldrh.w	r2, [r0, #76]	@ 0x4c
 80069a6:	618d      	str	r5, [r1, #24]
 80069a8:	619a      	str	r2, [r3, #24]
  SET_BIT(ADCx->CR2, ExternalTriggerEdge);
 80069aa:	68a3      	ldr	r3, [r4, #8]
 80069ac:	f443 1380 	orr.w	r3, r3, #1048576	@ 0x100000
 80069b0:	60a3      	str	r3, [r4, #8]

//  ADCx->JSQR = pHandle->wADC_JSQR_phAB;
  LL_ADC_INJ_StartConversionExtTrig(ADCx,LL_ADC_INJ_TRIG_EXT_RISING);

  return;
}
 80069b2:	bc30      	pop	{r4, r5}
 80069b4:	4770      	bx	lr
 80069b6:	bf00      	nop

080069b8 <RVBS_Clear>:
  {
#endif
    uint16_t aux;
    uint16_t index;

    aux = (pHandle->OverVoltageThreshold + pHandle->UnderVoltageThreshold) / 2U;
 80069b8:	f8b0 c00c 	ldrh.w	ip, [r0, #12]
 80069bc:	8a42      	ldrh	r2, [r0, #18]
    for (index = 0U; index < pHandle->LowPassFilterBW; index++)
 80069be:	8943      	ldrh	r3, [r0, #10]
    aux = (pHandle->OverVoltageThreshold + pHandle->UnderVoltageThreshold) / 2U;
 80069c0:	4494      	add	ip, r2
 80069c2:	ea4f 0c5c 	mov.w	ip, ip, lsr #1
{
 80069c6:	b430      	push	{r4, r5}
 80069c8:	2500      	movs	r5, #0
 80069ca:	f36c 050f 	bfi	r5, ip, #0, #16
 80069ce:	f36c 451f 	bfi	r5, ip, #16, #16
    for (index = 0U; index < pHandle->LowPassFilterBW; index++)
 80069d2:	b14b      	cbz	r3, 80069e8 <RVBS_Clear+0x30>
    {
      pHandle->aBuffer[index] = aux;
 80069d4:	6944      	ldr	r4, [r0, #20]
 80069d6:	2300      	movs	r3, #0
 80069d8:	b29a      	uxth	r2, r3
    for (index = 0U; index < pHandle->LowPassFilterBW; index++)
 80069da:	3301      	adds	r3, #1
      pHandle->aBuffer[index] = aux;
 80069dc:	f824 c012 	strh.w	ip, [r4, r2, lsl #1]
    for (index = 0U; index < pHandle->LowPassFilterBW; index++)
 80069e0:	8941      	ldrh	r1, [r0, #10]
 80069e2:	b29a      	uxth	r2, r3
 80069e4:	4291      	cmp	r1, r2
 80069e6:	d8f7      	bhi.n	80069d8 <RVBS_Clear+0x20>
    }
    pHandle->_Super.LatestConv = aux;
    pHandle->_Super.AvBusVoltage_d = aux;
    pHandle->index = 0U;
 80069e8:	2300      	movs	r3, #0
    pHandle->_Super.LatestConv = aux;
 80069ea:	6045      	str	r5, [r0, #4]
    pHandle->index = 0U;
 80069ec:	7643      	strb	r3, [r0, #25]
#ifdef NULL_PTR_CHECK_RDIV_BUS_VLT_SNS
  }
#endif
}
 80069ee:	bc30      	pop	{r4, r5}
 80069f0:	4770      	bx	lr
 80069f2:	bf00      	nop

080069f4 <RVBS_Init>:
{
 80069f4:	b508      	push	{r3, lr}
    RVBS_Clear(pHandle);
 80069f6:	f7ff ffdf 	bl	80069b8 <RVBS_Clear>
}
 80069fa:	bd08      	pop	{r3, pc}

080069fc <RVBS_CheckFaultState>:
  }
  else
  {
#endif
	/* If both thresholds are equal, single threshold feature is used */
	if (pHandle->OverVoltageThreshold == pHandle->OverVoltageThresholdLow)
 80069fc:	8982      	ldrh	r2, [r0, #12]
 80069fe:	89c1      	ldrh	r1, [r0, #14]
	{
      if (pHandle->_Super.AvBusVoltage_d > pHandle->OverVoltageThreshold)
 8006a00:	88c3      	ldrh	r3, [r0, #6]
	if (pHandle->OverVoltageThreshold == pHandle->OverVoltageThresholdLow)
 8006a02:	428a      	cmp	r2, r1
 8006a04:	d010      	beq.n	8006a28 <RVBS_CheckFaultState+0x2c>
      }
	}
    else
    {
      /* If both thresholds are different, hysteresis feature is used (Brake mode) */
      if (pHandle->_Super.AvBusVoltage_d < pHandle->UnderVoltageThreshold)
 8006a06:	f8b0 c012 	ldrh.w	ip, [r0, #18]
 8006a0a:	459c      	cmp	ip, r3
 8006a0c:	d80a      	bhi.n	8006a24 <RVBS_CheckFaultState+0x28>
{
 8006a0e:	b410      	push	{r4}
      {
        fault = MC_UNDER_VOLT;
      }
      else if ( false == pHandle->OverVoltageHysteresisUpDir )
 8006a10:	7c04      	ldrb	r4, [r0, #16]
 8006a12:	b994      	cbnz	r4, 8006a3a <RVBS_CheckFaultState+0x3e>
      {
        if (pHandle->_Super.AvBusVoltage_d < pHandle->OverVoltageThresholdLow)
 8006a14:	4299      	cmp	r1, r3
 8006a16:	d914      	bls.n	8006a42 <RVBS_CheckFaultState+0x46>
        {
          pHandle->OverVoltageHysteresisUpDir = true;
 8006a18:	2301      	movs	r3, #1
 8006a1a:	7403      	strb	r3, [r0, #16]
        {
          pHandle->OverVoltageHysteresisUpDir = false;
          fault = MC_OVER_VOLT;
        }
        else{
          fault = MC_NO_ERROR;
 8006a1c:	2000      	movs	r0, #0
    }
#ifdef NULL_PTR_CHECK_RDIV_BUS_VLT_SNS
  }
#endif
  return (fault);
}
 8006a1e:	f85d 4b04 	ldr.w	r4, [sp], #4
 8006a22:	4770      	bx	lr
        fault = MC_UNDER_VOLT;
 8006a24:	2004      	movs	r0, #4
 8006a26:	4770      	bx	lr
      if (pHandle->_Super.AvBusVoltage_d > pHandle->OverVoltageThreshold)
 8006a28:	429a      	cmp	r2, r3
 8006a2a:	d30c      	bcc.n	8006a46 <RVBS_CheckFaultState+0x4a>
      else if (pHandle->_Super.AvBusVoltage_d < pHandle->UnderVoltageThreshold)
 8006a2c:	8a40      	ldrh	r0, [r0, #18]
 8006a2e:	4298      	cmp	r0, r3
 8006a30:	bf94      	ite	ls
 8006a32:	2000      	movls	r0, #0
 8006a34:	2001      	movhi	r0, #1
 8006a36:	0080      	lsls	r0, r0, #2
 8006a38:	4770      	bx	lr
        if (pHandle->_Super.AvBusVoltage_d > pHandle->OverVoltageThreshold)
 8006a3a:	429a      	cmp	r2, r3
 8006a3c:	d2ee      	bcs.n	8006a1c <RVBS_CheckFaultState+0x20>
          pHandle->OverVoltageHysteresisUpDir = false;
 8006a3e:	2300      	movs	r3, #0
 8006a40:	7403      	strb	r3, [r0, #16]
          fault = MC_OVER_VOLT;
 8006a42:	2002      	movs	r0, #2
 8006a44:	e7eb      	b.n	8006a1e <RVBS_CheckFaultState+0x22>
 8006a46:	2002      	movs	r0, #2
}
 8006a48:	4770      	bx	lr
 8006a4a:	bf00      	nop

08006a4c <RVBS_CalcAvVbus>:
{
 8006a4c:	b538      	push	{r3, r4, r5, lr}
    if (0xFFFFU == hAux)
 8006a4e:	f64f 73ff 	movw	r3, #65535	@ 0xffff
 8006a52:	4299      	cmp	r1, r3
{
 8006a54:	4604      	mov	r4, r0
    if (0xFFFFU == hAux)
 8006a56:	d021      	beq.n	8006a9c <RVBS_CalcAvVbus+0x50>
      pHandle->aBuffer[pHandle->index] = hAux;
 8006a58:	6943      	ldr	r3, [r0, #20]
 8006a5a:	7e45      	ldrb	r5, [r0, #25]
 8006a5c:	f823 1015 	strh.w	r1, [r3, r5, lsl #1]
      for (i = 0U; i < (uint8_t)pHandle->LowPassFilterBW; i++)
 8006a60:	f8b0 e00a 	ldrh.w	lr, [r0, #10]
 8006a64:	f01e 02ff 	ands.w	r2, lr, #255	@ 0xff
 8006a68:	d00d      	beq.n	8006a86 <RVBS_CalcAvVbus+0x3a>
 8006a6a:	3a01      	subs	r2, #1
 8006a6c:	b2d2      	uxtb	r2, r2
 8006a6e:	eb03 0042 	add.w	r0, r3, r2, lsl #1
 8006a72:	3b02      	subs	r3, #2
      wtemp = 0u;
 8006a74:	2200      	movs	r2, #0
        wtemp += pHandle->aBuffer[i];
 8006a76:	f833 cf02 	ldrh.w	ip, [r3, #2]!
      for (i = 0U; i < (uint8_t)pHandle->LowPassFilterBW; i++)
 8006a7a:	4298      	cmp	r0, r3
        wtemp += pHandle->aBuffer[i];
 8006a7c:	4462      	add	r2, ip
      for (i = 0U; i < (uint8_t)pHandle->LowPassFilterBW; i++)
 8006a7e:	d1fa      	bne.n	8006a76 <RVBS_CalcAvVbus+0x2a>
      wtemp /= pHandle->LowPassFilterBW;
 8006a80:	fbb2 f2fe 	udiv	r2, r2, lr
      pHandle->_Super.AvBusVoltage_d = (uint16_t)wtemp;
 8006a84:	b292      	uxth	r2, r2
      if ((uint16_t)pHandle->index < (pHandle->LowPassFilterBW - 1U))
 8006a86:	f10e 3eff 	add.w	lr, lr, #4294967295
 8006a8a:	4575      	cmp	r5, lr
        pHandle->index++;
 8006a8c:	bf34      	ite	cc
 8006a8e:	3501      	addcc	r5, #1
        pHandle->index = 0U;
 8006a90:	2300      	movcs	r3, #0
      pHandle->_Super.AvBusVoltage_d = (uint16_t)wtemp;
 8006a92:	80e2      	strh	r2, [r4, #6]
      pHandle->_Super.LatestConv = hAux;
 8006a94:	80a1      	strh	r1, [r4, #4]
        pHandle->index++;
 8006a96:	bf34      	ite	cc
 8006a98:	7665      	strbcc	r5, [r4, #25]
        pHandle->index = 0U;
 8006a9a:	7663      	strbcs	r3, [r4, #25]
    pHandle->_Super.FaultState = RVBS_CheckFaultState(pHandle);
 8006a9c:	4620      	mov	r0, r4
 8006a9e:	f7ff ffad 	bl	80069fc <RVBS_CheckFaultState>
 8006aa2:	8120      	strh	r0, [r4, #8]
}
 8006aa4:	bd38      	pop	{r3, r4, r5, pc}
 8006aa6:	bf00      	nop

08006aa8 <REMNG_Init>:
  }
  else
  {
#endif
    pHandle->Ext = 0;
    pHandle->TargetFinal = 0;
 8006aa8:	2300      	movs	r3, #0
    pHandle->RampRemainingStep = 0U;
    pHandle->IncDecAmount = 0;
    pHandle->ScalingFactor = 1U;
 8006aaa:	2201      	movs	r2, #1
    pHandle->TargetFinal = 0;
 8006aac:	e9c0 3301 	strd	r3, r3, [r0, #4]
    pHandle->IncDecAmount = 0;
 8006ab0:	e9c0 3303 	strd	r3, r3, [r0, #12]
    pHandle->ScalingFactor = 1U;
 8006ab4:	6142      	str	r2, [r0, #20]
#ifdef NULL_PTR_CHECK_RMP_EXT_MNG
  }
#endif
}
 8006ab6:	4770      	bx	lr

08006ab8 <SPD_GetElAngle>:
#ifdef NULL_PTR_CHECK_SPD_POS_FBK
  return ((MC_NULL == pHandle) ? 0 : pHandle->hElAngle);
#else
  return (pHandle->hElAngle);
#endif
}
 8006ab8:	f9b0 0004 	ldrsh.w	r0, [r0, #4]
 8006abc:	4770      	bx	lr
 8006abe:	bf00      	nop

08006ac0 <SPD_GetAvrgMecSpeedUnit>:
#ifdef NULL_PTR_CHECK_SPD_POS_FBK
  return ((MC_NULL == pHandle) ? 0 : pHandle->hAvrMecSpeedUnit);
#else
  return (pHandle->hAvrMecSpeedUnit);
#endif
}
 8006ac0:	f9b0 000c 	ldrsh.w	r0, [r0, #12]
 8006ac4:	4770      	bx	lr
 8006ac6:	bf00      	nop

08006ac8 <SPD_GetInstElSpeedDpp>:
#ifdef NULL_PTR_CHECK_SPD_POS_FBK
  return ((MC_NULL == pHandle) ? 0 : pHandle->InstantaneousElSpeedDpp);
#else
  return (pHandle->InstantaneousElSpeedDpp);
#endif
}
 8006ac8:	f9b0 0010 	ldrsh.w	r0, [r0, #16]
 8006acc:	4770      	bx	lr
 8006ace:	bf00      	nop

08006ad0 <SPD_IsMecSpeedReliable>:
    bool SpeedError = false;

    bSpeedErrorNumber = pHandle->bSpeedErrorNumber;

    /* Compute absoulte value of mechanical speed */
    if (*pMecSpeedUnit < 0)
 8006ad0:	f9b1 c000 	ldrsh.w	ip, [r1]
{
 8006ad4:	4603      	mov	r3, r0
 8006ad6:	b510      	push	{r4, lr}
    {
      hAux = -(*pMecSpeedUnit);
 8006ad8:	fa1f f18c 	uxth.w	r1, ip
    if (*pMecSpeedUnit < 0)
 8006adc:	f1bc 0f00 	cmp.w	ip, #0
      hAux = -(*pMecSpeedUnit);
 8006ae0:	bfb8      	it	lt
 8006ae2:	4249      	neglt	r1, r1
    else
    {
      /* Nothing to do */
    }

    if (hAbsMecSpeedUnit < pHandle->hMinReliableMecSpeedUnit)
 8006ae4:	f8b3 e016 	ldrh.w	lr, [r3, #22]
    uint8_t bMaximumSpeedErrorsNumber = pHandle->bMaximumSpeedErrorsNumber;
 8006ae8:	78c0      	ldrb	r0, [r0, #3]
    bSpeedErrorNumber = pHandle->bSpeedErrorNumber;
 8006aea:	781a      	ldrb	r2, [r3, #0]
    if (hAbsMecSpeedUnit > pHandle->hMaxReliableMecSpeedUnit)
 8006aec:	8a9c      	ldrh	r4, [r3, #20]
    {
      /* Nothing to do */
    }

    /* Compute absoulte value of mechanical acceleration */
    if (pHandle->hMecAccelUnitP < 0)
 8006aee:	f9b3 c012 	ldrsh.w	ip, [r3, #18]
      hAux = -(*pMecSpeedUnit);
 8006af2:	bfb8      	it	lt
 8006af4:	b289      	uxthlt	r1, r1
    if (hAbsMecSpeedUnit < pHandle->hMinReliableMecSpeedUnit)
 8006af6:	458e      	cmp	lr, r1
 8006af8:	d816      	bhi.n	8006b28 <SPD_IsMecSpeedReliable+0x58>
    {
      hAux = -(pHandle->hMecAccelUnitP);
 8006afa:	fa1f fe8c 	uxth.w	lr, ip
    if (pHandle->hMecAccelUnitP < 0)
 8006afe:	f1bc 0f00 	cmp.w	ip, #0
      hAux = -(pHandle->hMecAccelUnitP);
 8006b02:	bfb8      	it	lt
 8006b04:	f1ce 0e00 	rsblt	lr, lr, #0
    else
    {
      hAbsMecAccelUnitP = (uint16_t)pHandle->hMecAccelUnitP;
    }

    if (hAbsMecAccelUnitP > pHandle->hMaxReliableMecAccelUnitP)
 8006b08:	f8b3 c018 	ldrh.w	ip, [r3, #24]
      hAux = -(pHandle->hMecAccelUnitP);
 8006b0c:	bfb8      	it	lt
 8006b0e:	fa1f fe8e 	uxthlt.w	lr, lr
    if (hAbsMecAccelUnitP > pHandle->hMaxReliableMecAccelUnitP)
 8006b12:	45f4      	cmp	ip, lr
 8006b14:	d308      	bcc.n	8006b28 <SPD_IsMecSpeedReliable+0x58>
    else
    {
      /* Nothing to do */
    }

    if (true == SpeedError)
 8006b16:	428c      	cmp	r4, r1
 8006b18:	d306      	bcc.n	8006b28 <SPD_IsMecSpeedReliable+0x58>
        /* Nothing to do */
      }
    }
    else
    {
      if (bSpeedErrorNumber < bMaximumSpeedErrorsNumber)
 8006b1a:	4290      	cmp	r0, r2
 8006b1c:	d809      	bhi.n	8006b32 <SPD_IsMecSpeedReliable+0x62>
      {
        /* Nothing to do */
      }
    }

    if (bSpeedErrorNumber == bMaximumSpeedErrorsNumber)
 8006b1e:	1a10      	subs	r0, r2, r0
    else
    {
      /* Nothing to do */
    }

    pHandle->bSpeedErrorNumber = bSpeedErrorNumber;
 8006b20:	701a      	strb	r2, [r3, #0]
    if (bSpeedErrorNumber == bMaximumSpeedErrorsNumber)
 8006b22:	bf18      	it	ne
 8006b24:	2001      	movne	r0, #1
#ifdef NULL_PTR_CHECK_SPD_POS_FBK
  }
#endif
  return (SpeedSensorReliability);
}
 8006b26:	bd10      	pop	{r4, pc}
      if (bSpeedErrorNumber < bMaximumSpeedErrorsNumber)
 8006b28:	4290      	cmp	r0, r2
 8006b2a:	d9f8      	bls.n	8006b1e <SPD_IsMecSpeedReliable+0x4e>
        bSpeedErrorNumber++;
 8006b2c:	3201      	adds	r2, #1
 8006b2e:	b2d2      	uxtb	r2, r2
 8006b30:	e7f5      	b.n	8006b1e <SPD_IsMecSpeedReliable+0x4e>
        bSpeedErrorNumber = 0u;
 8006b32:	2200      	movs	r2, #0
    pHandle->bSpeedErrorNumber = bSpeedErrorNumber;
 8006b34:	701a      	strb	r2, [r3, #0]
  bool SpeedSensorReliability = true;
 8006b36:	2001      	movs	r0, #1
}
 8006b38:	bd10      	pop	{r4, pc}
 8006b3a:	bf00      	nop

08006b3c <SPD_GetS16Speed>:
  }
  else
  {
#endif
    int32_t wAux = (int32_t)pHandle->hAvrMecSpeedUnit;
    wAux *= INT16_MAX;
 8006b3c:	f9b0 300c 	ldrsh.w	r3, [r0, #12]
    wAux /= (int16_t)pHandle->hMaxReliableMecSpeedUnit;
 8006b40:	f9b0 2014 	ldrsh.w	r2, [r0, #20]
    wAux *= INT16_MAX;
 8006b44:	ebc3 33c3 	rsb	r3, r3, r3, lsl #15
    wAux /= (int16_t)pHandle->hMaxReliableMecSpeedUnit;
 8006b48:	fb93 f0f2 	sdiv	r0, r3, r2
    tempValue = (int16_t)wAux;
#ifdef NULL_PTR_CHECK_SPD_POS_FBK
  }
#endif
  return (tempValue);
}
 8006b4c:	b200      	sxth	r0, r0
 8006b4e:	4770      	bx	lr

08006b50 <STC_Init>:
  {
#endif
    pHandle->PISpeed = pPI;
    pHandle->SPD = SPD_Handle;
    pHandle->Mode = pHandle->ModeDefault;
    pHandle->SpeedRefUnitExt = ((int32_t)pHandle->MecSpeedRefUnitDefault) * 65536;
 8006b50:	f9b0 c02c 	ldrsh.w	ip, [r0, #44]	@ 0x2c
    pHandle->PISpeed = pPI;
 8006b54:	6101      	str	r1, [r0, #16]
    pHandle->TorqueRef = ((int32_t)pHandle->TorqueRefDefault) * 65536;
 8006b56:	f9b0 102e 	ldrsh.w	r1, [r0, #46]	@ 0x2e
    pHandle->SPD = SPD_Handle;
 8006b5a:	6142      	str	r2, [r0, #20]
{
 8006b5c:	b410      	push	{r4}
    pHandle->Mode = pHandle->ModeDefault;
 8006b5e:	f890 402a 	ldrb.w	r4, [r0, #42]	@ 0x2a
 8006b62:	7004      	strb	r4, [r0, #0]
    pHandle->TargetFinal = 0;
 8006b64:	2300      	movs	r3, #0
    pHandle->SpeedRefUnitExt = ((int32_t)pHandle->MecSpeedRefUnitDefault) * 65536;
 8006b66:	ea4f 440c 	mov.w	r4, ip, lsl #16
    pHandle->TorqueRef = ((int32_t)pHandle->TorqueRefDefault) * 65536;
 8006b6a:	0409      	lsls	r1, r1, #16
 8006b6c:	e9c0 4101 	strd	r4, r1, [r0, #4]
    pHandle->TargetFinal = 0;
 8006b70:	8043      	strh	r3, [r0, #2]
    pHandle->RampRemainingStep = 0U;
    pHandle->IncDecAmount = 0;
#ifdef NULL_PTR_CHECK_SPD_TRQ_CTL
  }
#endif
}
 8006b72:	f85d 4b04 	ldr.w	r4, [sp], #4
    pHandle->RampRemainingStep = 0U;
 8006b76:	60c3      	str	r3, [r0, #12]
    pHandle->IncDecAmount = 0;
 8006b78:	6183      	str	r3, [r0, #24]
}
 8006b7a:	4770      	bx	lr

08006b7c <STC_SetSpeedSensor>:
    /* Nothing to do */
  }
  else
  {
#endif
    pHandle->SPD = SPD_Handle;
 8006b7c:	6141      	str	r1, [r0, #20]
#ifdef NULL_PTR_CHECK_SPD_TRQ_CTL
  }
#endif
}
 8006b7e:	4770      	bx	lr

08006b80 <STC_GetSpeedSensor>:
#ifdef NULL_PTR_CHECK_SPD_TRQ_CTL
  return ((MC_NULL ==  pHandle) ? MC_NULL : pHandle->SPD);
#else
  return (pHandle->SPD);
#endif
}
 8006b80:	6940      	ldr	r0, [r0, #20]
 8006b82:	4770      	bx	lr

08006b84 <STC_Clear>:
    /* Nothing to do */
  }
  else
  {
#endif
    if (MCM_SPEED_MODE == pHandle->Mode)
 8006b84:	7803      	ldrb	r3, [r0, #0]
 8006b86:	2b03      	cmp	r3, #3
 8006b88:	d000      	beq.n	8006b8c <STC_Clear+0x8>
      /* Nothing to do */
    }
#ifdef NULL_PTR_CHECK_SPD_TRQ_CTL
  }
#endif
}
 8006b8a:	4770      	bx	lr
      PID_SetIntegralTerm(pHandle->PISpeed, 0);
 8006b8c:	6900      	ldr	r0, [r0, #16]
 8006b8e:	2100      	movs	r1, #0
 8006b90:	f7ff b8f4 	b.w	8005d7c <PID_SetIntegralTerm>

08006b94 <STC_GetMecSpeedRefUnit>:
  return ((MC_NULL == pHandle) ? 0 : (int16_t)(pHandle->SpeedRefUnitExt / 65536));
#else
  return ((int16_t)(pHandle->SpeedRefUnitExt / 65536));
#endif
#endif
}
 8006b94:	f9b0 0006 	ldrsh.w	r0, [r0, #6]
 8006b98:	4770      	bx	lr
 8006b9a:	bf00      	nop

08006b9c <STC_GetTorqueRef>:
  return ((MC_NULL == pHandle) ? 0 : (int16_t)(pHandle->TorqueRef / 65536));
#else
  return ((int16_t)(pHandle->TorqueRef / 65536));
#endif
#endif
}
 8006b9c:	f9b0 000a 	ldrsh.w	r0, [r0, #10]
 8006ba0:	4770      	bx	lr
 8006ba2:	bf00      	nop

08006ba4 <STC_SetControlMode>:
  }
  else
  {
#endif
    pHandle->Mode = bMode;
    pHandle->RampRemainingStep = 0u; /* Interrupts previous ramp */
 8006ba4:	2300      	movs	r3, #0
    pHandle->Mode = bMode;
 8006ba6:	7001      	strb	r1, [r0, #0]
    pHandle->RampRemainingStep = 0u; /* Interrupts previous ramp */
 8006ba8:	60c3      	str	r3, [r0, #12]
#ifdef NULL_PTR_CHECK_SPD_TRQ_CTL
  }
#endif
}
 8006baa:	4770      	bx	lr

08006bac <STC_ExecRamp>:
  * @ref EncAlignCtrl "Encoder Alignment Control",
  * @ref PositionControl "Position Control" loop or
  * speed regulation with @ref SpeedRegulatorPotentiometer Speed potentiometer.
  */
__weak bool STC_ExecRamp(SpeednTorqCtrl_Handle_t *pHandle, int16_t hTargetFinal, uint32_t hDurationms)
{
 8006bac:	b570      	push	{r4, r5, r6, lr}
    uint32_t wAux;
    int32_t wAux1;
    int16_t hCurrentReference;

    /* Check if the hTargetFinal is out of the bound of application */
    if (MCM_TORQUE_MODE == pHandle->Mode)
 8006bae:	7803      	ldrb	r3, [r0, #0]
 8006bb0:	2b04      	cmp	r3, #4
{
 8006bb2:	4604      	mov	r4, r0
 8006bb4:	460d      	mov	r5, r1
 8006bb6:	4616      	mov	r6, r2
    if (MCM_TORQUE_MODE == pHandle->Mode)
 8006bb8:	d01d      	beq.n	8006bf6 <STC_ExecRamp+0x4a>
#else
      hCurrentReference = (int16_t)(pHandle->SpeedRefUnitExt / 65536);
#endif

#ifdef CHECK_BOUNDARY
      if ((int32_t)hTargetFinal > (int32_t)pHandle->MaxAppPositiveMecSpeedUnit)
 8006bba:	8bc3      	ldrh	r3, [r0, #30]
      hCurrentReference = (int16_t)(pHandle->SpeedRefUnitExt >> 16);
 8006bbc:	f9b0 0006 	ldrsh.w	r0, [r0, #6]
      if ((int32_t)hTargetFinal > (int32_t)pHandle->MaxAppPositiveMecSpeedUnit)
 8006bc0:	4299      	cmp	r1, r3
 8006bc2:	dd01      	ble.n	8006bc8 <STC_ExecRamp+0x1c>
 8006bc4:	2000      	movs	r0, #0
    }
#ifdef NULL_PTR_CHECK_SPD_TRQ_CTL
  }
#endif
  return (allowedRange);
}
 8006bc6:	bd70      	pop	{r4, r5, r6, pc}
      else if (hTargetFinal < pHandle->MinAppNegativeMecSpeedUnit)
 8006bc8:	f9b4 3024 	ldrsh.w	r3, [r4, #36]	@ 0x24
 8006bcc:	428b      	cmp	r3, r1
 8006bce:	dcf9      	bgt.n	8006bc4 <STC_ExecRamp+0x18>
      else if ((int32_t)hTargetFinal < (int32_t)pHandle->MinAppPositiveMecSpeedUnit)
 8006bd0:	8c23      	ldrh	r3, [r4, #32]
 8006bd2:	4299      	cmp	r1, r3
 8006bd4:	da03      	bge.n	8006bde <STC_ExecRamp+0x32>
        if (hTargetFinal > pHandle->MaxAppNegativeMecSpeedUnit)
 8006bd6:	f9b4 3022 	ldrsh.w	r3, [r4, #34]	@ 0x22
 8006bda:	428b      	cmp	r3, r1
 8006bdc:	dbf2      	blt.n	8006bc4 <STC_ExecRamp+0x18>
      if (0U == hDurationms)
 8006bde:	b9a6      	cbnz	r6, 8006c0a <STC_ExecRamp+0x5e>
        if (MCM_SPEED_MODE == pHandle->Mode)
 8006be0:	7823      	ldrb	r3, [r4, #0]
          pHandle->SpeedRefUnitExt = ((int32_t)hTargetFinal) * 65536;
 8006be2:	042d      	lsls	r5, r5, #16
        if (MCM_SPEED_MODE == pHandle->Mode)
 8006be4:	2b03      	cmp	r3, #3
          pHandle->SpeedRefUnitExt = ((int32_t)hTargetFinal) * 65536;
 8006be6:	bf0c      	ite	eq
 8006be8:	6065      	streq	r5, [r4, #4]
          pHandle->TorqueRef = ((int32_t)hTargetFinal) * 65536;
 8006bea:	60a5      	strne	r5, [r4, #8]
        pHandle->IncDecAmount = 0;
 8006bec:	2000      	movs	r0, #0
        pHandle->IncDecAmount = wAux1;
 8006bee:	61a0      	str	r0, [r4, #24]
        pHandle->RampRemainingStep++;
 8006bf0:	60e6      	str	r6, [r4, #12]
        pHandle->IncDecAmount = wAux1;
 8006bf2:	2001      	movs	r0, #1
}
 8006bf4:	bd70      	pop	{r4, r5, r6, pc}
      hCurrentReference = STC_GetTorqueRef(pHandle);
 8006bf6:	f7ff ffd1 	bl	8006b9c <STC_GetTorqueRef>
      if ((int32_t)hTargetFinal > (int32_t)pHandle->MaxPositiveTorque)
 8006bfa:	8ce3      	ldrh	r3, [r4, #38]	@ 0x26
 8006bfc:	42ab      	cmp	r3, r5
 8006bfe:	dbe1      	blt.n	8006bc4 <STC_ExecRamp+0x18>
      if ((int32_t)hTargetFinal < (int32_t)pHandle->MinNegativeTorque)
 8006c00:	f9b4 3028 	ldrsh.w	r3, [r4, #40]	@ 0x28
 8006c04:	42ab      	cmp	r3, r5
 8006c06:	dcdd      	bgt.n	8006bc4 <STC_ExecRamp+0x18>
 8006c08:	e7e9      	b.n	8006bde <STC_ExecRamp+0x32>
        wAux = ((uint32_t)hDurationms) * ((uint32_t)pHandle->STCFrequencyHz);
 8006c0a:	8ba3      	ldrh	r3, [r4, #28]
        wAux /= 1000U;
 8006c0c:	4a06      	ldr	r2, [pc, #24]	@ (8006c28 <STC_ExecRamp+0x7c>)
        pHandle->TargetFinal = hTargetFinal;
 8006c0e:	8065      	strh	r5, [r4, #2]
        wAux = ((uint32_t)hDurationms) * ((uint32_t)pHandle->STCFrequencyHz);
 8006c10:	fb06 f303 	mul.w	r3, r6, r3
        wAux /= 1000U;
 8006c14:	fba2 2303 	umull	r2, r3, r2, r3
        wAux1 = (((int32_t)hTargetFinal) - ((int32_t)hCurrentReference)) * 65536;
 8006c18:	1a28      	subs	r0, r5, r0
        wAux /= 1000U;
 8006c1a:	099b      	lsrs	r3, r3, #6
        pHandle->RampRemainingStep++;
 8006c1c:	1c5e      	adds	r6, r3, #1
        wAux1 = (((int32_t)hTargetFinal) - ((int32_t)hCurrentReference)) * 65536;
 8006c1e:	0400      	lsls	r0, r0, #16
        wAux1 /= ((int32_t)pHandle->RampRemainingStep);
 8006c20:	fb90 f0f6 	sdiv	r0, r0, r6
        pHandle->IncDecAmount = wAux1;
 8006c24:	e7e3      	b.n	8006bee <STC_ExecRamp+0x42>
 8006c26:	bf00      	nop
 8006c28:	10624dd3 	.word	0x10624dd3

08006c2c <STC_StopRamp>:
    /* Nothing to do */
  }
  else
  {
#endif
    pHandle->RampRemainingStep = 0U;
 8006c2c:	2300      	movs	r3, #0
 8006c2e:	60c3      	str	r3, [r0, #12]
    pHandle->IncDecAmount = 0;
 8006c30:	6183      	str	r3, [r0, #24]
#ifdef NULL_PTR_CHECK_SPD_TRQ_CTL
  }
#endif
}
 8006c32:	4770      	bx	lr

08006c34 <STC_CalcTorqueReference>:
  * - Must be called at fixed time equal to hSTCFrequencyHz. It is called
  * passing as parameter the speed sensor used to perform the speed regulation.
  * - Called during START and ALIGNEMENT states of the MC state machine into MediumFrequencyTask.
  */
__weak int16_t STC_CalcTorqueReference(SpeednTorqCtrl_Handle_t *pHandle)
{
 8006c34:	b538      	push	{r3, r4, r5, lr}
    int32_t wCurrentReference;
    int16_t hMeasuredSpeed;
    int16_t hTargetSpeed;
    int16_t hError;

    if (MCM_TORQUE_MODE == pHandle->Mode)
 8006c36:	7802      	ldrb	r2, [r0, #0]
      wCurrentReference = pHandle->SpeedRefUnitExt;
    }

    /* Update the speed reference or the torque reference according to the mode
       and terminates the ramp if needed */
    if (pHandle->RampRemainingStep > 1U)
 8006c38:	68c3      	ldr	r3, [r0, #12]
    if (MCM_TORQUE_MODE == pHandle->Mode)
 8006c3a:	2a04      	cmp	r2, #4
{
 8006c3c:	4604      	mov	r4, r0
    if (MCM_TORQUE_MODE == pHandle->Mode)
 8006c3e:	d012      	beq.n	8006c66 <STC_CalcTorqueReference+0x32>
    if (pHandle->RampRemainingStep > 1U)
 8006c40:	2b01      	cmp	r3, #1
      wCurrentReference = pHandle->SpeedRefUnitExt;
 8006c42:	6845      	ldr	r5, [r0, #4]
    if (pHandle->RampRemainingStep > 1U)
 8006c44:	d908      	bls.n	8006c58 <STC_CalcTorqueReference+0x24>
    {
      /* Increment/decrement the reference value */
      wCurrentReference += pHandle->IncDecAmount;
 8006c46:	6981      	ldr	r1, [r0, #24]

      /* Decrement the number of remaining steps */
      pHandle->RampRemainingStep--;
 8006c48:	3b01      	subs	r3, #1
      wCurrentReference += pHandle->IncDecAmount;
 8006c4a:	440d      	add	r5, r1
      pHandle->RampRemainingStep--;
 8006c4c:	60c3      	str	r3, [r0, #12]
    else
    {
      /* Do nothing */
    }

    if (MCM_SPEED_MODE == pHandle->Mode)
 8006c4e:	2a03      	cmp	r2, #3
 8006c50:	d011      	beq.n	8006c76 <STC_CalcTorqueReference+0x42>
    else
    {
      pHandle->TorqueRef = wCurrentReference;
#ifndef FULL_MISRA_C_COMPLIANCY_SPD_TORQ_CTRL
      //cstat !MISRAC2012-Rule-1.3_n !ATH-shift-neg !MISRAC2012-Rule-10.1_R6
      hTorqueReference = (int16_t)(wCurrentReference >> 16);
 8006c52:	1428      	asrs	r0, r5, #16
      pHandle->TorqueRef = ((int32_t)hTorqueReference) * 65536;
 8006c54:	60a5      	str	r5, [r4, #8]
    }
#ifdef NULL_PTR_CHECK_SPD_TRQ_CTL
  }
#endif
  return (hTorqueReference);
}
 8006c56:	bd38      	pop	{r3, r4, r5, pc}
    else if (1U == pHandle->RampRemainingStep)
 8006c58:	d1f9      	bne.n	8006c4e <STC_CalcTorqueReference+0x1a>
      wCurrentReference = ((int32_t)pHandle->TargetFinal) * 65536;
 8006c5a:	f9b0 5002 	ldrsh.w	r5, [r0, #2]
      pHandle->RampRemainingStep = 0U;
 8006c5e:	2300      	movs	r3, #0
      wCurrentReference = ((int32_t)pHandle->TargetFinal) * 65536;
 8006c60:	042d      	lsls	r5, r5, #16
      pHandle->RampRemainingStep = 0U;
 8006c62:	60c3      	str	r3, [r0, #12]
 8006c64:	e7f3      	b.n	8006c4e <STC_CalcTorqueReference+0x1a>
    if (pHandle->RampRemainingStep > 1U)
 8006c66:	2b01      	cmp	r3, #1
      wCurrentReference = pHandle->TorqueRef;
 8006c68:	6885      	ldr	r5, [r0, #8]
    if (pHandle->RampRemainingStep > 1U)
 8006c6a:	d911      	bls.n	8006c90 <STC_CalcTorqueReference+0x5c>
      wCurrentReference += pHandle->IncDecAmount;
 8006c6c:	6982      	ldr	r2, [r0, #24]
      pHandle->RampRemainingStep--;
 8006c6e:	3b01      	subs	r3, #1
      wCurrentReference += pHandle->IncDecAmount;
 8006c70:	4415      	add	r5, r2
      pHandle->RampRemainingStep--;
 8006c72:	60c3      	str	r3, [r0, #12]
    if (MCM_SPEED_MODE == pHandle->Mode)
 8006c74:	e7ed      	b.n	8006c52 <STC_CalcTorqueReference+0x1e>
      hMeasuredSpeed = SPD_GetAvrgMecSpeedUnit(pHandle->SPD);
 8006c76:	6960      	ldr	r0, [r4, #20]
 8006c78:	f7ff ff22 	bl	8006ac0 <SPD_GetAvrgMecSpeedUnit>
      hError = hTargetSpeed - hMeasuredSpeed;
 8006c7c:	ebc0 4125 	rsb	r1, r0, r5, asr #16
      hTorqueReference = PI_Controller(pHandle->PISpeed, (int32_t)hError);
 8006c80:	b209      	sxth	r1, r1
 8006c82:	6920      	ldr	r0, [r4, #16]
 8006c84:	f7ff f8ac 	bl	8005de0 <PI_Controller>
      pHandle->SpeedRefUnitExt = wCurrentReference;
 8006c88:	6065      	str	r5, [r4, #4]
      pHandle->TorqueRef = ((int32_t)hTorqueReference) * 65536;
 8006c8a:	0405      	lsls	r5, r0, #16
 8006c8c:	60a5      	str	r5, [r4, #8]
}
 8006c8e:	bd38      	pop	{r3, r4, r5, pc}
    else if (1U == pHandle->RampRemainingStep)
 8006c90:	d1df      	bne.n	8006c52 <STC_CalcTorqueReference+0x1e>
      wCurrentReference = ((int32_t)pHandle->TargetFinal) * 65536;
 8006c92:	f9b0 5002 	ldrsh.w	r5, [r0, #2]
      pHandle->RampRemainingStep = 0U;
 8006c96:	2300      	movs	r3, #0
      wCurrentReference = ((int32_t)pHandle->TargetFinal) * 65536;
 8006c98:	042d      	lsls	r5, r5, #16
      pHandle->RampRemainingStep = 0U;
 8006c9a:	60c3      	str	r3, [r0, #12]
    if (MCM_SPEED_MODE == pHandle->Mode)
 8006c9c:	e7d9      	b.n	8006c52 <STC_CalcTorqueReference+0x1e>
 8006c9e:	bf00      	nop

08006ca0 <STC_GetDefaultIqdref>:
    IqdRefDefault.d = 0;
  }
  else
  {
#endif
    IqdRefDefault.q = pHandle->TorqueRefDefault;
 8006ca0:	f8d0 302e 	ldr.w	r3, [r0, #46]	@ 0x2e
    IqdRefDefault.d = pHandle->IdrefDefault;
#ifdef NULL_PTR_CHECK_SPD_TRQ_CTL
  }
#endif
  return (IqdRefDefault);
 8006ca4:	2200      	movs	r2, #0
 8006ca6:	b299      	uxth	r1, r3
 8006ca8:	f361 020f 	bfi	r2, r1, #0, #16
 8006cac:	0c1b      	lsrs	r3, r3, #16
 8006cae:	f363 421f 	bfi	r2, r3, #16, #16
{
 8006cb2:	b082      	sub	sp, #8
}
 8006cb4:	4610      	mov	r0, r2
 8006cb6:	b002      	add	sp, #8
 8006cb8:	4770      	bx	lr
 8006cba:	bf00      	nop

08006cbc <STC_ForceSpeedReferenceToCurrentSpeed>:
  *
  * - Called during the CHARGE_BOOT_CAP, SWITCH_OVER and WAIT_STOP_MOTOR states of the MC state machine
  * into MediumFrequencyTask to initialize the speed reference.
  */
__weak void STC_ForceSpeedReferenceToCurrentSpeed(SpeednTorqCtrl_Handle_t *pHandle)
{
 8006cbc:	b510      	push	{r4, lr}
 8006cbe:	4604      	mov	r4, r0
    /* Nothing to do */
  }
  else
  {
#endif
    pHandle->SpeedRefUnitExt = ((int32_t)SPD_GetAvrgMecSpeedUnit(pHandle->SPD)) * (int32_t)65536;
 8006cc0:	6940      	ldr	r0, [r0, #20]
 8006cc2:	f7ff fefd 	bl	8006ac0 <SPD_GetAvrgMecSpeedUnit>
 8006cc6:	0400      	lsls	r0, r0, #16
 8006cc8:	6060      	str	r0, [r4, #4]
#ifdef NULL_PTR_CHECK_SPD_TRQ_CTL
  }
#endif
}
 8006cca:	bd10      	pop	{r4, pc}

08006ccc <STO_CR_CalcElAngle>:
  *         pInputs pointer to the observer inputs structure.
  * @retval int16_t rotor electrical angle (s16Degrees)
  */
//cstat !MISRAC2012-Rule-8.13
__weak int16_t STO_CR_CalcElAngle(STO_CR_Handle_t *pHandle, Observer_Inputs_t *pInputs)
{
 8006ccc:	e92d 4ff0 	stmdb	sp!, {r4, r5, r6, r7, r8, r9, sl, fp, lr}
 8006cd0:	b085      	sub	sp, #20
    int16_t hRotor_Acceleration;
    int16_t hRotor_Angle;
    int16_t hValfa;
    int16_t hVbeta;

    int16_t hPrev_Rotor_Angle = pHandle->_Super.hElAngle;
 8006cd2:	f9b0 2004 	ldrsh.w	r2, [r0, #4]
 8006cd6:	9200      	str	r2, [sp, #0]
    int16_t hPrev_Rotor_Speed = pHandle->_Super.hElSpeedDpp;
    int16_t hMax_Instant_Accel = pHandle->MaxInstantElAcceleration;
 8006cd8:	f9b0 2176 	ldrsh.w	r2, [r0, #374]	@ 0x176
 8006cdc:	9201      	str	r2, [sp, #4]

    if (pHandle->wBemf_alfa_est > ((int32_t)pHandle->hF2 * INT16_MAX))
 8006cde:	f9b0 202e 	ldrsh.w	r2, [r0, #46]	@ 0x2e
    int16_t hPrev_Rotor_Speed = pHandle->_Super.hElSpeedDpp;
 8006ce2:	f9b0 b00e 	ldrsh.w	fp, [r0, #14]
{
 8006ce6:	4603      	mov	r3, r0
    if (pHandle->wBemf_alfa_est > ((int32_t)pHandle->hF2 * INT16_MAX))
 8006ce8:	6bc0      	ldr	r0, [r0, #60]	@ 0x3c
 8006cea:	ebc2 32c2 	rsb	r2, r2, r2, lsl #15
 8006cee:	4290      	cmp	r0, r2
 8006cf0:	f340 81ab 	ble.w	800704a <STO_CR_CalcElAngle+0x37e>
    {
      pHandle->wBemf_alfa_est = INT16_MAX * (int32_t)(pHandle->hF2);
 8006cf4:	63da      	str	r2, [r3, #60]	@ 0x3c
 8006cf6:	4610      	mov	r0, r2
    {
      /* Nothing to do */
    }
#ifndef FULL_MISRA_C_COMPLIANCY_STO_CORDIC
    //cstat !MISRAC2012-Rule-1.3_n !ATH-shift-neg !MISRAC2012-Rule-10.1_R6
      hAux_Alfa = (int16_t)(pHandle->wBemf_alfa_est >> pHandle->F2LOG);
 8006cf8:	f8b3 e17e 	ldrh.w	lr, [r3, #382]	@ 0x17e
#else
      hAux_Alfa = (int16_t)(pHandle->wBemf_alfa_est / pHandle->hF2);
#endif

    if (pHandle->wBemf_beta_est > (INT16_MAX * (int32_t)(pHandle->hF2)))
 8006cfc:	6c1d      	ldr	r5, [r3, #64]	@ 0x40
      hAux_Alfa = (int16_t)(pHandle->wBemf_alfa_est >> pHandle->F2LOG);
 8006cfe:	fa40 f70e 	asr.w	r7, r0, lr
    if (pHandle->wBemf_beta_est > (INT16_MAX * (int32_t)(pHandle->hF2)))
 8006d02:	42aa      	cmp	r2, r5
      hAux_Alfa = (int16_t)(pHandle->wBemf_alfa_est >> pHandle->F2LOG);
 8006d04:	b23f      	sxth	r7, r7
    if (pHandle->wBemf_beta_est > (INT16_MAX * (int32_t)(pHandle->hF2)))
 8006d06:	f2c0 817c 	blt.w	8007002 <STO_CR_CalcElAngle+0x336>
    {
      pHandle->wBemf_beta_est = INT16_MAX * (int32_t)(pHandle->hF2);
    }
    else if (pHandle->wBemf_beta_est <= (-INT16_MAX * (int32_t)(pHandle->hF2)))
 8006d0a:	4252      	negs	r2, r2
 8006d0c:	4295      	cmp	r5, r2
 8006d0e:	f340 8178 	ble.w	8007002 <STO_CR_CalcElAngle+0x336>
      hAux_Beta = (int16_t)(pHandle->wBemf_beta_est >> pHandle->F2LOG);
#else
      hAux_Beta = (int16_t)(pHandle->wBemf_beta_est / pHandle->hF2);
#endif

    if (pHandle->Ialfa_est > (INT16_MAX * (int32_t)(pHandle->hF1)))
 8006d12:	f9b3 202c 	ldrsh.w	r2, [r3, #44]	@ 0x2c
 8006d16:	f8d3 9034 	ldr.w	r9, [r3, #52]	@ 0x34
 8006d1a:	ebc2 32c2 	rsb	r2, r2, r2, lsl #15
      hAux_Beta = (int16_t)(pHandle->wBemf_beta_est >> pHandle->F2LOG);
 8006d1e:	fa45 fe0e 	asr.w	lr, r5, lr
    if (pHandle->Ialfa_est > (INT16_MAX * (int32_t)(pHandle->hF1)))
 8006d22:	4591      	cmp	r9, r2
      hAux_Beta = (int16_t)(pHandle->wBemf_beta_est >> pHandle->F2LOG);
 8006d24:	fa0f fe8e 	sxth.w	lr, lr
    if (pHandle->Ialfa_est > (INT16_MAX * (int32_t)(pHandle->hF1)))
 8006d28:	f340 8195 	ble.w	8007056 <STO_CR_CalcElAngle+0x38a>
    {
      pHandle->Ialfa_est = INT16_MAX * (int32_t)(pHandle->hF1);
 8006d2c:	635a      	str	r2, [r3, #52]	@ 0x34
 8006d2e:	4691      	mov	r9, r2
    else
    {
      /* Nothing to do */
    }

    if (pHandle->Ibeta_est > (INT16_MAX * (int32_t)(pHandle->hF1)))
 8006d30:	f8d3 8038 	ldr.w	r8, [r3, #56]	@ 0x38
 8006d34:	4542      	cmp	r2, r8
 8006d36:	f2c0 8161 	blt.w	8006ffc <STO_CR_CalcElAngle+0x330>
    {
      pHandle->Ibeta_est = INT16_MAX * (int32_t)(pHandle->hF1);
    }
    else if (pHandle->Ibeta_est <= (-INT16_MAX * (int32_t)(pHandle->hF1)))
 8006d3a:	4252      	negs	r2, r2
 8006d3c:	4590      	cmp	r8, r2
 8006d3e:	f340 815d 	ble.w	8006ffc <STO_CR_CalcElAngle+0x330>
      /* Nothing to do */
    }

#ifndef FULL_MISRA_C_COMPLIANCY_STO_CORDIC
    //cstat !MISRAC2012-Rule-1.3_n !ATH-shift-neg !MISRAC2012-Rule-10.1_R6
    hIalfa_err = (int16_t)(pHandle->Ialfa_est >> pHandle->F1LOG);
 8006d42:	f8b3 c17c 	ldrh.w	ip, [r3, #380]	@ 0x17c
#else
    hIalfa_err = (int16_t)(pHandle->Ialfa_est / pHandle->hF1);
#endif

    hIalfa_err = hIalfa_err - pInputs->Ialfa_beta.alpha;
 8006d46:	888c      	ldrh	r4, [r1, #4]
    hAux = (int16_t)(pHandle->Ialfa_est >> pHandle->F1LOG);
#else
    hAux = (int16_t)(pHandle->Ialfa_est / pHandle->hF1);
#endif

    wAux = (int32_t)(pHandle->hC1) * hAux;
 8006d48:	f9b3 2020 	ldrsh.w	r2, [r3, #32]
 8006d4c:	9202      	str	r2, [sp, #8]
    hIalfa_err = (int16_t)(pHandle->Ialfa_est >> pHandle->F1LOG);
 8006d4e:	fa49 f20c 	asr.w	r2, r9, ip
    hIalfa_err = hIalfa_err - pInputs->Ialfa_beta.alpha;
 8006d52:	1b14      	subs	r4, r2, r4
    hIbeta_err = hIbeta_err - pInputs->Ialfa_beta.beta;
 8006d54:	88ce      	ldrh	r6, [r1, #6]
    hIalfa_err = hIalfa_err - pInputs->Ialfa_beta.alpha;
 8006d56:	9403      	str	r4, [sp, #12]
    wAux = (int32_t)(pHandle->hC1) * hAux;
 8006d58:	9c02      	ldr	r4, [sp, #8]
    wAux = (int32_t)(pInputs->Vbus) * pInputs->Valfa_beta.alpha;
 8006d5a:	f8b1 a008 	ldrh.w	sl, [r1, #8]
    hIbeta_err = (int16_t)(pHandle->Ibeta_est >> pHandle->F1LOG);
 8006d5e:	fa48 fc0c 	asr.w	ip, r8, ip
    hIbeta_err = hIbeta_err - pInputs->Ialfa_beta.beta;
 8006d62:	ebac 0606 	sub.w	r6, ip, r6
    wAux = (int32_t)(pHandle->hC1) * hAux;
 8006d66:	fb12 f204 	smulbb	r2, r2, r4
    hAux = (int16_t)(pHandle->Ibeta_est >> pHandle->F1LOG);
#else
    hAux = (int16_t)(pHandle->Ibeta_est / pHandle->hF1);
#endif

    wAux = (int32_t)(pHandle->hC1) * hAux;
 8006d6a:	fb1c fc04 	smulbb	ip, ip, r4
    wIalfa_est_Next = pHandle->Ialfa_est - wAux;
 8006d6e:	eba9 0202 	sub.w	r2, r9, r2
    wIbeta_est_Next = pHandle->Ibeta_est - wAux;
 8006d72:	eba8 0c0c 	sub.w	ip, r8, ip
    wAux = (int32_t)(pInputs->Vbus) * pInputs->Valfa_beta.alpha;
 8006d76:	f9b1 9000 	ldrsh.w	r9, [r1]
    wAux = (int32_t)(pInputs->Vbus) * pInputs->Valfa_beta.beta;
 8006d7a:	f9b1 8002 	ldrsh.w	r8, [r1, #2]
    wAux = (int32_t)(pHandle->hC2) * hIalfa_err;
 8006d7e:	f9b3 1022 	ldrsh.w	r1, [r3, #34]	@ 0x22
    hIalfa_err = hIalfa_err - pInputs->Ialfa_beta.alpha;
 8006d82:	f9bd 400c 	ldrsh.w	r4, [sp, #12]
    {
      wDirection = -1;
    }

    /* Stores observed b-emfs */
    pHandle->hBemf_alfa_est = hAux_Alfa;
 8006d86:	f8a3 7044 	strh.w	r7, [r3, #68]	@ 0x44
    hIbeta_err = hIbeta_err - pInputs->Ialfa_beta.beta;
 8006d8a:	b236      	sxth	r6, r6
    wAux = (int32_t)(pInputs->Vbus) * pInputs->Valfa_beta.alpha;
 8006d8c:	fb0a f909 	mul.w	r9, sl, r9
    wAux = (int32_t)(pInputs->Vbus) * pInputs->Valfa_beta.beta;
 8006d90:	fb0a f808 	mul.w	r8, sl, r8
    wAux = (int32_t)(pHandle->hC5) * hValfa;
 8006d94:	f9b3 a028 	ldrsh.w	sl, [r3, #40]	@ 0x28
    pHandle->hBemf_beta_est = hAux_Beta;
 8006d98:	f8a3 e046 	strh.w	lr, [r3, #70]	@ 0x46
    wIbeta_est_Next += wAux;
 8006d9c:	fb01 cc06 	mla	ip, r1, r6, ip
    hVbeta = (int16_t)(wAux >> 16); //cstat !MISRAC2012-Rule-1.3_n !ATH-shift-neg !MISRAC2012-Rule-10.1_R6
 8006da0:	ea4f 4828 	mov.w	r8, r8, asr #16
    wIbeta_est_Next += wAux;
 8006da4:	fb0a cc08 	mla	ip, sl, r8, ip
    wAux = (int32_t)(pHandle->hC4) * hIalfa_err;
 8006da8:	f9b3 8026 	ldrsh.w	r8, [r3, #38]	@ 0x26
    wIalfa_est_Next += wAux;
 8006dac:	fb01 2204 	mla	r2, r1, r4, r2
    hValfa = (int16_t)(wAux >> 16); //cstat !MISRAC2012-Rule-1.3_n !ATH-shift-neg !MISRAC2012-Rule-10.1_R6
 8006db0:	ea4f 4929 	mov.w	r9, r9, asr #16
    wBemf_alfa_est_Next = pHandle->wBemf_alfa_est + wAux;
 8006db4:	fb04 0408 	mla	r4, r4, r8, r0
    wAux = (int32_t) hAux_Beta >> pHandle->F3POW2;
 8006db8:	8e59      	ldrh	r1, [r3, #50]	@ 0x32
    wBemf_beta_est_Next = pHandle->wBemf_beta_est + wAux;
 8006dba:	fb08 5806 	mla	r8, r8, r6, r5
    wAux = (int32_t)(pHandle->hC3) * hAux_Alfa;
 8006dbe:	f9b3 6024 	ldrsh.w	r6, [r3, #36]	@ 0x24
    wIalfa_est_Next += wAux;
 8006dc2:	fb0a 2209 	mla	r2, sl, r9, r2
    wAux = wAux * pHandle->hC6;
 8006dc6:	f9b3 902a 	ldrsh.w	r9, [r3, #42]	@ 0x2a
    wIalfa_est_Next -= wAux;
 8006dca:	fb06 2a17 	mls	sl, r6, r7, r2
    wIbeta_est_Next -= wAux;
 8006dce:	fb06 c61e 	mls	r6, r6, lr, ip
    wAux = (int32_t) hAux_Beta >> pHandle->F3POW2;
 8006dd2:	fa4e fc01 	asr.w	ip, lr, r1
    wAux = wAux * pHandle->hC6;
 8006dd6:	fb0c fc09 	mul.w	ip, ip, r9
    wBemf_alfa_est_Next += wAux;
 8006dda:	fb0c 440b 	mla	r4, ip, fp, r4
    if (pHandle->Orig_ElSpeedDpp >= 0)
 8006dde:	f9b3 c14e 	ldrsh.w	ip, [r3, #334]	@ 0x14e
 8006de2:	f1bc 0f00 	cmp.w	ip, #0
    wAux = (int32_t) hAux_Alfa >> pHandle->F3POW2;
 8006de6:	fa47 f101 	asr.w	r1, r7, r1
    wAux = wAux * pHandle->hC6;
 8006dea:	bfbc      	itt	lt
 8006dec:	4240      	neglt	r0, r0
 8006dee:	426d      	neglt	r5, r5
 8006df0:	fb01 f109 	mul.w	r1, r1, r9
      wDirection = -1;
 8006df4:	bfb4      	ite	lt
 8006df6:	f04f 3cff 	movlt.w	ip, #4294967295
      wDirection = 1;
 8006dfa:	f04f 0c01 	movge.w	ip, #1

  int16_t hAngle;
  int32_t wXi, wYi, wXold;

  /*Determining quadrant*/
  if (wBemf_alfa_est < 0)
 8006dfe:	2800      	cmp	r0, #0
    wBemf_beta_est_Next -= wAux;
 8006e00:	fb01 811b 	mls	r1, r1, fp, r8

    /* Calls the CORDIC blockset */
    wAux_Alpha = pHandle->wBemf_alfa_est * wDirection;
    wAux_Beta = pHandle->wBemf_beta_est * wDirection;

    hRotor_Angle = MCM_PhaseComputation(wAux_Alpha, -wAux_Beta);
 8006e04:	f1c5 0700 	rsb	r7, r5, #0
 8006e08:	db4d      	blt.n	8006ea6 <STO_CR_CalcElAngle+0x1da>
  else
  {
    /* Quadrant I or IV */
    hAngle = 0;
    wXi = wBemf_alfa_est / 2;
    wYi = wBemf_beta_est / 2;
 8006e0a:	eb07 77d7 	add.w	r7, r7, r7, lsr #31
 8006e0e:	107d      	asrs	r5, r7, #1
    wXi = wBemf_alfa_est / 2;
 8006e10:	1040      	asrs	r0, r0, #1
    wYi = wBemf_beta_est / 2;
 8006e12:	f44f 4760 	mov.w	r7, #57344	@ 0xe000
 8006e16:	f44f 5e00 	mov.w	lr, #8192	@ 0x2000
  }
  wXold = wXi;

  /* Begin the successive approximation process */
  /* Iteration 0 */
  if (wYi < 0)
 8006e1a:	2d00      	cmp	r5, #0
 8006e1c:	da4d      	bge.n	8006eba <STO_CR_CalcElAngle+0x1ee>
 8006e1e:	4677      	mov	r7, lr
  {
    /* Vector is in Quadrant IV */
    hAngle += ATAN1DIV1;
    wXi = wXi - wYi;
    wYi = wXold + wYi;
 8006e20:	eb05 0e00 	add.w	lr, r5, r0
    wYi = -wXold + wYi;
  }
  wXold = wXi;

  /* Iteration 1 */
  if (wYi < 0)
 8006e24:	f1be 0f00 	cmp.w	lr, #0
    wXi = wXi - wYi;
 8006e28:	eba0 0805 	sub.w	r8, r0, r5
  if (wYi < 0)
 8006e2c:	da4c      	bge.n	8006ec8 <STO_CR_CalcElAngle+0x1fc>
  {
    /* Vector is in Quadrant IV */
    hAngle += ATAN1DIV2;
 8006e2e:	f507 5797 	add.w	r7, r7, #4832	@ 0x12e0
    wXi = wXi - (wYi / 2);
    wYi = (wXold / 2) + wYi;
 8006e32:	eb0e 0568 	add.w	r5, lr, r8, asr #1
    hAngle += ATAN1DIV2;
 8006e36:	3704      	adds	r7, #4
    wXi = wXi - (wYi / 2);
 8006e38:	eb0e 79de 	add.w	r9, lr, lr, lsr #31
    wYi = (-wXold / 2) + wYi;
  }
  wXold = wXi;

  /* Iteration 2 */
  if (wYi < 0)
 8006e3c:	2d00      	cmp	r5, #0
    hAngle += ATAN1DIV2;
 8006e3e:	b2bf      	uxth	r7, r7
    wXi = wXi - (wYi / 2);
 8006e40:	eba8 0969 	sub.w	r9, r8, r9, asr #1
  if (wYi < 0)
 8006e44:	da4e      	bge.n	8006ee4 <STO_CR_CalcElAngle+0x218>
  {
    /* Vector is in Quadrant IV */
    hAngle += ATAN1DIV4;
    wXi = wXi - (wYi / 4);
 8006e46:	f105 0e03 	add.w	lr, r5, #3
    wYi = (wXold / 4) + wYi;
 8006e4a:	eb05 05a9 	add.w	r5, r5, r9, asr #2
    hAngle += ATAN1DIV4;
 8006e4e:	f607 17fb 	addw	r7, r7, #2555	@ 0x9fb
    wYi = (-wXold / 4) + wYi;
  }
  wXold = wXi;

  /* Iteration 3 */
  if (wYi < 0)
 8006e52:	2d00      	cmp	r5, #0
    hAngle += ATAN1DIV4;
 8006e54:	b2b8      	uxth	r0, r7
    wXi = wXi - (wYi / 4);
 8006e56:	eba9 0eae 	sub.w	lr, r9, lr, asr #2
  if (wYi < 0)
 8006e5a:	da51      	bge.n	8006f00 <STO_CR_CalcElAngle+0x234>
  {
    /* Vector is in Quadrant IV */
    hAngle += ATAN1DIV8;
    wXi = wXi - (wYi / 8);
 8006e5c:	1def      	adds	r7, r5, #7
    wYi = (wXold / 8) + wYi;
 8006e5e:	eb05 05ee 	add.w	r5, r5, lr, asr #3
    hAngle += ATAN1DIV8;
 8006e62:	f200 5011 	addw	r0, r0, #1297	@ 0x511
    wYi = (-wXold / 8) + wYi;
  }
  wXold = wXi;

  /* Iteration4 */
  if (wYi < 0)
 8006e66:	2d00      	cmp	r5, #0
    hAngle += ATAN1DIV8;
 8006e68:	b280      	uxth	r0, r0
    wXi = wXi - (wYi / 8);
 8006e6a:	ebae 07e7 	sub.w	r7, lr, r7, asr #3
  if (wYi < 0)
 8006e6e:	da58      	bge.n	8006f22 <STO_CR_CalcElAngle+0x256>
  {
    /* Vector is in Quadrant IV */
    hAngle += ATAN1DIV16;
    wXi = wXi - (wYi / 16);
 8006e70:	f105 0e0f 	add.w	lr, r5, #15
    wYi = (wXold / 16) + wYi;
 8006e74:	eb05 1527 	add.w	r5, r5, r7, asr #4
    hAngle += ATAN1DIV16;
 8006e78:	f200 208b 	addw	r0, r0, #651	@ 0x28b
    wYi = (-wXold / 16) + wYi;
  }
  wXold = wXi;

  /* Iteration 5 */
  if (wYi < 0)
 8006e7c:	2d00      	cmp	r5, #0
    hAngle += ATAN1DIV16;
 8006e7e:	b280      	uxth	r0, r0
    wXi = wXi - (wYi / 16);
 8006e80:	eba7 1e2e 	sub.w	lr, r7, lr, asr #4
  if (wYi < 0)
 8006e84:	da5d      	bge.n	8006f42 <STO_CR_CalcElAngle+0x276>
  {
    /* Vector is in Quadrant IV */
    hAngle += ATAN1DIV32;
    wXi = wXi - (wYi / 32);
 8006e86:	f105 071f 	add.w	r7, r5, #31
    wYi = (wXold / 32) + wYi;
 8006e8a:	eb05 156e 	add.w	r5, r5, lr, asr #5
    hAngle += ATAN1DIV32;
 8006e8e:	f500 70a3 	add.w	r0, r0, #326	@ 0x146
    wYi = (-wXold / 32) + wYi;
  }
  wXold = wXi;

  /* Iteration 6 */
  if (wYi < 0)
 8006e92:	2d00      	cmp	r5, #0
    hAngle += ATAN1DIV32;
 8006e94:	b280      	uxth	r0, r0
    wXi = wXi - (wYi / 32);
 8006e96:	ebae 1767 	sub.w	r7, lr, r7, asr #5
  if (wYi < 0)
 8006e9a:	da62      	bge.n	8006f62 <STO_CR_CalcElAngle+0x296>
  {
    /* Vector is in Quadrant IV */
    hAngle += ATAN1DIV64;
 8006e9c:	30a3      	adds	r0, #163	@ 0xa3
    wXi = wXi - (wYi / 64);
    wYi = (wXold / 64) + wYi;
 8006e9e:	eb05 15a7 	add.w	r5, r5, r7, asr #6
    hAngle += ATAN1DIV64;
 8006ea2:	b280      	uxth	r0, r0
    wYi = (wXold / 64) + wYi;
 8006ea4:	e066      	b.n	8006f74 <STO_CR_CalcElAngle+0x2a8>
    if (wBemf_beta_est < 0)
 8006ea6:	2d00      	cmp	r5, #0
 8006ea8:	f300 80f9 	bgt.w	800709e <STO_CR_CalcElAngle+0x3d2>
      wYi = - (wBemf_alfa_est / 2);
 8006eac:	eb00 75d0 	add.w	r5, r0, r0, lsr #31
 8006eb0:	106d      	asrs	r5, r5, #1
      wXi = wBemf_beta_est / 2;
 8006eb2:	1078      	asrs	r0, r7, #1
      wYi = - (wBemf_alfa_est / 2);
 8006eb4:	426d      	negs	r5, r5
 8006eb6:	f44f 4720 	mov.w	r7, #40960	@ 0xa000
    wYi = -wXold + wYi;
 8006eba:	eba5 0e00 	sub.w	lr, r5, r0
  if (wYi < 0)
 8006ebe:	f1be 0f00 	cmp.w	lr, #0
    wXi = wXi + wYi;
 8006ec2:	eb05 0800 	add.w	r8, r5, r0
  if (wYi < 0)
 8006ec6:	dbb2      	blt.n	8006e2e <STO_CR_CalcElAngle+0x162>
    wYi = (-wXold / 2) + wYi;
 8006ec8:	f1c8 0500 	rsb	r5, r8, #0
 8006ecc:	eb05 75d5 	add.w	r5, r5, r5, lsr #31
    hAngle -= ATAN1DIV2;
 8006ed0:	f5a7 5797 	sub.w	r7, r7, #4832	@ 0x12e0
    wYi = (-wXold / 2) + wYi;
 8006ed4:	eb0e 0565 	add.w	r5, lr, r5, asr #1
    hAngle -= ATAN1DIV2;
 8006ed8:	3f04      	subs	r7, #4
  if (wYi < 0)
 8006eda:	2d00      	cmp	r5, #0
    hAngle -= ATAN1DIV2;
 8006edc:	b2bf      	uxth	r7, r7
    wXi = wXi + (wYi / 2);
 8006ede:	eb08 096e 	add.w	r9, r8, lr, asr #1
  if (wYi < 0)
 8006ee2:	dbb0      	blt.n	8006e46 <STO_CR_CalcElAngle+0x17a>
    hAngle -= ATAN1DIV4;
 8006ee4:	f6a7 17fb 	subw	r7, r7, #2555	@ 0x9fb
 8006ee8:	b2b8      	uxth	r0, r7
    wYi = (-wXold / 4) + wYi;
 8006eea:	f1c9 0700 	rsb	r7, r9, #0
 8006eee:	2f00      	cmp	r7, #0
 8006ef0:	bfb8      	it	lt
 8006ef2:	3703      	addlt	r7, #3
    wXi = wXi + (wYi / 4);
 8006ef4:	eb09 0ea5 	add.w	lr, r9, r5, asr #2
    wYi = (-wXold / 4) + wYi;
 8006ef8:	eb05 05a7 	add.w	r5, r5, r7, asr #2
  if (wYi < 0)
 8006efc:	2d00      	cmp	r5, #0
 8006efe:	dbad      	blt.n	8006e5c <STO_CR_CalcElAngle+0x190>
    wYi = (-wXold / 8) + wYi;
 8006f00:	f1ce 0800 	rsb	r8, lr, #0
 8006f04:	f1b8 0f00 	cmp.w	r8, #0
 8006f08:	bfb8      	it	lt
 8006f0a:	f108 0807 	addlt.w	r8, r8, #7
    hAngle -= ATAN1DIV8;
 8006f0e:	f46f 62a2 	mvn.w	r2, #1296	@ 0x510
    wXi = wXi + (wYi / 8);
 8006f12:	eb0e 07e5 	add.w	r7, lr, r5, asr #3
    wYi = (-wXold / 8) + wYi;
 8006f16:	eb05 05e8 	add.w	r5, r5, r8, asr #3
    hAngle -= ATAN1DIV8;
 8006f1a:	4410      	add	r0, r2
  if (wYi < 0)
 8006f1c:	2d00      	cmp	r5, #0
    hAngle -= ATAN1DIV8;
 8006f1e:	b280      	uxth	r0, r0
  if (wYi < 0)
 8006f20:	dba6      	blt.n	8006e70 <STO_CR_CalcElAngle+0x1a4>
    wYi = (-wXold / 16) + wYi;
 8006f22:	f1c7 0800 	rsb	r8, r7, #0
 8006f26:	f1b8 0f00 	cmp.w	r8, #0
 8006f2a:	bfb8      	it	lt
 8006f2c:	f108 080f 	addlt.w	r8, r8, #15
    wXi = wXi + (wYi / 16);
 8006f30:	eb07 1e25 	add.w	lr, r7, r5, asr #4
    wYi = (-wXold / 16) + wYi;
 8006f34:	eb05 1528 	add.w	r5, r5, r8, asr #4
    hAngle -= ATAN1DIV16;
 8006f38:	f2a0 208b 	subw	r0, r0, #651	@ 0x28b
  if (wYi < 0)
 8006f3c:	2d00      	cmp	r5, #0
    hAngle -= ATAN1DIV16;
 8006f3e:	b280      	uxth	r0, r0
  if (wYi < 0)
 8006f40:	dba1      	blt.n	8006e86 <STO_CR_CalcElAngle+0x1ba>
    wYi = (-wXold / 32) + wYi;
 8006f42:	f1ce 0800 	rsb	r8, lr, #0
 8006f46:	f1b8 0f00 	cmp.w	r8, #0
 8006f4a:	bfb8      	it	lt
 8006f4c:	f108 081f 	addlt.w	r8, r8, #31
    wXi = wXi + (wYi / 32);
 8006f50:	eb0e 1765 	add.w	r7, lr, r5, asr #5
    wYi = (-wXold / 32) + wYi;
 8006f54:	eb05 1568 	add.w	r5, r5, r8, asr #5
    hAngle -= ATAN1DIV32;
 8006f58:	f5a0 70a3 	sub.w	r0, r0, #326	@ 0x146
  if (wYi < 0)
 8006f5c:	2d00      	cmp	r5, #0
    hAngle -= ATAN1DIV32;
 8006f5e:	b280      	uxth	r0, r0
  if (wYi < 0)
 8006f60:	db9c      	blt.n	8006e9c <STO_CR_CalcElAngle+0x1d0>
  else
  {
    /* Vector is in Quadrant I */
    hAngle -= ATAN1DIV64;
    wXi = wXi + (wYi / 64);
    wYi = (-wXold / 64) + wYi;
 8006f62:	427f      	negs	r7, r7
 8006f64:	2f00      	cmp	r7, #0
    hAngle -= ATAN1DIV64;
 8006f66:	f1a0 00a3 	sub.w	r0, r0, #163	@ 0xa3
    wYi = (-wXold / 64) + wYi;
 8006f6a:	bfb8      	it	lt
 8006f6c:	373f      	addlt	r7, #63	@ 0x3f
    hAngle -= ATAN1DIV64;
 8006f6e:	b280      	uxth	r0, r0
    wYi = (-wXold / 64) + wYi;
 8006f70:	eb05 15a7 	add.w	r5, r5, r7, asr #6
  }
  wXold = wXi;

  /* Iteration 7 */
  if (wYi < 0)
 8006f74:	2d00      	cmp	r5, #0
  {
    /* Vector is in Quadrant IV */
    hAngle += ATAN1DIV128;
 8006f76:	bfb4      	ite	lt
 8006f78:	3051      	addlt	r0, #81	@ 0x51
    wYi = (wXold / 128) + wYi;
  }
  else
  {
    /* Vector is in Quadrant I */
    hAngle -= ATAN1DIV128;
 8006f7a:	3851      	subge	r0, #81	@ 0x51

    hOrRotor_Speed = (int16_t)(hRotor_Angle - hPrev_Rotor_Angle);
 8006f7c:	f8bd 8000 	ldrh.w	r8, [sp]
 8006f80:	b280      	uxth	r0, r0
    wXi = wXi + (wYi / 128);
    wYi = (-wXold / 128) + wYi;
  }

  return (-hAngle);
 8006f82:	4240      	negs	r0, r0
 8006f84:	eba0 0e08 	sub.w	lr, r0, r8
    hRotor_Acceleration = hOrRotor_Speed - hPrev_Rotor_Speed;
 8006f88:	fa1f f78b 	uxth.w	r7, fp
 8006f8c:	ebae 0507 	sub.w	r5, lr, r7

    hRotor_Speed = hOrRotor_Speed;

    if (wDirection == 1)
 8006f90:	f1bc 0f01 	cmp.w	ip, #1
 8006f94:	b200      	sxth	r0, r0
    hOrRotor_Speed = (int16_t)(hRotor_Angle - hPrev_Rotor_Angle);
 8006f96:	fa0f fe8e 	sxth.w	lr, lr
    hRotor_Acceleration = hOrRotor_Speed - hPrev_Rotor_Speed;
 8006f9a:	b22d      	sxth	r5, r5
    if (wDirection == 1)
 8006f9c:	d061      	beq.n	8007062 <STO_CR_CalcElAngle+0x396>
        }
      }
    }
    else
    {
      if (hRotor_Speed > 0)
 8006f9e:	f1be 0f00 	cmp.w	lr, #0
 8006fa2:	dd31      	ble.n	8007008 <STO_CR_CalcElAngle+0x33c>
        }
      }
    }


    if (hRotor_Acceleration > hMax_Instant_Accel)
 8006fa4:	9801      	ldr	r0, [sp, #4]
 8006fa6:	42a8      	cmp	r0, r5
 8006fa8:	da45      	bge.n	8007036 <STO_CR_CalcElAngle+0x36a>
    {
      hOrRotor_Speed = hPrev_Rotor_Speed + hMax_Instant_Accel;
 8006faa:	4407      	add	r7, r0
 8006fac:	fa0f fe87 	sxth.w	lr, r7
 8006fb0:	f04f 0c00 	mov.w	ip, #0
  * @param  pHandle: handler of the current instance of the STO CORDIC component
  * @retval none
  */
inline static void STO_CR_Store_Rotor_Speed(STO_CR_Handle_t *pHandle, int16_t hRotor_Speed, int16_t hOrRotor_Speed)
{
  uint8_t bBuffer_index = pHandle->Speed_Buffer_Index;
 8006fb4:	f893 70c8 	ldrb.w	r7, [r3, #200]	@ 0xc8

  bBuffer_index++;
  if (bBuffer_index == pHandle->SpeedBufferSizeUnit)
 8006fb8:	f893 016c 	ldrb.w	r0, [r3, #364]	@ 0x16c
  bBuffer_index++;
 8006fbc:	3701      	adds	r7, #1
 8006fbe:	b2ff      	uxtb	r7, r7
  if (bBuffer_index == pHandle->SpeedBufferSizeUnit)
 8006fc0:	42b8      	cmp	r0, r7
 8006fc2:	bf0a      	itet	eq
 8006fc4:	2500      	moveq	r5, #0
  else
  {
    /* Nothing too do */
  }

  pHandle->SpeedBufferOldestEl = pHandle->Speed_Buffer[bBuffer_index];
 8006fc6:	463d      	movne	r5, r7
    bBuffer_index = 0U;
 8006fc8:	462f      	moveq	r7, r5
  pHandle->SpeedBufferOldestEl = pHandle->Speed_Buffer[bBuffer_index];
 8006fca:	eb03 0545 	add.w	r5, r3, r5, lsl #1
}
 8006fce:	9800      	ldr	r0, [sp, #0]
  pHandle->SpeedBufferOldestEl = pHandle->Speed_Buffer[bBuffer_index];
 8006fd0:	f9b5 8048 	ldrsh.w	r8, [r5, #72]	@ 0x48
 8006fd4:	f8a3 8168 	strh.w	r8, [r3, #360]	@ 0x168
  pHandle->OrigSpeedBufferOldestEl = pHandle->Orig_Speed_Buffer[bBuffer_index];
 8006fd8:	f9b5 80ce 	ldrsh.w	r8, [r5, #206]	@ 0xce
 8006fdc:	f8a3 816a 	strh.w	r8, [r3, #362]	@ 0x16a

  pHandle->Speed_Buffer[bBuffer_index] = hRotor_Speed;
 8006fe0:	f8a5 c048 	strh.w	ip, [r5, #72]	@ 0x48
  pHandle->Orig_Speed_Buffer[bBuffer_index] = hOrRotor_Speed;
 8006fe4:	f8a5 e0ce 	strh.w	lr, [r5, #206]	@ 0xce
    pHandle->Ibeta_est = wIbeta_est_Next;
 8006fe8:	e9c3 640e 	strd	r6, r4, [r3, #56]	@ 0x38
  pHandle->Speed_Buffer_Index = bBuffer_index;
 8006fec:	f883 70c8 	strb.w	r7, [r3, #200]	@ 0xc8
    pHandle->Ialfa_est = wIalfa_est_Next;
 8006ff0:	f8c3 a034 	str.w	sl, [r3, #52]	@ 0x34
    pHandle->wBemf_beta_est = wBemf_beta_est_Next;
 8006ff4:	6419      	str	r1, [r3, #64]	@ 0x40
}
 8006ff6:	b005      	add	sp, #20
 8006ff8:	e8bd 8ff0 	ldmia.w	sp!, {r4, r5, r6, r7, r8, r9, sl, fp, pc}
      pHandle->Ibeta_est = -INT16_MAX * (int32_t)(pHandle->hF1);
 8006ffc:	639a      	str	r2, [r3, #56]	@ 0x38
 8006ffe:	4690      	mov	r8, r2
 8007000:	e69f      	b.n	8006d42 <STO_CR_CalcElAngle+0x76>
      pHandle->wBemf_beta_est = -INT16_MAX * (int32_t)(pHandle->hF2);
 8007002:	641a      	str	r2, [r3, #64]	@ 0x40
 8007004:	4615      	mov	r5, r2
 8007006:	e684      	b.n	8006d12 <STO_CR_CalcElAngle+0x46>
        if (hRotor_Acceleration < (-hMax_Instant_Accel))
 8007008:	9a01      	ldr	r2, [sp, #4]
 800700a:	f1c2 0c00 	rsb	ip, r2, #0
 800700e:	4565      	cmp	r5, ip
 8007010:	da38      	bge.n	8007084 <STO_CR_CalcElAngle+0x3b8>
          hRotor_Speed = hPrev_Rotor_Speed - hMax_Instant_Accel;
 8007012:	fa1f fe82 	uxth.w	lr, r2
 8007016:	eba7 0c0e 	sub.w	ip, r7, lr
          pHandle->_Super.hElAngle = hPrev_Rotor_Angle + hRotor_Speed;
 800701a:	fa18 f88c 	uxtah	r8, r8, ip
 800701e:	fa0f f088 	sxth.w	r0, r8
    if (hRotor_Acceleration > hMax_Instant_Accel)
 8007022:	42aa      	cmp	r2, r5
          pHandle->_Super.hElAngle = hPrev_Rotor_Angle + hRotor_Speed;
 8007024:	9000      	str	r0, [sp, #0]
 8007026:	8098      	strh	r0, [r3, #4]
          hRotor_Speed = hPrev_Rotor_Speed - hMax_Instant_Accel;
 8007028:	fa0f fc8c 	sxth.w	ip, ip
    if (hRotor_Acceleration > hMax_Instant_Accel)
 800702c:	da46      	bge.n	80070bc <STO_CR_CalcElAngle+0x3f0>
      hOrRotor_Speed = hPrev_Rotor_Speed + hMax_Instant_Accel;
 800702e:	44be      	add	lr, r7
 8007030:	fa0f fe8e 	sxth.w	lr, lr
 8007034:	e7be      	b.n	8006fb4 <STO_CR_CalcElAngle+0x2e8>
 8007036:	f04f 0c00 	mov.w	ip, #0
 800703a:	4602      	mov	r2, r0
    else if (hRotor_Acceleration < (-hMax_Instant_Accel))
 800703c:	4250      	negs	r0, r2
 800703e:	4285      	cmp	r5, r0
 8007040:	dab8      	bge.n	8006fb4 <STO_CR_CalcElAngle+0x2e8>
      hOrRotor_Speed = hPrev_Rotor_Speed - hMax_Instant_Accel;
 8007042:	1abf      	subs	r7, r7, r2
 8007044:	fa0f fe87 	sxth.w	lr, r7
 8007048:	e7b4      	b.n	8006fb4 <STO_CR_CalcElAngle+0x2e8>
    else if (pHandle->wBemf_alfa_est <= (-INT16_MAX * (int32_t)(pHandle->hF2)))
 800704a:	4254      	negs	r4, r2
 800704c:	42a0      	cmp	r0, r4
      pHandle->wBemf_alfa_est = -INT16_MAX * (int32_t)(pHandle->hF2);
 800704e:	bfdc      	itt	le
 8007050:	63dc      	strle	r4, [r3, #60]	@ 0x3c
 8007052:	4620      	movle	r0, r4
 8007054:	e650      	b.n	8006cf8 <STO_CR_CalcElAngle+0x2c>
    else if (pHandle->Ialfa_est <= (-INT16_MAX * (int32_t)(pHandle->hF1)))
 8007056:	4254      	negs	r4, r2
 8007058:	45a1      	cmp	r9, r4
      pHandle->Ialfa_est = -INT16_MAX * (int32_t)(pHandle->hF1);
 800705a:	bfdc      	itt	le
 800705c:	635c      	strle	r4, [r3, #52]	@ 0x34
 800705e:	46a1      	movle	r9, r4
 8007060:	e666      	b.n	8006d30 <STO_CR_CalcElAngle+0x64>
      if (hRotor_Speed < 0)
 8007062:	f1be 0f00 	cmp.w	lr, #0
 8007066:	db9d      	blt.n	8006fa4 <STO_CR_CalcElAngle+0x2d8>
        if (hRotor_Acceleration > hMax_Instant_Accel)
 8007068:	9a01      	ldr	r2, [sp, #4]
 800706a:	42aa      	cmp	r2, r5
 800706c:	da13      	bge.n	8007096 <STO_CR_CalcElAngle+0x3ca>
          hRotor_Speed = hPrev_Rotor_Speed + hMax_Instant_Accel;
 800706e:	4417      	add	r7, r2
          pHandle->_Super.hElAngle = hPrev_Rotor_Angle + hRotor_Speed;
 8007070:	fa18 f887 	uxtah	r8, r8, r7
 8007074:	fa0f f288 	sxth.w	r2, r8
          hRotor_Speed = hPrev_Rotor_Speed + hMax_Instant_Accel;
 8007078:	fa0f fc87 	sxth.w	ip, r7
          pHandle->_Super.hElAngle = hPrev_Rotor_Angle + hRotor_Speed;
 800707c:	9200      	str	r2, [sp, #0]
 800707e:	809a      	strh	r2, [r3, #4]
 8007080:	46e6      	mov	lr, ip
 8007082:	e797      	b.n	8006fb4 <STO_CR_CalcElAngle+0x2e8>
    if (hRotor_Acceleration > hMax_Instant_Accel)
 8007084:	42aa      	cmp	r2, r5
          pHandle->_Super.hElAngle = hRotor_Angle;
 8007086:	8098      	strh	r0, [r3, #4]
    if (hRotor_Acceleration > hMax_Instant_Accel)
 8007088:	da15      	bge.n	80070b6 <STO_CR_CalcElAngle+0x3ea>
      hOrRotor_Speed = hPrev_Rotor_Speed + hMax_Instant_Accel;
 800708a:	4417      	add	r7, r2
 800708c:	46f4      	mov	ip, lr
 800708e:	9000      	str	r0, [sp, #0]
 8007090:	fa0f fe87 	sxth.w	lr, r7
 8007094:	e78e      	b.n	8006fb4 <STO_CR_CalcElAngle+0x2e8>
          pHandle->_Super.hElAngle = hRotor_Angle;
 8007096:	8098      	strh	r0, [r3, #4]
 8007098:	9000      	str	r0, [sp, #0]
 800709a:	46f4      	mov	ip, lr
 800709c:	e7ce      	b.n	800703c <STO_CR_CalcElAngle+0x370>
      wXi = - (wBemf_beta_est / 2);
 800709e:	eb07 77d7 	add.w	r7, r7, r7, lsr #31
 80070a2:	107f      	asrs	r7, r7, #1
      wYi = wBemf_alfa_est / 2;
 80070a4:	eb00 75d0 	add.w	r5, r0, r0, lsr #31
 80070a8:	106d      	asrs	r5, r5, #1
      wXi = - (wBemf_beta_est / 2);
 80070aa:	4278      	negs	r0, r7
      wYi = wBemf_alfa_est / 2;
 80070ac:	f44f 4ec0 	mov.w	lr, #24576	@ 0x6000
 80070b0:	f44f 5700 	mov.w	r7, #8192	@ 0x2000
 80070b4:	e6b1      	b.n	8006e1a <STO_CR_CalcElAngle+0x14e>
    if (hRotor_Acceleration > hMax_Instant_Accel)
 80070b6:	9000      	str	r0, [sp, #0]
 80070b8:	46f4      	mov	ip, lr
 80070ba:	e77b      	b.n	8006fb4 <STO_CR_CalcElAngle+0x2e8>
 80070bc:	46e6      	mov	lr, ip
      hOrRotor_Speed = hPrev_Rotor_Speed - hMax_Instant_Accel;
 80070be:	e779      	b.n	8006fb4 <STO_CR_CalcElAngle+0x2e8>

080070c0 <STO_CR_CalcAvrgMecSpeedUnit>:
{
 80070c0:	b5f0      	push	{r4, r5, r6, r7, lr}
    uint8_t bSpeedBufferSizeUnit = pHandle->SpeedBufferSizeUnit;
 80070c2:	f890 516c 	ldrb.w	r5, [r0, #364]	@ 0x16c
    for (i = 0U; i < bSpeedBufferSizeUnit; i++)
 80070c6:	2d00      	cmp	r5, #0
 80070c8:	f000 8096 	beq.w	80071f8 <STO_CR_CalcAvrgMecSpeedUnit+0x138>
 80070cc:	f100 0246 	add.w	r2, r0, #70	@ 0x46
 80070d0:	eb02 0445 	add.w	r4, r2, r5, lsl #1
 80070d4:	4613      	mov	r3, r2
    int32_t wAvrSpeed_dpp = (int32_t)0;
 80070d6:	f04f 0c00 	mov.w	ip, #0
      wAvrSpeed_dpp += (int32_t)(pHandle->Speed_Buffer[i]);
 80070da:	f933 ef02 	ldrsh.w	lr, [r3, #2]!
    for (i = 0U; i < bSpeedBufferSizeUnit; i++)
 80070de:	42a3      	cmp	r3, r4
      wAvrSpeed_dpp += (int32_t)(pHandle->Speed_Buffer[i]);
 80070e0:	44f4      	add	ip, lr
    for (i = 0U; i < bSpeedBufferSizeUnit; i++)
 80070e2:	d1fa      	bne.n	80070da <STO_CR_CalcAvrgMecSpeedUnit+0x1a>
      wAvrSpeed_dpp = wAvrSpeed_dpp / (int16_t)bSpeedBufferSizeUnit;
 80070e4:	fb9c fef5 	sdiv	lr, ip, r5
    int32_t wAvrQuadraticError = 0;
 80070e8:	f04f 0c00 	mov.w	ip, #0
      wError = (int32_t)(pHandle->Speed_Buffer[i]) - wAvrSpeed_dpp;
 80070ec:	f932 3f02 	ldrsh.w	r3, [r2, #2]!
 80070f0:	eba3 030e 	sub.w	r3, r3, lr
    for (i = 0U; i < bSpeedBufferSizeUnit; i++)
 80070f4:	42a2      	cmp	r2, r4
      wAvrQuadraticError += wError;
 80070f6:	fb03 cc03 	mla	ip, r3, r3, ip
    for (i = 0U; i < bSpeedBufferSizeUnit; i++)
 80070fa:	d1f7      	bne.n	80070ec <STO_CR_CalcAvrgMecSpeedUnit+0x2c>
    wAvrQuadraticError = wAvrQuadraticError / (int16_t)bSpeedBufferSizeUnit;
 80070fc:	fbbc f4f5 	udiv	r4, ip, r5
    wAvrSquareSpeed = wAvrSpeed_dpp * wAvrSpeed_dpp;
 8007100:	fb0e f30e 	mul.w	r3, lr, lr
    int64_t lAvrSquareSpeed = (int64_t)(wAvrSquareSpeed) * (int64_t)pHandle->VariancePercentage;
 8007104:	17de      	asrs	r6, r3, #31
 8007106:	f8b0 c16e 	ldrh.w	ip, [r0, #366]	@ 0x16e
    wAux = wAvrSpeed_dpp * (int32_t)(pHandle->_Super.hMeasurementFrequency);
 800710a:	8b45      	ldrh	r5, [r0, #26]
    if (true == pHandle->EnableDualCheck) /*do algorithm if it's enabled*/
 800710c:	f890 715c 	ldrb.w	r7, [r0, #348]	@ 0x15c
    int64_t lAvrSquareSpeed = (int64_t)(wAvrSquareSpeed) * (int64_t)pHandle->VariancePercentage;
 8007110:	fbac 2303 	umull	r2, r3, ip, r3
 8007114:	fb0c 3306 	mla	r3, ip, r6, r3
    wAvrSquareSpeed = (int32_t)(lAvrSquareSpeed / (int64_t)128);
 8007118:	09d2      	lsrs	r2, r2, #7
 800711a:	ea42 6243 	orr.w	r2, r2, r3, lsl #25
    wAux = wAux * (int32_t) (pHandle->_Super.SpeedUnit);
 800711e:	7883      	ldrb	r3, [r0, #2]
    wAux = wAvrSpeed_dpp * (int32_t)(pHandle->_Super.hMeasurementFrequency);
 8007120:	fb0e f505 	mul.w	r5, lr, r5
    if (wAvrQuadraticError < wAvrSquareSpeed)
 8007124:	42a2      	cmp	r2, r4
    wAux = wAux * (int32_t) (pHandle->_Super.SpeedUnit);
 8007126:	fb05 f303 	mul.w	r3, r5, r3
    if (wAvrQuadraticError < wAvrSquareSpeed)
 800712a:	bfd8      	it	le
 800712c:	2600      	movle	r6, #0
    wAux = wAux / (int32_t)(pHandle->_Super.DPPConvFactor);
 800712e:	69c5      	ldr	r5, [r0, #28]
 8007130:	fb93 f3f5 	sdiv	r3, r3, r5
    if (wAvrQuadraticError < wAvrSquareSpeed)
 8007134:	bfc8      	it	gt
 8007136:	2601      	movgt	r6, #1
    wAux = wAux / (int16_t)(pHandle->_Super.bElToMecRatio);
 8007138:	7845      	ldrb	r5, [r0, #1]
 800713a:	fb93 f3f5 	sdiv	r3, r3, r5
    *pMecSpeedUnit = (int16_t)wAux;
 800713e:	b21d      	sxth	r5, r3
 8007140:	800d      	strh	r5, [r1, #0]
    if (wAvrQuadraticError < wAvrSquareSpeed)
 8007142:	f880 60c9 	strb.w	r6, [r0, #201]	@ 0xc9
    pHandle->_Super.hAvrMecSpeedUnit = (int16_t)wAux;
 8007146:	8185      	strh	r5, [r0, #12]
    if (pHandle->IsAlgorithmConverged == false)
 8007148:	f890 60cc 	ldrb.w	r6, [r0, #204]	@ 0xcc
    if (true == pHandle->EnableDualCheck) /*do algorithm if it's enabled*/
 800714c:	b99f      	cbnz	r7, 8007176 <STO_CR_CalcAvrgMecSpeedUnit+0xb6>
    if (pHandle->IsAlgorithmConverged == false)
 800714e:	b346      	cbz	r6, 80071a2 <STO_CR_CalcAvrgMecSpeedUnit+0xe2>
      if ((pHandle->IsSpeedReliable == false) || (bIs_Bemf_Consistent == false))
 8007150:	42a2      	cmp	r2, r4
 8007152:	dc23      	bgt.n	800719c <STO_CR_CalcAvrgMecSpeedUnit+0xdc>
        pHandle->ReliabilityCounter++;
 8007154:	f890 30cb 	ldrb.w	r3, [r0, #203]	@ 0xcb
        if (pHandle->ReliabilityCounter >= pHandle->Reliability_hysteresys)
 8007158:	f890 2175 	ldrb.w	r2, [r0, #373]	@ 0x175
        pHandle->ReliabilityCounter++;
 800715c:	3301      	adds	r3, #1
 800715e:	b2db      	uxtb	r3, r3
        if (pHandle->ReliabilityCounter >= pHandle->Reliability_hysteresys)
 8007160:	429a      	cmp	r2, r3
        pHandle->ReliabilityCounter++;
 8007162:	f880 30cb 	strb.w	r3, [r0, #203]	@ 0xcb
        if (pHandle->ReliabilityCounter >= pHandle->Reliability_hysteresys)
 8007166:	d81c      	bhi.n	80071a2 <STO_CR_CalcAvrgMecSpeedUnit+0xe2>
          pHandle->_Super.bSpeedErrorNumber = pHandle->_Super.bMaximumSpeedErrorsNumber;
 8007168:	78c2      	ldrb	r2, [r0, #3]
 800716a:	7002      	strb	r2, [r0, #0]
          pHandle->ReliabilityCounter = 0U;
 800716c:	2300      	movs	r3, #0
 800716e:	f880 30cb 	strb.w	r3, [r0, #203]	@ 0xcb
}
 8007172:	4618      	mov	r0, r3
 8007174:	bdf0      	pop	{r4, r5, r6, r7, pc}
      wAux = ((wAux < 0) ? (-wAux) : (wAux));  //cstat !MISRAC2012-Rule-14.3_b !RED-cond-never !RED-cmp-never
 8007176:	2b00      	cmp	r3, #0
      if (wAux < (int32_t)(pHandle->MaxAppPositiveMecSpeedUnit))
 8007178:	f8b0 517a 	ldrh.w	r5, [r0, #378]	@ 0x17a
      wAux = ((wAux < 0) ? (-wAux) : (wAux));  //cstat !MISRAC2012-Rule-14.3_b !RED-cond-never !RED-cmp-never
 800717c:	bfb8      	it	lt
 800717e:	425b      	neglt	r3, r3
      if (wAux < (int32_t)(pHandle->MaxAppPositiveMecSpeedUnit))
 8007180:	429d      	cmp	r5, r3
 8007182:	dc12      	bgt.n	80071aa <STO_CR_CalcAvrgMecSpeedUnit+0xea>
    bool bIs_Bemf_Consistent = false;
 8007184:	2500      	movs	r5, #0
    int32_t wEstBemfSq = 0;
 8007186:	462b      	mov	r3, r5
    int32_t wObsBemfSq = 0;
 8007188:	462f      	mov	r7, r5
      pHandle->Est_Bemf_Level = wEstBemfSq;
 800718a:	e9c0 7355 	strd	r7, r3, [r0, #340]	@ 0x154
      pHandle->IsBemfConsistent = bIs_Bemf_Consistent;
 800718e:	f880 5150 	strb.w	r5, [r0, #336]	@ 0x150
    if (pHandle->IsAlgorithmConverged == false)
 8007192:	b136      	cbz	r6, 80071a2 <STO_CR_CalcAvrgMecSpeedUnit+0xe2>
      if ((pHandle->IsSpeedReliable == false) || (bIs_Bemf_Consistent == false))
 8007194:	42a2      	cmp	r2, r4
 8007196:	dddd      	ble.n	8007154 <STO_CR_CalcAvrgMecSpeedUnit+0x94>
 8007198:	2d00      	cmp	r5, #0
 800719a:	d0db      	beq.n	8007154 <STO_CR_CalcAvrgMecSpeedUnit+0x94>
        pHandle->ReliabilityCounter = 0U;
 800719c:	2300      	movs	r3, #0
 800719e:	f880 30cb 	strb.w	r3, [r0, #203]	@ 0xcb
}
 80071a2:	e8bd 40f0 	ldmia.w	sp!, {r4, r5, r6, r7, lr}
        bAux = SPD_IsMecSpeedReliable (&pHandle->_Super, pMecSpeedUnit);
 80071a6:	f7ff bc93 	b.w	8006ad0 <SPD_IsMecSpeedReliable>
        wObsBemf = (int32_t)(pHandle->hBemf_alfa_est);
 80071aa:	f9b0 5044 	ldrsh.w	r5, [r0, #68]	@ 0x44
        wObsBemf = (int32_t)(pHandle->hBemf_beta_est);
 80071ae:	f9b0 7046 	ldrsh.w	r7, [r0, #70]	@ 0x46
        wObsBemfSq = wObsBemf * wObsBemf;
 80071b2:	fb05 fc05 	mul.w	ip, r5, r5
        wEstBemfSq = (wEstBemf * (int32_t)(pHandle->BemfConsistencyGain)) / 64;
 80071b6:	f890 5179 	ldrb.w	r5, [r0, #377]	@ 0x179
        wObsBemfSq += wObsBemf * wObsBemf;
 80071ba:	fb07 c707 	mla	r7, r7, r7, ip
        wEstBemf = (wAux * 32767) / (int16_t)(pHandle->_Super.hMaxReliableMecSpeedUnit);
 80071be:	ebc3 33c3 	rsb	r3, r3, r3, lsl #15
 80071c2:	f9b0 c014 	ldrsh.w	ip, [r0, #20]
 80071c6:	fb93 f3fc 	sdiv	r3, r3, ip
        wEstBemfSq = (wEstBemf * (int32_t)(pHandle->BemfConsistencyGain)) / 64;
 80071ca:	fb03 f505 	mul.w	r5, r3, r5
 80071ce:	2d00      	cmp	r5, #0
 80071d0:	bfb8      	it	lt
 80071d2:	353f      	addlt	r5, #63	@ 0x3f
 80071d4:	11ad      	asrs	r5, r5, #6
        wEstBemfSq *= wEstBemf;
 80071d6:	fb05 f303 	mul.w	r3, r5, r3
        wEstBemfSqLo = wEstBemfSq - ((wEstBemfSq / 64) * (int32_t)(pHandle->BemfConsistencyCheck));
 80071da:	2b00      	cmp	r3, #0
 80071dc:	461d      	mov	r5, r3
 80071de:	f890 c178 	ldrb.w	ip, [r0, #376]	@ 0x178
 80071e2:	bfb8      	it	lt
 80071e4:	f103 053f 	addlt.w	r5, r3, #63	@ 0x3f
 80071e8:	11ad      	asrs	r5, r5, #6
 80071ea:	fb0c 3515 	mls	r5, ip, r5, r3
        if (wObsBemfSq > wEstBemfSqLo)
 80071ee:	42af      	cmp	r7, r5
 80071f0:	bfd4      	ite	le
 80071f2:	2500      	movle	r5, #0
 80071f4:	2501      	movgt	r5, #1
 80071f6:	e7c8      	b.n	800718a <STO_CR_CalcAvrgMecSpeedUnit+0xca>
    for (i = 0U; i < bSpeedBufferSizeUnit; i++)
 80071f8:	462c      	mov	r4, r5
 80071fa:	462b      	mov	r3, r5
 80071fc:	462e      	mov	r6, r5
    int32_t wAvrSpeed_dpp = (int32_t)0;
 80071fe:	46ae      	mov	lr, r5
 8007200:	e781      	b.n	8007106 <STO_CR_CalcAvrgMecSpeedUnit+0x46>
 8007202:	bf00      	nop

08007204 <STO_CR_Clear>:
{
 8007204:	b570      	push	{r4, r5, r6, lr}
  * @retval none
  */
static void STO_CR_InitSpeedBuffer(STO_CR_Handle_t *pHandle)
{
  uint8_t b_i;
  uint8_t bSpeedBufferSizeUnit = pHandle->SpeedBufferSizeUnit;
 8007206:	f890 616c 	ldrb.w	r6, [r0, #364]	@ 0x16c
    pHandle->Ialfa_est = (int32_t)0;
 800720a:	2500      	movs	r5, #0
    pHandle->Ibeta_est = (int32_t)0;
 800720c:	e9c0 550d 	strd	r5, r5, [r0, #52]	@ 0x34
    pHandle->wBemf_beta_est = (int32_t)0;
 8007210:	e9c0 550f 	strd	r5, r5, [r0, #60]	@ 0x3c
    pHandle->Est_Bemf_Level = (int32_t)0;
 8007214:	e9c0 5555 	strd	r5, r5, [r0, #340]	@ 0x154
    pHandle->DppOrigBufferSum = (int32_t)0;
 8007218:	e9c0 5558 	strd	r5, r5, [r0, #352]	@ 0x160
{
 800721c:	4604      	mov	r4, r0
    pHandle->_Super.hElAngle = (int16_t)0;
 800721e:	8085      	strh	r5, [r0, #4]
    pHandle->_Super.hElSpeedDpp = (int16_t)0;
 8007220:	81c5      	strh	r5, [r0, #14]
    pHandle->Orig_ElSpeedDpp = (int16_t)0;
 8007222:	f8a0 514e 	strh.w	r5, [r0, #334]	@ 0x14e
    pHandle->ConsistencyCounter = 0u;
 8007226:	f8a0 50ca 	strh.w	r5, [r0, #202]	@ 0xca
    pHandle->IsAlgorithmConverged = false;
 800722a:	f880 50cc 	strb.w	r5, [r0, #204]	@ 0xcc
    pHandle->IsBemfConsistent = false;
 800722e:	f880 5150 	strb.w	r5, [r0, #336]	@ 0x150
    pHandle->ForceConvergency = false;
 8007232:	f8a0 5182 	strh.w	r5, [r0, #386]	@ 0x182

  /*init speed buffer*/
  for (b_i = 0U; b_i < bSpeedBufferSizeUnit; b_i++)
 8007236:	b15e      	cbz	r6, 8007250 <STO_CR_Clear+0x4c>
  {
    pHandle->Speed_Buffer[b_i] = (int16_t)0;
 8007238:	0076      	lsls	r6, r6, #1
 800723a:	4632      	mov	r2, r6
 800723c:	4629      	mov	r1, r5
 800723e:	3048      	adds	r0, #72	@ 0x48
 8007240:	f000 f908 	bl	8007454 <memset>
    pHandle->Orig_Speed_Buffer[b_i] = (int16_t)0;
 8007244:	4632      	mov	r2, r6
 8007246:	4629      	mov	r1, r5
 8007248:	f104 00ce 	add.w	r0, r4, #206	@ 0xce
 800724c:	f000 f902 	bl	8007454 <memset>
  }

  pHandle->Speed_Buffer_Index = 0u;
 8007250:	2300      	movs	r3, #0
 8007252:	f884 30c8 	strb.w	r3, [r4, #200]	@ 0xc8
  pHandle->SpeedBufferOldestEl = (int16_t)0;
 8007256:	f8c4 3168 	str.w	r3, [r4, #360]	@ 0x168
}
 800725a:	bd70      	pop	{r4, r5, r6, pc}

0800725c <STO_CR_Init>:
{
 800725c:	b510      	push	{r4, lr}
    pHandle->ConsistencyCounter = pHandle->StartUpConsistThreshold;
 800725e:	f890 1174 	ldrb.w	r1, [r0, #372]	@ 0x174
    htempk = (int16_t)(C6_COMP_CONST1 / (pHandle->hF2));
 8007262:	4b17      	ldr	r3, [pc, #92]	@ (80072c0 <STO_CR_Init+0x64>)
 8007264:	f9b0 e02e 	ldrsh.w	lr, [r0, #46]	@ 0x2e
    pHandle->ConsistencyCounter = pHandle->StartUpConsistThreshold;
 8007268:	f880 10ca 	strb.w	r1, [r0, #202]	@ 0xca
    pHandle->EnableDualCheck = true;
 800726c:	2201      	movs	r2, #1
    pHandle->F3POW2 = 0u;
 800726e:	2100      	movs	r1, #0
    htempk = (int16_t)(C6_COMP_CONST1 / (pHandle->hF2));
 8007270:	fb93 f3fe 	sdiv	r3, r3, lr
 8007274:	b21b      	sxth	r3, r3
{
 8007276:	4604      	mov	r4, r0
    pHandle->EnableDualCheck = true;
 8007278:	f880 215c 	strb.w	r2, [r0, #348]	@ 0x15c
    pHandle->F3POW2 = 0u;
 800727c:	8641      	strh	r1, [r0, #50]	@ 0x32
    while (htempk != 0)
 800727e:	b1eb      	cbz	r3, 80072bc <STO_CR_Init+0x60>
    wAux = (int32_t)1;
 8007280:	4611      	mov	r1, r2
      htempk /= (int16_t)2;
 8007282:	eb03 73d3 	add.w	r3, r3, r3, lsr #31
    while (htempk != 0)
 8007286:	f102 0c01 	add.w	ip, r2, #1
 800728a:	105b      	asrs	r3, r3, #1
 800728c:	4610      	mov	r0, r2
      wAux *= (int32_t)2;
 800728e:	ea4f 0141 	mov.w	r1, r1, lsl #1
    while (htempk != 0)
 8007292:	fa1f f28c 	uxth.w	r2, ip
 8007296:	d1f4      	bne.n	8007282 <STO_CR_Init+0x26>
    pHandle->hF3 = (int16_t)wAux;
 8007298:	b20a      	sxth	r2, r1
 800729a:	8660      	strh	r0, [r4, #50]	@ 0x32
    wAux = (int32_t)(pHandle->hF2) * pHandle->hF3;
 800729c:	fb0e f102 	mul.w	r1, lr, r2
    pHandle->hC6 = (int16_t)(wAux / C6_COMP_CONST2);
 80072a0:	4808      	ldr	r0, [pc, #32]	@ (80072c4 <STO_CR_Init+0x68>)
    pHandle->hF3 = (int16_t)wAux;
 80072a2:	8622      	strh	r2, [r4, #48]	@ 0x30
    pHandle->hC6 = (int16_t)(wAux / C6_COMP_CONST2);
 80072a4:	17cb      	asrs	r3, r1, #31
 80072a6:	fb80 0101 	smull	r0, r1, r0, r1
 80072aa:	ebc3 2321 	rsb	r3, r3, r1, asr #8
 80072ae:	8563      	strh	r3, [r4, #42]	@ 0x2a
    STO_CR_Clear(pHandle);
 80072b0:	4620      	mov	r0, r4
 80072b2:	f7ff ffa7 	bl	8007204 <STO_CR_Clear>
    pHandle->_Super.hMecAccelUnitP = 0;
 80072b6:	2300      	movs	r3, #0
 80072b8:	8263      	strh	r3, [r4, #18]
}
 80072ba:	bd10      	pop	{r4, pc}
 80072bc:	4671      	mov	r1, lr
 80072be:	e7ef      	b.n	80072a0 <STO_CR_Init+0x44>
 80072c0:	000fea5e 	.word	0x000fea5e
 80072c4:	06488dc5 	.word	0x06488dc5

080072c8 <STO_CR_GetEstimatedBemf>:
    Vaux.alpha = pHandle->hBemf_alfa_est;
    Vaux.beta = pHandle->hBemf_beta_est;
#ifdef NULL_PTR_CHECK_STO_COR_SPD_POS_FDB
  }
#endif
  return (Vaux);
 80072c8:	6c43      	ldr	r3, [r0, #68]	@ 0x44
 80072ca:	2200      	movs	r2, #0
 80072cc:	b299      	uxth	r1, r3
 80072ce:	f361 020f 	bfi	r2, r1, #0, #16
 80072d2:	0c1b      	lsrs	r3, r3, #16
 80072d4:	f363 421f 	bfi	r2, r3, #16, #16
{
 80072d8:	b082      	sub	sp, #8
}
 80072da:	4610      	mov	r0, r2
 80072dc:	b002      	add	sp, #8
 80072de:	4770      	bx	lr

080072e0 <STO_CR_GetEstimatedCurrent>:
  * @param  pHandle: handler of the current instance of the STO CORDIC component
  * @retval alphabeta_t State observer estimated stator current Ialpha-beta
  */
//cstat !MISRAC2012-Rule-8.13
__weak alphabeta_t STO_CR_GetEstimatedCurrent(STO_CR_Handle_t *pHandle)
{
 80072e0:	4603      	mov	r3, r0
    Iaux.beta = (int16_t)(pHandle->Ibeta_est / (pHandle->hF1));
#endif
#ifdef NULL_PTR_CHECK_STO_COR_SPD_POS_FDB
  }
#endif
  return (Iaux);
 80072e2:	2000      	movs	r0, #0
    Iaux.alpha = (int16_t)(pHandle->Ialfa_est >> pHandle->F1LOG);
 80072e4:	f8b3 117c 	ldrh.w	r1, [r3, #380]	@ 0x17c
    Iaux.beta = (int16_t)(pHandle->Ibeta_est >> pHandle->F1LOG);
 80072e8:	e9d3 230d 	ldrd	r2, r3, [r3, #52]	@ 0x34
    Iaux.alpha = (int16_t)(pHandle->Ialfa_est >> pHandle->F1LOG);
 80072ec:	410a      	asrs	r2, r1
  return (Iaux);
 80072ee:	410b      	asrs	r3, r1
 80072f0:	b292      	uxth	r2, r2
 80072f2:	f362 000f 	bfi	r0, r2, #0, #16
 80072f6:	b29b      	uxth	r3, r3
{
 80072f8:	b082      	sub	sp, #8
  return (Iaux);
 80072fa:	f363 401f 	bfi	r0, r3, #16, #16
}
 80072fe:	b002      	add	sp, #8
 8007300:	4770      	bx	lr
 8007302:	bf00      	nop

08007304 <STO_CR_GetObserverGains>:
    /* Nothing to do */
  }
  else
  {
#endif
    *phC2 = pHandle->hC2;
 8007304:	f9b0 3022 	ldrsh.w	r3, [r0, #34]	@ 0x22
 8007308:	800b      	strh	r3, [r1, #0]
    *phC4 = pHandle->hC4;
 800730a:	f9b0 3026 	ldrsh.w	r3, [r0, #38]	@ 0x26
 800730e:	8013      	strh	r3, [r2, #0]
#ifdef NULL_PTR_CHECK_STO_COR_SPD_POS_FDB
  }
#endif
}
 8007310:	4770      	bx	lr
 8007312:	bf00      	nop

08007314 <STO_CR_SetObserverGains>:
    /* Nothing to do */
  }
  else
  {
#endif
    pHandle->hC2 = hhC1;
 8007314:	8441      	strh	r1, [r0, #34]	@ 0x22
    pHandle->hC4 = hhC2;
 8007316:	84c2      	strh	r2, [r0, #38]	@ 0x26
#ifdef NULL_PTR_CHECK_STO_COR_SPD_POS_FDB
  }
#endif
}
 8007318:	4770      	bx	lr
 800731a:	bf00      	nop

0800731c <STO_CR_CalcAvrgElSpeedDpp>:
    int32_t wSumOrig = pHandle->DppOrigBufferSum;
    int32_t wAvrSpeed_dpp;
    int16_t hSpeedBufferSizedpp = (int16_t)(pHandle->SpeedBufferSizedpp);
    int16_t hSpeedBufferSizeUnit = (int16_t)(pHandle->SpeedBufferSizeUnit);
    int16_t hBufferSizeDiff;
    int16_t hIndexNew = (int16_t)pHandle->Speed_Buffer_Index;
 800731c:	f890 10c8 	ldrb.w	r1, [r0, #200]	@ 0xc8
    int16_t hIndexOld;
    int16_t hIndexOldTemp;

    hBufferSizeDiff = hSpeedBufferSizeUnit - hSpeedBufferSizedpp;
 8007320:	f890 216d 	ldrb.w	r2, [r0, #365]	@ 0x16d
 8007324:	eb00 0c41 	add.w	ip, r0, r1, lsl #1
{
 8007328:	b510      	push	{r4, lr}

    if (0 == hBufferSizeDiff)
    {
      wSum = wSum + pHandle->Speed_Buffer[hIndexNew] - pHandle->SpeedBufferOldestEl;
 800732a:	f9bc 3048 	ldrsh.w	r3, [ip, #72]	@ 0x48
 800732e:	f8d0 4160 	ldr.w	r4, [r0, #352]	@ 0x160
    int16_t hSpeedBufferSizeUnit = (int16_t)(pHandle->SpeedBufferSizeUnit);
 8007332:	f890 e16c 	ldrb.w	lr, [r0, #364]	@ 0x16c
      wSumOrig = wSumOrig + pHandle->Orig_Speed_Buffer[hIndexNew] - pHandle->OrigSpeedBufferOldestEl;
 8007336:	f9bc c0ce 	ldrsh.w	ip, [ip, #206]	@ 0xce
    hBufferSizeDiff = hSpeedBufferSizeUnit - hSpeedBufferSizedpp;
 800733a:	ebae 0202 	sub.w	r2, lr, r2
      wSum = wSum + pHandle->Speed_Buffer[hIndexNew] - pHandle->SpeedBufferOldestEl;
 800733e:	4423      	add	r3, r4
      wSumOrig = wSumOrig + pHandle->Orig_Speed_Buffer[hIndexNew] - pHandle->OrigSpeedBufferOldestEl;
 8007340:	f8d0 4164 	ldr.w	r4, [r0, #356]	@ 0x164
    hBufferSizeDiff = hSpeedBufferSizeUnit - hSpeedBufferSizedpp;
 8007344:	b292      	uxth	r2, r2
      wSumOrig = wSumOrig + pHandle->Orig_Speed_Buffer[hIndexNew] - pHandle->OrigSpeedBufferOldestEl;
 8007346:	44a4      	add	ip, r4
    if (0 == hBufferSizeDiff)
 8007348:	b99a      	cbnz	r2, 8007372 <STO_CR_CalcAvrgElSpeedDpp+0x56>
      wSum = wSum + pHandle->Speed_Buffer[hIndexNew] - pHandle->SpeedBufferOldestEl;
 800734a:	f9b0 1168 	ldrsh.w	r1, [r0, #360]	@ 0x168
      wSumOrig = wSumOrig + pHandle->Orig_Speed_Buffer[hIndexNew] - pHandle->OrigSpeedBufferOldestEl;
 800734e:	f9b0 216a 	ldrsh.w	r2, [r0, #362]	@ 0x16a
      wSum = wSum + pHandle->Speed_Buffer[hIndexNew] - pHandle->SpeedBufferOldestEl;
 8007352:	1a5b      	subs	r3, r3, r1
      wSumOrig = wSumOrig + pHandle->Orig_Speed_Buffer[hIndexNew] - pHandle->OrigSpeedBufferOldestEl;
 8007354:	ebac 0202 	sub.w	r2, ip, r2
      wSumOrig = wSumOrig + pHandle->Orig_Speed_Buffer[hIndexNew] - pHandle->Orig_Speed_Buffer[hIndexOld];
    }

#ifndef FULL_MISRA_C_COMPLIANCY_STO_CORDIC
    //cstat !MISRAC2012-Rule-1.3_n !ATH-shift-neg !MISRAC2012-Rule-10.1_R6
    wAvrSpeed_dpp = (int32_t)(wSum >> pHandle->SpeedBufferSizedppLOG);
 8007358:	f8b0 1180 	ldrh.w	r1, [r0, #384]	@ 0x180
    }
#endif

    pHandle->Orig_ElSpeedDpp = (int16_t)wAvrSpeed_dpp;

    pHandle->DppBufferSum = wSum;
 800735c:	f8c0 3160 	str.w	r3, [r0, #352]	@ 0x160
    wAvrSpeed_dpp = (int32_t)(wSum >> pHandle->SpeedBufferSizedppLOG);
 8007360:	410b      	asrs	r3, r1
    wAvrSpeed_dpp = (int32_t)(wSumOrig >> pHandle->SpeedBufferSizedppLOG);
 8007362:	fa42 f101 	asr.w	r1, r2, r1
    pHandle->_Super.hElSpeedDpp = (int16_t)wAvrSpeed_dpp;
 8007366:	81c3      	strh	r3, [r0, #14]
    pHandle->Orig_ElSpeedDpp = (int16_t)wAvrSpeed_dpp;
 8007368:	f8a0 114e 	strh.w	r1, [r0, #334]	@ 0x14e

    pHandle->DppOrigBufferSum = wSumOrig;
 800736c:	f8c0 2164 	str.w	r2, [r0, #356]	@ 0x164
#ifdef NULL_PTR_CHECK_STO_COR_SPD_POS_FDB
  }
#endif
}
 8007370:	bd10      	pop	{r4, pc}
      hIndexOldTemp = hIndexNew + hBufferSizeDiff;
 8007372:	4411      	add	r1, r2
 8007374:	b20a      	sxth	r2, r1
      if (hIndexOldTemp >= hSpeedBufferSizeUnit)
 8007376:	4596      	cmp	lr, r2
      hIndexOldTemp = hIndexNew + hBufferSizeDiff;
 8007378:	b289      	uxth	r1, r1
        hIndexOld = hIndexOldTemp - hSpeedBufferSizeUnit;
 800737a:	bfdc      	itt	le
 800737c:	eba1 010e 	suble.w	r1, r1, lr
 8007380:	b20a      	sxthle	r2, r1
      wSum = wSum + pHandle->Speed_Buffer[hIndexNew] - pHandle->Speed_Buffer[hIndexOld];
 8007382:	eb00 0242 	add.w	r2, r0, r2, lsl #1
 8007386:	f9b2 1048 	ldrsh.w	r1, [r2, #72]	@ 0x48
      wSumOrig = wSumOrig + pHandle->Orig_Speed_Buffer[hIndexNew] - pHandle->Orig_Speed_Buffer[hIndexOld];
 800738a:	f9b2 20ce 	ldrsh.w	r2, [r2, #206]	@ 0xce
      wSum = wSum + pHandle->Speed_Buffer[hIndexNew] - pHandle->Speed_Buffer[hIndexOld];
 800738e:	1a5b      	subs	r3, r3, r1
      wSumOrig = wSumOrig + pHandle->Orig_Speed_Buffer[hIndexNew] - pHandle->Orig_Speed_Buffer[hIndexOld];
 8007390:	ebac 0202 	sub.w	r2, ip, r2
 8007394:	e7e0      	b.n	8007358 <STO_CR_CalcAvrgElSpeedDpp+0x3c>
 8007396:	bf00      	nop

08007398 <STO_CR_GetEstimatedBemfLevel>:
#ifdef NULL_PTR_CHECK_STO_COR_SPD_POS_FDB
  return ((NULL == pHandle) ? 0 : pHandle->Est_Bemf_Level);
#else
  return (pHandle->Est_Bemf_Level);
#endif
}
 8007398:	f8d0 0158 	ldr.w	r0, [r0, #344]	@ 0x158
 800739c:	4770      	bx	lr
 800739e:	bf00      	nop

080073a0 <STO_CR_GetObservedBemfLevel>:
#ifdef NULL_PTR_CHECK_STO_COR_SPD_POS_FDB
  return ((NULL == pHandle) ? 0 : pHandle->Obs_Bemf_Level);
#else
  return (pHandle->Obs_Bemf_Level);
#endif
}
 80073a0:	f8d0 0154 	ldr.w	r0, [r0, #340]	@ 0x154
 80073a4:	4770      	bx	lr
 80073a6:	bf00      	nop

080073a8 <VSS_Clear>:
    /* Nothing to do */
  }
  else
  {
#endif
    pHandle->_Super.bSpeedErrorNumber = 0U;
 80073a8:	2300      	movs	r3, #0
    pHandle->hRemainingStep = 0U;
    pHandle->hElAngleAccu = 0;

    pHandle->bTransitionStarted = false;
    pHandle->bTransitionEnded = false;
    pHandle->hTransitionRemainingSteps = pHandle->hTransitionSteps;
 80073aa:	8ec2      	ldrh	r2, [r0, #54]	@ 0x36
    pHandle->_Super.bSpeedErrorNumber = 0U;
 80073ac:	7003      	strb	r3, [r0, #0]
    pHandle->wElSpeedDpp32 = 0;
 80073ae:	e9c0 3308 	strd	r3, r3, [r0, #32]
    pHandle->_Super.hElAngle = 0;
 80073b2:	6043      	str	r3, [r0, #4]
    pHandle->_Super.hAvrMecSpeedUnit = 0;
 80073b4:	60c3      	str	r3, [r0, #12]
    pHandle->_Super.hMecAccelUnitP = 0;
 80073b6:	8243      	strh	r3, [r0, #18]
    pHandle->hRemainingStep = 0U;
 80073b8:	8503      	strh	r3, [r0, #40]	@ 0x28
    pHandle->bTransitionStarted = false;
 80073ba:	8583      	strh	r3, [r0, #44]	@ 0x2c
    pHandle->hTransitionRemainingSteps = pHandle->hTransitionSteps;
 80073bc:	85c2      	strh	r2, [r0, #46]	@ 0x2e
    pHandle->hElAngleAccu = 0;
 80073be:	6303      	str	r3, [r0, #48]	@ 0x30

    pHandle->bCopyObserver = false;
#ifdef NULL_PTR_CHECK_VIR_SPD_SEN
  }
#endif
}
 80073c0:	4770      	bx	lr
 80073c2:	bf00      	nop

080073c4 <VSS_Init>:
{
 80073c4:	b508      	push	{r3, lr}
  VSS_Clear(pHandle);
 80073c6:	f7ff ffef 	bl	80073a8 <VSS_Clear>
}
 80073ca:	bd08      	pop	{r3, pc}

080073cc <VSS_SetMecAngle>:
  }
  else
  {
#endif
    pHandle->hElAngleAccu = hMecAngle;
    pHandle->_Super.hMecAngle = pHandle->hElAngleAccu / ((int16_t)pHandle->_Super.bElToMecRatio);
 80073cc:	7843      	ldrb	r3, [r0, #1]
    pHandle->hElAngleAccu = hMecAngle;
 80073ce:	8601      	strh	r1, [r0, #48]	@ 0x30
    pHandle->_Super.hMecAngle = pHandle->hElAngleAccu / ((int16_t)pHandle->_Super.bElToMecRatio);
 80073d0:	fb91 f3f3 	sdiv	r3, r1, r3
    pHandle->_Super.hElAngle = hMecAngle;
 80073d4:	8081      	strh	r1, [r0, #4]
    pHandle->_Super.hMecAngle = pHandle->hElAngleAccu / ((int16_t)pHandle->_Super.bElToMecRatio);
 80073d6:	80c3      	strh	r3, [r0, #6]
#ifdef NULL_PTR_CHECK_VIR_SPD_SEN
  }
#endif
}
 80073d8:	4770      	bx	lr
 80073da:	bf00      	nop

080073dc <VSS_SetMecAcceleration>:
    int32_t wMecAccDppP32;
    uint16_t hNbrStep;
    int16_t hCurrentMecSpeedDpp;
    int16_t hFinalMecSpeedDpp;

    if (false == pHandle->bTransitionStarted)
 80073dc:	f890 302c 	ldrb.w	r3, [r0, #44]	@ 0x2c
 80073e0:	b9a3      	cbnz	r3, 800740c <VSS_SetMecAcceleration+0x30>
        pHandle->_Super.hAvrMecSpeedUnit = hFinalMecSpeedUnit;

        pHandle->_Super.hElSpeedDpp = (int16_t)((((int32_t)hFinalMecSpeedUnit)
                                               * ((int32_t)pHandle->_Super.DPPConvFactor))
                                              / (((int32_t)SPEED_UNIT)
                                               * ((int32_t)pHandle->_Super.hMeasurementFrequency)));
 80073e2:	8b43      	ldrh	r3, [r0, #26]
{
 80073e4:	b510      	push	{r4, lr}
                                               * ((int32_t)pHandle->_Super.DPPConvFactor))
 80073e6:	69c4      	ldr	r4, [r0, #28]

        pHandle->_Super.hElSpeedDpp *= ((int16_t)pHandle->_Super.bElToMecRatio);
 80073e8:	f890 e001 	ldrb.w	lr, [r0, #1]
                                               * ((int32_t)pHandle->_Super.hMeasurementFrequency)));
 80073ec:	eb03 0383 	add.w	r3, r3, r3, lsl #2
                                               * ((int32_t)pHandle->_Super.DPPConvFactor))
 80073f0:	fb04 fc01 	mul.w	ip, r4, r1
                                               * ((int32_t)pHandle->_Super.hMeasurementFrequency)));
 80073f4:	005b      	lsls	r3, r3, #1
                                              / (((int32_t)SPEED_UNIT)
 80073f6:	fb9c fcf3 	sdiv	ip, ip, r3
      if (0U == hDurationms)
 80073fa:	b942      	cbnz	r2, 800740e <VSS_SetMecAcceleration+0x32>
        pHandle->_Super.hElSpeedDpp *= ((int16_t)pHandle->_Super.bElToMecRatio);
 80073fc:	fb1c fc0e 	smulbb	ip, ip, lr
        pHandle->_Super.hAvrMecSpeedUnit = hFinalMecSpeedUnit;
 8007400:	8181      	strh	r1, [r0, #12]
        pHandle->_Super.hElSpeedDpp *= ((int16_t)pHandle->_Super.bElToMecRatio);
 8007402:	f8a0 c00e 	strh.w	ip, [r0, #14]

        pHandle->hRemainingStep = 0U;
 8007406:	8502      	strh	r2, [r0, #40]	@ 0x28

        pHandle->hFinalMecSpeedUnit = hFinalMecSpeedUnit;
 8007408:	8541      	strh	r1, [r0, #42]	@ 0x2a
      /* Nothing to do */
    }
#ifdef NULL_PTR_CHECK_VIR_SPD_SEN
  }
#endif
}
 800740a:	bd10      	pop	{r4, pc}
 800740c:	4770      	bx	lr
        hNbrStep = (uint16_t)((((uint32_t)hDurationms) * ((uint32_t)pHandle->hSpeedSamplingFreqHz)) / 1000U);
 800740e:	8e83      	ldrh	r3, [r0, #52]	@ 0x34
 8007410:	fb02 f303 	mul.w	r3, r2, r3
 8007414:	4a0e      	ldr	r2, [pc, #56]	@ (8007450 <VSS_SetMecAcceleration+0x74>)
 8007416:	fba2 2303 	umull	r2, r3, r2, r3
 800741a:	f3c3 138f 	ubfx	r3, r3, #6, #16
        hNbrStep++;
 800741e:	3301      	adds	r3, #1
 8007420:	b29b      	uxth	r3, r3
        hCurrentMecSpeedDpp = pHandle->_Super.hElSpeedDpp / ((int16_t)pHandle->_Super.bElToMecRatio);
 8007422:	f9b0 200e 	ldrsh.w	r2, [r0, #14]
        pHandle->hRemainingStep = hNbrStep;
 8007426:	8503      	strh	r3, [r0, #40]	@ 0x28
        if (0U == hNbrStep)
 8007428:	b91b      	cbnz	r3, 8007432 <VSS_SetMecAcceleration+0x56>
        pHandle->wElSpeedDpp32 = ((int32_t)pHandle->_Super.hElSpeedDpp) * ((int32_t)65536);
 800742a:	0412      	lsls	r2, r2, #16
        pHandle->hFinalMecSpeedUnit = hFinalMecSpeedUnit;
 800742c:	8541      	strh	r1, [r0, #42]	@ 0x2a
        pHandle->wElSpeedDpp32 = ((int32_t)pHandle->_Super.hElSpeedDpp) * ((int32_t)65536);
 800742e:	6242      	str	r2, [r0, #36]	@ 0x24
}
 8007430:	bd10      	pop	{r4, pc}
        hCurrentMecSpeedDpp = pHandle->_Super.hElSpeedDpp / ((int16_t)pHandle->_Super.bElToMecRatio);
 8007432:	fb92 f4fe 	sdiv	r4, r2, lr
          wMecAccDppP32 = ((((int32_t)hFinalMecSpeedDpp) - ((int32_t)hCurrentMecSpeedDpp))
 8007436:	ebac 0c04 	sub.w	ip, ip, r4
                         * ((int32_t)65536)) / ((int32_t )hNbrStep);
 800743a:	ea4f 4c0c 	mov.w	ip, ip, lsl #16
        pHandle->wElSpeedDpp32 = ((int32_t)pHandle->_Super.hElSpeedDpp) * ((int32_t)65536);
 800743e:	0412      	lsls	r2, r2, #16
          wMecAccDppP32 = ((((int32_t)hFinalMecSpeedDpp) - ((int32_t)hCurrentMecSpeedDpp))
 8007440:	fb9c f3f3 	sdiv	r3, ip, r3
          pHandle->wElAccDppP32 = wMecAccDppP32 * ((int16_t)pHandle->_Super.bElToMecRatio);
 8007444:	fb0e f303 	mul.w	r3, lr, r3
 8007448:	6203      	str	r3, [r0, #32]
        pHandle->hFinalMecSpeedUnit = hFinalMecSpeedUnit;
 800744a:	8541      	strh	r1, [r0, #42]	@ 0x2a
        pHandle->wElSpeedDpp32 = ((int32_t)pHandle->_Super.hElSpeedDpp) * ((int32_t)65536);
 800744c:	6242      	str	r2, [r0, #36]	@ 0x24
    }
 800744e:	e7ef      	b.n	8007430 <VSS_SetMecAcceleration+0x54>
 8007450:	10624dd3 	.word	0x10624dd3

08007454 <memset>:
 8007454:	4402      	add	r2, r0
 8007456:	4603      	mov	r3, r0
 8007458:	4293      	cmp	r3, r2
 800745a:	d100      	bne.n	800745e <memset+0xa>
 800745c:	4770      	bx	lr
 800745e:	f803 1b01 	strb.w	r1, [r3], #1
 8007462:	e7f9      	b.n	8007458 <memset+0x4>

08007464 <__libc_init_array>:
 8007464:	b570      	push	{r4, r5, r6, lr}
 8007466:	4d0d      	ldr	r5, [pc, #52]	@ (800749c <__libc_init_array+0x38>)
 8007468:	4c0d      	ldr	r4, [pc, #52]	@ (80074a0 <__libc_init_array+0x3c>)
 800746a:	1b64      	subs	r4, r4, r5
 800746c:	10a4      	asrs	r4, r4, #2
 800746e:	2600      	movs	r6, #0
 8007470:	42a6      	cmp	r6, r4
 8007472:	d109      	bne.n	8007488 <__libc_init_array+0x24>
 8007474:	4d0b      	ldr	r5, [pc, #44]	@ (80074a4 <__libc_init_array+0x40>)
 8007476:	4c0c      	ldr	r4, [pc, #48]	@ (80074a8 <__libc_init_array+0x44>)
 8007478:	f000 f826 	bl	80074c8 <_init>
 800747c:	1b64      	subs	r4, r4, r5
 800747e:	10a4      	asrs	r4, r4, #2
 8007480:	2600      	movs	r6, #0
 8007482:	42a6      	cmp	r6, r4
 8007484:	d105      	bne.n	8007492 <__libc_init_array+0x2e>
 8007486:	bd70      	pop	{r4, r5, r6, pc}
 8007488:	f855 3b04 	ldr.w	r3, [r5], #4
 800748c:	4798      	blx	r3
 800748e:	3601      	adds	r6, #1
 8007490:	e7ee      	b.n	8007470 <__libc_init_array+0xc>
 8007492:	f855 3b04 	ldr.w	r3, [r5], #4
 8007496:	4798      	blx	r3
 8007498:	3601      	adds	r6, #1
 800749a:	e7f2      	b.n	8007482 <__libc_init_array+0x1e>
 800749c:	08007900 	.word	0x08007900
 80074a0:	08007900 	.word	0x08007900
 80074a4:	08007900 	.word	0x08007900
 80074a8:	08007904 	.word	0x08007904

080074ac <memcpy>:
 80074ac:	440a      	add	r2, r1
 80074ae:	4291      	cmp	r1, r2
 80074b0:	f100 33ff 	add.w	r3, r0, #4294967295
 80074b4:	d100      	bne.n	80074b8 <memcpy+0xc>
 80074b6:	4770      	bx	lr
 80074b8:	b510      	push	{r4, lr}
 80074ba:	f811 4b01 	ldrb.w	r4, [r1], #1
 80074be:	f803 4f01 	strb.w	r4, [r3, #1]!
 80074c2:	4291      	cmp	r1, r2
 80074c4:	d1f9      	bne.n	80074ba <memcpy+0xe>
 80074c6:	bd10      	pop	{r4, pc}

080074c8 <_init>:
 80074c8:	b5f8      	push	{r3, r4, r5, r6, r7, lr}
 80074ca:	bf00      	nop
 80074cc:	bcf8      	pop	{r3, r4, r5, r6, r7}
 80074ce:	bc08      	pop	{r3}
 80074d0:	469e      	mov	lr, r3
 80074d2:	4770      	bx	lr

080074d4 <_fini>:
 80074d4:	b5f8      	push	{r3, r4, r5, r6, r7, lr}
 80074d6:	bf00      	nop
 80074d8:	bcf8      	pop	{r3, r4, r5, r6, r7}
 80074da:	bc08      	pop	{r3}
 80074dc:	469e      	mov	lr, r3
 80074de:	4770      	bx	lr
